 ztribe

 Timestamp is 32ee67ac (Tue Jan 28 14:55:08 1997)

 Preferred load address is 00400000

 Start         Length     Name                   Class
 0001:00000000 0016cc3aH .text                   CODE
 0002:00000000 0000a459H THIS_COD                CODE
 0003:00000000 00008280H .rdata                  DATA
 0003:00008280 000001e8H .rdata$r                DATA
 0003:00008468 00007e18H .xdata$x                DATA
 0003:00010280 00000000H .edata                  DATA
 0004:00000000 00000004H .CRT$XCA                DATA
 0004:00000004 00000004H .CRT$XCC                DATA
 0004:00000008 00000010H .CRT$XCU                DATA
 0004:00000018 00000004H .CRT$XCZ                DATA
 0004:0000001c 00000004H .CRT$XIA                DATA
 0004:00000020 00000008H .CRT$XIC                DATA
 0004:00000028 00000004H .CRT$XIZ                DATA
 0004:0000002c 00000004H .CRT$XPA                DATA
 0004:00000030 00000004H .CRT$XPX                DATA
 0004:00000034 00000004H .CRT$XPZ                DATA
 0004:00000038 00000004H .CRT$XTA                DATA
 0004:0000003c 00000004H .CRT$XTZ                DATA
 0004:00000040 0000ba50H .data                   DATA
 0004:0000ba90 0022587cH .bss                    DATA
 0005:00000000 000000c8H .idata$2                DATA
 0005:000000c8 00000028H .idata$3                DATA
 0005:000000f0 000003ccH .idata$4                DATA
 0005:000004bc 000003ccH .idata$5                DATA
 0005:00000888 00000f88H .idata$6                DATA
 0006:00000000 00000070H THIS_DAT                DATA
 0007:00000000 0000ad90H Inf32Data               DATA
 0008:00000000 00000010H .rsrc$01                DATA
 0008:00000010 00000000H .rsrc$02                DATA

  Address         Publics by Value              Rva+Base   Lib:Object

 0001:00000000       ??0MessageQueueElement@@QAE@PAXW4Type@0@W4Priority@0@@Z 00401000 f mqueue.obj
 0001:00000053       ??0MessageQueueElement@@QAE@XZ 00401053 f mqueue.obj
 0001:000000a7       ??1MessageQueueElement@@UAE@XZ 004010a7 f mqueue.obj
 0001:000000c6       ?data@MessageQueueElement@@QBEPAXXZ 004010c6 f mqueue.obj
 0001:000000e2       ?type@MessageQueueElement@@QBE?AW4Type@1@XZ 004010e2 f mqueue.obj
 0001:000000fe       ?priority@MessageQueueElement@@QBE?AW4Priority@1@XZ 004010fe f mqueue.obj
 0001:0000011a       ??0MessageQueue@@QAE@H@Z   0040111a f mqueue.obj
 0001:000001e7       ??1MessageQueue@@UAE@XZ    004011e7 f mqueue.obj
 0001:000002db       ?messageLimit@MessageQueue@@QBEHXZ 004012db f mqueue.obj
 0001:000002f7       ?numberMessages@MessageQueue@@QBEHXZ 004012f7 f mqueue.obj
 0001:00000313       ?addMessage@MessageQueue@@QAEHPAVMessageQueueElement@@@Z 00401313 f mqueue.obj
 0001:00000451       ?addMessage@MessageQueue@@QAEHPAXW4Type@MessageQueueElement@@W4Priority@3@@Z 00401451 f mqueue.obj
 0001:000004f9       ?waitForMessage@MessageQueue@@QAEPAVMessageQueueElement@@XZ 004014f9 f mqueue.obj
 0001:00000526       ?getMessage@MessageQueue@@IAEPAVMessageQueueElement@@XZ 00401526 f mqueue.obj
 0001:000005c0       ??_EMessageQueueElement@@UAEPAXI@Z 004015c0 f mqueue.obj
 0001:000005c0       ??_GMessageQueueElement@@UAEPAXI@Z 004015c0 f mqueue.obj
 0001:00000600       ??_GMessageQueue@@UAEPAXI@Z 00401600 f mqueue.obj
 0001:00000600       ??_EMessageQueue@@UAEPAXI@Z 00401600 f mqueue.obj
 0001:000006ab       ??0TPanelSystem@@QAE@XZ    004016ab f Panel.obj
 0001:00000756       ??1TPanelSystem@@QAE@XZ    00401756 f Panel.obj
 0001:0000084e       ?currentPanel@TPanelSystem@@QBEPAVTPanel@@XZ 0040184e f Panel.obj
 0001:0000086a       ?previousPanel@TPanelSystem@@QBEPAVTPanel@@XZ 0040186a f Panel.obj
 0001:0000089f       ?mouseOwner@TPanelSystem@@QBEPAVTPanel@@XZ 0040189f f Panel.obj
 0001:000008ba       ?keyboardOwner@TPanelSystem@@QBEPAVTPanel@@XZ 004018ba f Panel.obj
 0001:000008d6       ?modalPanel@TPanelSystem@@QBEPAVTPanel@@XZ 004018d6 f Panel.obj
 0001:000008f2       ?panel@TPanelSystem@@QAEPAVTPanel@@PAD@Z 004018f2 f Panel.obj
 0001:0000092f       ?numberActivePanels@TPanelSystem@@QBEHXZ 0040192f f Panel.obj
 0001:0000094b       ?addPanel@TPanelSystem@@QAEHPAVTPanel@@HH@Z 0040194b f Panel.obj
 0001:00000a0b       ?removePanel@TPanelSystem@@QAEHPAD@Z 00401a0b f Panel.obj
 0001:00000a89       ?setCurrentPanel@TPanelSystem@@QAEHPADH@Z 00401a89 f Panel.obj
 0001:00000ad8       ?restorePreviousPanel@TPanelSystem@@QAEHH@Z 00401ad8 f Panel.obj
 0001:00000bb6       ?setMouseOwner@TPanelSystem@@QAEXPAVTPanel@@@Z 00401bb6 f Panel.obj
 0001:00000bd6       ?setKeyboardOwner@TPanelSystem@@QAEXPAVTPanel@@@Z 00401bd6 f Panel.obj
 0001:00000bf7       ?setModalPanel@TPanelSystem@@QAEXPAVTPanel@@@Z 00401bf7 f Panel.obj
 0001:00000c73       ?setCurrentPanelModal@TPanelSystem@@QAEXXZ 00401c73 f Panel.obj
 0001:00000cc6       ?restorePreviousModalPanel@TPanelSystem@@QAEHXZ 00401cc6 f Panel.obj
 0001:00000d45       ?destroyPanel@TPanelSystem@@QAEHPAD@Z 00401d45 f Panel.obj
 0001:00000e56       ?inSystem@TPanelSystem@@QAEHPAD@Z 00401e56 f Panel.obj
 0001:00000e8e       ?inSystem@TPanelSystem@@QAEHPAVTPanel@@@Z 00401e8e f Panel.obj
 0001:00000ed5       ?setup@TPanelSystem@@IAEHXZ 00401ed5 f Panel.obj
 0001:00000f40       ?findPanelNode@TPanelSystem@@IAEPAUPanelNode@@PAD@Z 00401f40 f Panel.obj
 0001:00000fe9       ?setCurrentPanel@TPanelSystem@@IAEXPAVTPanel@@H@Z 00401fe9 f Panel.obj
 0001:00001060       ?get_palette@TPanelSystem@@QAEPAXPAD@Z 00402060 f Panel.obj
 0001:000011fe       ?release_palette@TPanelSystem@@QAEXPAX@Z 004021fe f Panel.obj
 0001:0000129e       ??0TPanel@@QAE@PAD@Z       0040229e f Panel.obj
 0001:0000154a       ??0TPanel@@QAE@XZ          0040254a f Panel.obj
 0001:000017cc       ??1TPanel@@UAE@XZ          004027cc f Panel.obj
 0001:000018e7       ?setup@TPanel@@UAEJPAVTDrawArea@@PAV1@JJJJE@Z 004028e7 f Panel.obj
 0001:00001a6b       ?add_panel_node@TPanel@@QAEXPAUPanelNode@@0H@Z 00402a6b f Panel.obj
 0001:00001bad       ?remove_panel_node@TPanel@@QAEXPAUPanelNode@@@Z 00402bad f Panel.obj
 0001:00001c6e       ?set_rect@TPanel@@UAEXJJJJ@Z 00402c6e f Panel.obj
 0001:00001f0b       ?set_rect@TPanel@@UAEXUtagRECT@@@Z 00402f0b f Panel.obj
 0001:00001f46       ?set_color@TPanel@@UAEXE@Z 00402f46 f Panel.obj
 0001:00001f81       ?set_active@TPanel@@UAEXH@Z 00402f81 f Panel.obj
 0001:00001ffd       ?set_positioning@TPanel@@UAEXW4PositionMode@1@JJJJJJJJPAV1@111@Z 00402ffd f Panel.obj
 0001:00002105       ?set_fixed_position@TPanel@@UAEXJJJJ@Z 00403105 f Panel.obj
 0001:0000214e       ?set_redraw@TPanel@@UAEXW4RedrawMode@1@@Z 0040314e f Panel.obj
 0001:000021b9       ?set_overlapped_redraw@TPanel@@QAEXPAV1@0W4RedrawMode@1@@Z 004031b9 f Panel.obj
 0001:000023be       ?set_any_overlapping_redraw@TPanel@@QAEXPAV1@W4RedrawMode@1@@Z 004033be f Panel.obj
 0001:0000259d       ?draw@TPanel@@UAEXXZ       0040359d f Panel.obj
 0001:00002661       ?draw_rect@TPanel@@UAEXPAUtagRECT@@@Z 00403661 f Panel.obj
 0001:000026e1       ?draw_setup@TPanel@@UAEXH@Z 004036e1 f Panel.obj
 0001:00002757       ?draw_finish@TPanel@@UAEXXZ 00403757 f Panel.obj
 0001:000027a6       ?paint@TPanel@@UAEXXZ      004037a6 f Panel.obj
 0001:00002813       ?wnd_proc@TPanel@@UAEJPAXIIJ@Z 00403813 f Panel.obj
 0001:00002c44       ?handle_idle@TPanel@@UAEJXZ 00403c44 f Panel.obj
 0001:00002d74       ?handle_size@TPanel@@UAEJJJ@Z 00403d74 f Panel.obj
 0001:0000320a       ?handle_paint@TPanel@@UAEJXZ 0040420a f Panel.obj
 0001:00003323       ?handle_key_down@TPanel@@UAEJJFHHH@Z 00404323 f Panel.obj
 0001:00003430       ?handle_command@TPanel@@UAEJIJ@Z 00404430 f Panel.obj
 0001:0000344a       ?handle_user_command@TPanel@@UAEJIJ@Z 0040444a f Panel.obj
 0001:00003464       ?handle_timer_command@TPanel@@UAEJIJ@Z 00404464 f Panel.obj
 0001:0000347e       ?handle_scroll@TPanel@@UAEJJJ@Z 0040447e f Panel.obj
 0001:00003498       ?handle_mouse_down@TPanel@@UAEJEJJHH@Z 00404498 f Panel.obj
 0001:00003657       ?handle_mouse_move@TPanel@@UAEJJJHH@Z 00404657 f Panel.obj
 0001:000038c2       ?handle_mouse_up@TPanel@@UAEJEJJHH@Z 004048c2 f Panel.obj
 0001:00003a30       ?handle_mouse_dbl_click@TPanel@@UAEJEJJHH@Z 00404a30 f Panel.obj
 0001:00003b88       ?action@TPanel@@UAEJPAV1@JKK@Z 00404b88 f Panel.obj
 0001:00003bd8       ?get_mouse_info@TPanel@@QAEXIJAAUtagPOINT@@AAH1@Z 00404bd8 f Panel.obj
 0001:00003c56       ?get_mouse_pos@TPanel@@QAEXAAUtagPOINT@@@Z 00404c56 f Panel.obj
 0001:00003cd4       ?capture_mouse@TPanel@@QAEHXZ 00404cd4 f Panel.obj
 0001:00003d60       ?release_mouse@TPanel@@QAEXXZ 00404d60 f Panel.obj
 0001:00003db2       ?is_redraw_needed@TPanel@@QAEEXZ 00404db2 f Panel.obj
 0001:00003e01       ?is_inside@TPanel@@QAEHJJ@Z 00404e01 f Panel.obj
 0001:00003e7a       ?is_inside_rect@TPanel@@QAEHJJPAUtagRECT@@@Z 00404e7a f Panel.obj
 0001:00003ede       ?bound_point@TPanel@@QAEHAAJ0@Z 00404ede f Panel.obj
 0001:00003f9e       ?set_curr_child@TPanel@@QAEXPAV1@@Z 00404f9e f Panel.obj
 0001:00004033       ?set_focus@TPanel@@UAEXH@Z 00405033 f Panel.obj
 0001:0000409d       ?get_focus@TPanel@@QAEHXZ  0040509d f Panel.obj
 0001:000040b9       ?set_z_order@TPanel@@QAEXEF@Z 004050b9 f Panel.obj
 0001:0000415b       ?set_child_z_order@TPanel@@QAEXPAV1@EF@Z 0040515b f Panel.obj
 0001:00004421       ?set_tab_order@TPanel@@QAEXPAPAV1@F@Z 00405421 f Panel.obj
 0001:000044c2       ?set_tab_order@TPanel@@QAEXPAV1@0@Z 004054c2 f Panel.obj
 0001:000044ff       ?previousPanel@TPanel@@QBEPAV1@XZ 004054ff f Panel.obj
 0001:0000451b       ?setPreviousPanel@TPanel@@QAEXPAV1@@Z 0040551b f Panel.obj
 0001:0000453c       ?previousModalPanel@TPanel@@QBEPAV1@XZ 0040553c f Panel.obj
 0001:00004558       ?setPreviousModalPanel@TPanel@@QAEXPAV1@@Z 00405558 f Panel.obj
 0001:00004579       ?panelName@TPanel@@QBEPADXZ 00405579 f Panel.obj
 0001:00004595       ?setPanelName@TPanel@@QAEXPAD@Z 00405595 f Panel.obj
 0001:00004673       ?xPosition@TPanel@@QBEJXZ  00405673 f Panel.obj
 0001:0000468f       ?yPosition@TPanel@@QBEJXZ  0040568f f Panel.obj
 0001:000046ab       ?width@TPanel@@QBEJXZ      004056ab f Panel.obj
 0001:000046c7       ?height@TPanel@@QBEJXZ     004056c7 f Panel.obj
 0001:000046e3       ?renderArea@TPanel@@QBEPAVTDrawArea@@XZ 004056e3 f Panel.obj
 0001:000046ff       ?clipRectangle@TPanel@@QBE?AUtagRECT@@XZ 004056ff f Panel.obj
 0001:00004739       ?setClipRectangle@TPanel@@QAEXUtagRECT@@@Z 00405739 f Panel.obj
 0001:00004770       ?delete_panel@TPanel@@QAEXPAPAV1@@Z 00405770 f Panel.obj
 0001:000047d0       ?mouse_move_action@TPanel@@UAEJJJHH@Z 004057d0 f Panel.obj
 0001:000047f0       ?mouse_left_down_action@TPanel@@UAEJJJHH@Z 004057f0 f Panel.obj
 0001:00004810       ?mouse_left_hold_action@TPanel@@UAEJJJHH@Z 00405810 f Panel.obj
 0001:00004830       ?mouse_left_move_action@TPanel@@UAEJJJHH@Z 00405830 f Panel.obj
 0001:00004850       ?mouse_left_up_action@TPanel@@UAEJJJHH@Z 00405850 f Panel.obj
 0001:00004870       ?mouse_left_dbl_click_action@TPanel@@UAEJJJHH@Z 00405870 f Panel.obj
 0001:00004890       ?mouse_right_down_action@TPanel@@UAEJJJHH@Z 00405890 f Panel.obj
 0001:000048b0       ?mouse_right_hold_action@TPanel@@UAEJJJHH@Z 004058b0 f Panel.obj
 0001:000048d0       ?mouse_right_move_action@TPanel@@UAEJJJHH@Z 004058d0 f Panel.obj
 0001:000048f0       ?mouse_right_up_action@TPanel@@UAEJJJHH@Z 004058f0 f Panel.obj
 0001:00004910       ?mouse_right_dbl_click_action@TPanel@@UAEJJJHH@Z 00405910 f Panel.obj
 0001:00004930       ?key_down_action@TPanel@@UAEJJFHHH@Z 00405930 f Panel.obj
 0001:00004950       ?char_action@TPanel@@UAEJJF@Z 00405950 f Panel.obj
 0001:00004970       ??_GTPanel@@UAEPAXI@Z      00405970 f Panel.obj
 0001:00004970       ??_ETPanel@@UAEPAXI@Z      00405970 f Panel.obj
 0001:000049b0       ?get_overlapping_children@TPanel@@QAEHXZ 004059b0 f Panel.obj
 0001:000049d0       ??0ResourceItem@@QAE@XZ    004059d0 f airesitm.obj
 0001:00004a2e       ??0ResourceItem@@QAE@HPAH@Z 00405a2e f airesitm.obj
 0001:00004ad3       ??0ResourceItem@@QAE@ABV0@@Z 00405ad3 f airesitm.obj
 0001:00004b7e       ??0ResourceItem@@QAE@PAV0@@Z 00405b7e f airesitm.obj
 0001:00004c29       ??1ResourceItem@@UAE@XZ    00405c29 f airesitm.obj
 0001:00004cb3       ??YResourceItem@@QAEAAV0@ABV0@@Z 00405cb3 f airesitm.obj
 0001:00004d1b       ??8@YAHABVResourceItem@@0@Z 00405d1b f airesitm.obj
 0001:00004d94       ??9@YAHABVResourceItem@@0@Z 00405d94 f airesitm.obj
 0001:00004e10       ??M@YAHABVResourceItem@@0@Z 00405e10 f airesitm.obj
 0001:00004e22       ??O@YAHABVResourceItem@@0@Z 00405e22 f airesitm.obj
 0001:00004e34       ?value@ResourceItem@@QBEHH@Z 00405e34 f airesitm.obj
 0001:00004e88       ?setValue@ResourceItem@@QAEXHH@Z 00405e88 f airesitm.obj
 0001:00004eda       ?number@ResourceItem@@QBEHXZ 00405eda f airesitm.obj
 0001:00004ef6       ?largestValueIndex@ResourceItem@@QAEHH@Z 00405ef6 f airesitm.obj
 0001:00004f4f       ?sortLarge@ResourceItem@@IAEHXZ 00405f4f f airesitm.obj
 0001:00005100       ??_EResourceItem@@UAEPAXI@Z 00406100 f airesitm.obj
 0001:00005100       ??_GResourceItem@@UAEPAXI@Z 00406100 f airesitm.obj
 0001:00005140       ??0TScrollBarPanel@@QAE@XZ 00406140 f Pnl_scbr.obj
 0001:00005375       ??1TScrollBarPanel@@UAE@XZ 00406375 f Pnl_scbr.obj
 0001:000054fd       ?setup@TScrollBarPanel@@QAEJPAVTDrawArea@@PAVTPanel@@JJJJPAD222JJ1JW4Orientation@1@@Z 004064fd f Pnl_scbr.obj
 0001:00005578       ?set_rect@TScrollBarPanel@@UAEXJJJJ@Z 00406578 f Pnl_scbr.obj
 0001:000058bf       ?calc_item_rects@TScrollBarPanel@@QAEXXZ 004068bf f Pnl_scbr.obj
 0001:000059de       ?set_tab_pos@TScrollBarPanel@@QAEXJ@Z 004069de f Pnl_scbr.obj
 0001:00005b7e       ?set_list_len@TScrollBarPanel@@QAEXJJ@Z 00406b7e f Pnl_scbr.obj
 0001:00005bae       ?handle_idle@TScrollBarPanel@@UAEJXZ 00406bae f Pnl_scbr.obj
 0001:00005e6c       ?mouse_left_down_action@TScrollBarPanel@@UAEJJJHH@Z 00406e6c f Pnl_scbr.obj
 0001:00006126       ?mouse_left_move_action@TScrollBarPanel@@UAEJJJHH@Z 00407126 f Pnl_scbr.obj
 0001:0000693e       ?mouse_left_up_action@TScrollBarPanel@@UAEJJJHH@Z 0040793e f Pnl_scbr.obj
 0001:00006af5       ?draw@TScrollBarPanel@@UAEXXZ 00407af5 f Pnl_scbr.obj
 0001:00006e90       ??_GTScrollBarPanel@@UAEPAXI@Z 00407e90 f Pnl_scbr.obj
 0001:00006e90       ??_ETScrollBarPanel@@UAEPAXI@Z 00407e90 f Pnl_scbr.obj
 0001:00006ed0       ??_GTShape@@QAEPAXI@Z      00407ed0 f Pnl_scbr.obj
 0001:00006f10       _WinMain@16                00407f10 f main.obj
 0001:00007320       ??0RGE_Communications_Speed@@QAE@PAVTCommunications_Handler@@@Z 00408320 f com_spd.obj
 0001:00007598       ??1RGE_Communications_Speed@@QAE@XZ 00408598 f com_spd.obj
 0001:00007604       ?ForceSpeedChange@RGE_Communications_Speed@@QAEXW4COMMSPEEDS@@@Z 00408604 f com_spd.obj
 0001:000076cb       ?ForceGranularityChange@RGE_Communications_Speed@@QAEXW4COMMSPEEDS@@@Z 004086cb f com_spd.obj
 0001:0000779f       ?SetFutureSpeedChange@RGE_Communications_Speed@@QAEXIIK@Z 0040879f f com_spd.obj
 0001:000077f0       ?EnableSpeedControl@RGE_Communications_Speed@@QAEXH@Z 004087f0 f com_spd.obj
 0001:00007814       ?SetLatencySpeedRequest@RGE_Communications_Speed@@QAEXIEI@Z 00408814 f com_spd.obj
 0001:0000782c       ?DetermineLatencySpeedChange@RGE_Communications_Speed@@QAE?AW4COMMSPEEDS@@K@Z 0040882c f com_spd.obj
 0001:00007989       ?GetBufferGranularity@RGE_Communications_Speed@@QAEIXZ 00408989 f com_spd.obj
 0001:000079a8       ?GetBufferGranularityAdjusted@RGE_Communications_Speed@@QAEIXZ 004089a8 f com_spd.obj
 0001:000079c7       ?BufferFramesRemaining@RGE_Communications_Speed@@QAEIXZ 004089c7 f com_spd.obj
 0001:000079e6       ?WaitingOnAcknowledgement@RGE_Communications_Speed@@QAEIXZ 004089e6 f com_spd.obj
 0001:00007a0e       ?SetAllSpeedRequests@RGE_Communications_Speed@@QAEXW4COMMSPEEDS@@@Z 00408a0e f com_spd.obj
 0001:00007a55       ?ResetLatencySpeedRequests@RGE_Communications_Speed@@QAEXXZ 00408a55 f com_spd.obj
 0001:00007a82       ?AdjustForSkip@RGE_Communications_Speed@@QAEXI@Z 00408a82 f com_spd.obj
 0001:00007b21       ?ElapsedMsecInCurrentTurn@RGE_Communications_Speed@@QAEKXZ 00408b21 f com_spd.obj
 0001:00007b45       ?AdjustLocalSpeed@RGE_Communications_Speed@@IAEXXZ 00408b45 f com_spd.obj
 0001:00007c20       ?ReloadBufferFrames@RGE_Communications_Speed@@QAEXXZ 00408c20 f com_spd.obj
 0001:00007c6b       ?BufferTimeToUse@RGE_Communications_Speed@@QAEIK@Z 00408c6b f com_spd.obj
 0001:00007da6       ?GetSelfPlayerOptimalSpeedStr@RGE_Communications_Speed@@QAEPADXZ 00408da6 f com_spd.obj
 0001:00007de5       ?GetPlayerSpeedStatusStr@RGE_Communications_Speed@@QAEPADH@Z 00408de5 f com_spd.obj
 0001:00008051       ?GetRecommendedBufferFrames@RGE_Communications_Speed@@QAEIXZ 00409051 f com_spd.obj
 0001:00008093       ?GetRecommendedBufferGranularity@RGE_Communications_Speed@@QAEIXZ 00409093 f com_spd.obj
 0001:000080cb       ?AnalyzeGameSpeed@RGE_Communications_Speed@@QAEHPAI0@Z 004090cb f com_spd.obj
 0001:00008190       ??_GRGE_TimeSinceLastCall@@QAEPAXI@Z 00409190 f com_spd.obj
 0001:000081d0       ??0TPicturePanel@@QAE@XZ   004091d0 f Pnl_pic.obj
 0001:000082a8       ??1TPicturePanel@@UAE@XZ   004092a8 f Pnl_pic.obj
 0001:00008318       ?setup@TPicturePanel@@QAEJPAVTDrawArea@@PAVTPanel@@JJJJPADHH@Z 00409318 f Pnl_pic.obj
 0001:0000844e       ?set_picture@TPicturePanel@@QAEXPAVTShape@@@Z 0040944e f Pnl_pic.obj
 0001:00008494       ?load_pic@TPicturePanel@@IAEHXZ 00409494 f Pnl_pic.obj
 0001:000086e4       ?free_pic@TPicturePanel@@IAEXXZ 004096e4 f Pnl_pic.obj
 0001:000087b7       ?draw@TPicturePanel@@UAEXXZ 004097b7 f Pnl_pic.obj
 0001:000088f0       ??_ETPicturePanel@@UAEPAXI@Z 004098f0 f Pnl_pic.obj
 0001:000088f0       ??_GTPicturePanel@@UAEPAXI@Z 004098f0 f Pnl_pic.obj
 0001:00008930       ??_GTPicture@@QAEPAXI@Z    00409930 f Pnl_pic.obj
 0001:00008970       ??0TribeConstructionAIModule@@QAE@PAXH@Z 00409970 f taiconmd.obj
 0001:000089f6       ??1TribeConstructionAIModule@@UAE@XZ 004099f6 f taiconmd.obj
 0001:00008a5e       ?setMainDecisionAI@TribeConstructionAIModule@@QAEXPAVTribeMainDecisionAIModule@@@Z 00409a5e f taiconmd.obj
 0001:00008a82       ?placeStructure@TribeConstructionAIModule@@UAEPAVConstructionItem@@PAVBuildItem@@@Z 00409a82 f taiconmd.obj
 0001:00008ff7       ?randomlyPlaceStructure@TribeConstructionAIModule@@UAEPAVConstructionItem@@PAVBuildItem@@@Z 00409ff7 f taiconmd.obj
 0001:000090e4       ?setBuilt@TribeConstructionAIModule@@UAEXPAVConstructionItem@@H@Z 0040a0e4 f taiconmd.obj
 0001:0000910c       ?setBuilt@TribeConstructionAIModule@@QAEXPAVBaseObject@@H@Z 0040a10c f taiconmd.obj
 0001:000091ce       ?compare@TribeConstructionAIModule@@IAEPAVConstructionItem@@PAV2@0@Z 0040a1ce f taiconmd.obj
 0001:00009210       ?loadState@AIModule@@UAEHPAD@Z 0040a210 f taiconmd.obj
 0001:00009230       ?saveState@AIModule@@UAEHPAD@Z 0040a230 f taiconmd.obj
 0001:00009250       ?gleanState@AIModule@@UAEHH@Z 0040a250 f taiconmd.obj
 0001:00009270       ??_ETribeConstructionAIModule@@UAEPAXI@Z 0040a270 f taiconmd.obj
 0001:00009270       ??_GTribeConstructionAIModule@@UAEPAXI@Z 0040a270 f taiconmd.obj
 0001:000092b0       ??0DString@@QAE@XZ         0040a2b0 f dstring.obj
 0001:0000931c       ??0DString@@QAE@ABV0@@Z    0040a31c f dstring.obj
 0001:000093ab       ??0DString@@QAE@PBD@Z      0040a3ab f dstring.obj
 0001:00009438       ??1DString@@QAE@XZ         0040a438 f dstring.obj
 0001:00009468       ??6@YAAAVostream@@AAV0@ABVDString@@@Z 0040a468 f dstring.obj
 0001:00009495       ??5@YAAAVistream@@AAV0@AAVDString@@@Z 0040a495 f dstring.obj
 0001:000094d3       ??4DString@@QAEAAV0@PBD@Z  0040a4d3 f dstring.obj
 0001:0000957a       ??4DString@@QAEAAV0@ABV0@@Z 0040a57a f dstring.obj
 0001:00009623       ??8@YAHABVDString@@0@Z     0040a623 f dstring.obj
 0001:0000965b       ??8@YAHABVDString@@PBD@Z   0040a65b f dstring.obj
 0001:00009691       ??8@YAHPBDABVDString@@@Z   0040a691 f dstring.obj
 0001:000096c7       ??9@YAHABVDString@@0@Z     0040a6c7 f dstring.obj
 0001:000096ff       ??9@YAHABVDString@@PBD@Z   0040a6ff f dstring.obj
 0001:00009735       ??9@YAHPBDABVDString@@@Z   0040a735 f dstring.obj
 0001:0000976b       ??M@YAHABVDString@@0@Z     0040a76b f dstring.obj
 0001:000097a3       ??M@YAHABVDString@@PBD@Z   0040a7a3 f dstring.obj
 0001:000097d9       ??M@YAHPBDABVDString@@@Z   0040a7d9 f dstring.obj
 0001:0000980f       ??O@YAHABVDString@@0@Z     0040a80f f dstring.obj
 0001:00009847       ??O@YAHABVDString@@PBD@Z   0040a847 f dstring.obj
 0001:0000987d       ??O@YAHPBDABVDString@@@Z   0040a87d f dstring.obj
 0001:000098b3       ??HDString@@QBE?AV0@ABV0@@Z 0040a8b3 f dstring.obj
 0001:00009971       ??ADString@@QAEAADH@Z      0040a971 f dstring.obj
 0001:000099b5       ??BDString@@QBEPADXZ       0040a9b5 f dstring.obj
 0001:000099d0       ?length@DString@@QBEHXZ    0040a9d0 f dstring.obj
 0001:000099ec       ?index@DString@@QBEHXZ     0040a9ec f dstring.obj
 0001:00009a08       ?contains@DString@@QBEHV1@@Z 0040aa08 f dstring.obj
 0001:00009aa9       ?contains@DString@@QBEHPBD@Z 0040aaa9 f dstring.obj
 0001:00009ae7       ?numWords@DString@@QAEHXZ  0040aae7 f dstring.obj
 0001:00009be7       ?word@DString@@QAE?AV1@H@Z 0040abe7 f dstring.obj
 0001:00009ddb       ?nextWord@DString@@QAE?AV1@H@Z 0040addb f dstring.obj
 0001:00009f03       ?moveToFirstWord@DString@@QAEXXZ 0040af03 f dstring.obj
 0001:00009f2d       ?moveToNextWord@DString@@QAEXXZ 0040af2d f dstring.obj
 0001:00009fbd       ?subString@DString@@QAE?AV1@HH@Z 0040afbd f dstring.obj
 0001:0000a0ab       ?append@DString@@QAEXV1@@Z 0040b0ab f dstring.obj
 0001:0000a1ea       ?stripTrailing@DString@@QAE?AV1@D@Z 0040b1ea f dstring.obj
 0001:0000a2c0       ?stripLeading@DString@@QAE?AV1@D@Z 0040b2c0 f dstring.obj
 0001:0000a39d       ?asInt@DString@@QBEHXZ     0040b39d f dstring.obj
 0001:0000a3c1       ?asDouble@DString@@QBENXZ  0040b3c1 f dstring.obj
 0001:0000a3e5       ?uppercase@DString@@QAEXXZ 0040b3e5 f dstring.obj
 0001:0000a440       ?asUppercase@DString@@QAE?AV1@XZ 0040b440 f dstring.obj
 0001:0000a4dd       ?lowercase@DString@@QAEXXZ 0040b4dd f dstring.obj
 0001:0000a538       ?asLowercase@DString@@QAE?AV1@XZ 0040b538 f dstring.obj
 0001:0000a5d5       ?change@DString@@QAEXDD@Z  0040b5d5 f dstring.obj
 0001:0000a636       ??0DKeyString@@QAE@XZ      0040b636 f dstring.obj
 0001:0000a6c1       ??0DKeyString@@QAE@VDString@@0@Z 0040b6c1 f dstring.obj
 0001:0000a778       ??1DKeyString@@QAE@XZ      0040b778 f dstring.obj
 0001:0000a7f0       ?key@DKeyString@@QBE?AVDString@@XZ 0040b7f0 f dstring.obj
 0001:0000a85e       ?setKey@DKeyString@@QAEXVDString@@@Z 0040b85e f dstring.obj
 0001:0000a8c6       ?value@DKeyString@@QBE?AVDString@@XZ 0040b8c6 f dstring.obj
 0001:0000a937       ?setValue@DKeyString@@QAEXVDString@@@Z 0040b937 f dstring.obj
 0001:0000a9b0       ?getline@istream@@QAEAAV1@PADHD@Z 0040b9b0 f dstring.obj
 0001:0000aa10       ?lock@ios@@QAAXXZ          0040ba10 f dstring.obj
 0001:0000aa20       ?unlock@ios@@QAAXXZ        0040ba20 f dstring.obj
 0001:0000aa30       ??0TribeDiplomacyDialog@@QAE@PAVTPanel@@@Z 0040ba30 f dlg_dip.obj
 0001:0000c5db       ??1TribeDiplomacyDialog@@UAE@XZ 0040d5db f dlg_dip.obj
 0001:0000c907       ?action@TribeDiplomacyDialog@@MAEJPAVTPanel@@JKK@Z 0040d907 f dlg_dip.obj
 0001:0000cc52       ?draw@TribeDiplomacyDialog@@UAEXXZ 0040dc52 f dlg_dip.obj
 0001:0000cd60       ?get_font@RGE_Base_Game@@QAEPAURGE_Font@@H@Z 0040dd60 f dlg_dip.obj
 0001:0000cd90       ?get_sound@RGE_Base_Game@@QAEPAVTDigital@@H@Z 0040dd90 f dlg_dip.obj
 0001:0000cdc0       ?get_world@RGE_Base_Game@@QAEPAVRGE_Game_World@@XZ 0040ddc0 f dlg_dip.obj
 0001:0000cde0       ?get_draw_system@RGE_Base_Game@@QAEPAVTDrawSystem@@XZ 0040dde0 f dlg_dip.obj
 0001:0000ce00       ?get_draw_area@RGE_Base_Game@@QAEPAVTDrawArea@@XZ 0040de00 f dlg_dip.obj
 0001:0000ce20       ??_GTribeDiplomacyDialog@@UAEPAXI@Z 0040de20 f dlg_dip.obj
 0001:0000ce20       ??_ETribeDiplomacyDialog@@UAEPAXI@Z 0040de20 f dlg_dip.obj
 0001:0000ce60       ??0TribeGameSettingsScreen@@QAE@XZ 0040de60 f scr_set.obj
 0001:0000db2e       ?init_vars@TribeGameSettingsScreen@@IAEXXZ 0040eb2e f scr_set.obj
 0001:0000dcf9       ??1TribeGameSettingsScreen@@UAE@XZ 0040ecf9 f scr_set.obj
 0001:0000df87       ?handle_idle@TribeGameSettingsScreen@@UAEJXZ 0040ef87 f scr_set.obj
 0001:0000dfec       ?action@TribeGameSettingsScreen@@MAEJPAVTPanel@@JKK@Z 0040efec f scr_set.obj
 0001:0000e59c       ?fillScenarios@TribeGameSettingsScreen@@IAEXXZ 0040f59c f scr_set.obj
 0001:0000eaca       ?fillMissionText@TribeGameSettingsScreen@@IAEXXZ 0040faca f scr_set.obj
 0001:0000ed48       ?getSettings@TribeGameSettingsScreen@@IAEXXZ 0040fd48 f scr_set.obj
 0001:0000ef4e       ?sendSettings@TribeGameSettingsScreen@@IAEXXZ 0040ff4e f scr_set.obj
 0001:0000f0bd       ?activatePanels@TribeGameSettingsScreen@@IAEXXZ 004100bd f scr_set.obj
 0001:0000f3c3       ?activateVictoryPanels@TribeGameSettingsScreen@@IAEXXZ 004103c3 f scr_set.obj
 0001:0000f8b0       ??_GTribeGameSettingsScreen@@UAEPAXI@Z 004108b0 f scr_set.obj
 0001:0000f8b0       ??_ETribeGameSettingsScreen@@UAEPAXI@Z 004108b0 f scr_set.obj
 0001:0000f8f0       ?is_active@TPanel@@QAEHXZ  004108f0 f scr_set.obj
 0001:0000f910       ?set_sorted@TTextPanel@@QAEXH@Z 00410910 f scr_set.obj
 0001:0000f940       ?get_description@RGE_Scenario_Header@@QAEPADXZ 00410940 f scr_set.obj
 0001:0000f960       ?get_any_sp_victory@TRIBE_Scenario_Header@@QAEHXZ 00410960 f scr_set.obj
 0001:0000f980       ?get_active_player_count@TRIBE_Scenario_Header@@QAEHXZ 00410980 f scr_set.obj
 0001:0000f9a0       ??_GTRIBE_Scenario_Header@@QAEPAXI@Z 004109a0 f scr_set.obj
 0001:0000f9e0       ??1TRIBE_Scenario_Header@@QAE@XZ 004109e0 f scr_set.obj
 0001:0000fa40       ?get_curr_child@TPanel@@QAEPAV1@XZ 00410a40 f scr_set.obj
 0001:0000fa60       ??0TRIBE_Panel_Button@@QAE@PAVTDrawArea@@PAVTPanel@@PAVTDigital@@PAXJJPAVTShape@@@Z 00410a60 f tpnl_btn.obj
 0001:0000fb5b       ?set_text_msg@TRIBE_Panel_Button@@QAEXPAD@Z 00410b5b f tpnl_btn.obj
 0001:0000fbad       ?draw@TRIBE_Panel_Button@@UAEXXZ 00410bad f tpnl_btn.obj
 0001:000102f0       ??_ETRIBE_Panel_Button@@UAEPAXI@Z 004112f0 f tpnl_btn.obj
 0001:000102f0       ??_GTRIBE_Panel_Button@@UAEPAXI@Z 004112f0 f tpnl_btn.obj
 0001:00010330       ??1TRIBE_Panel_Button@@UAE@XZ 00411330 f tpnl_btn.obj
 0001:00010390       ??0TRIBE_Action_Build@@QAE@HPAVRGE_Action_Object@@@Z 00411390 f tact_bld.obj
 0001:00010414       ??0TRIBE_Action_Build@@QAE@PAVRGE_Action_Object@@PAVRGE_Task@@PAVRGE_Static_Object@@@Z 00411414 f tact_bld.obj
 0001:000104f3       ??0TRIBE_Action_Build@@QAE@PAVRGE_Action_Object@@PAVRGE_Task@@MMM@Z 004114f3 f tact_bld.obj
 0001:00010597       ?first_in_stack@TRIBE_Action_Build@@UAEXE@Z 00411597 f tact_bld.obj
 0001:000105fa       ?set_state@TRIBE_Action_Build@@MAEXE@Z 004115fa f tact_bld.obj
 0001:0001094b       ?update@TRIBE_Action_Build@@UAEEXZ 0041194b f tact_bld.obj
 0001:00010c44       ?stop@TRIBE_Action_Build@@UAEHXZ 00411c44 f tact_bld.obj
 0001:00010c6c       ?move_to@TRIBE_Action_Build@@UAEHPAVRGE_Static_Object@@MMM@Z 00411c6c f tact_bld.obj
 0001:00010cbe       ?work@TRIBE_Action_Build@@UAEHPAVRGE_Static_Object@@MMM@Z 00411cbe f tact_bld.obj
 0001:00010da0       ?get_target_obj@RGE_Action@@UAEPAVRGE_Static_Object@@XZ 00411da0 f tact_bld.obj
 0001:00010dc0       ??_GTRIBE_Action_Build@@UAEPAXI@Z 00411dc0 f tact_bld.obj
 0001:00010dc0       ??_ETRIBE_Action_Build@@UAEPAXI@Z 00411dc0 f tact_bld.obj
 0001:00010e00       ??1TRIBE_Action_Build@@UAE@XZ 00411e00 f tact_bld.obj
 0001:00010e60       ?get_quick_build@RGE_Base_Game@@QAEHXZ 00411e60 f tact_bld.obj
 0001:00010e80       ??0STRATOS_Action_Transport@@QAE@HPAVRGE_Action_Object@@@Z 00411e80 f s_act_tr.obj
 0001:000110d8       ??0STRATOS_Action_Transport@@QAE@PAVRGE_Action_Object@@PAVRGE_Task@@MMM@Z 004120d8 f s_act_tr.obj
 0001:0001117c       ?first_in_stack@STRATOS_Action_Transport@@UAEXE@Z 0041217c f s_act_tr.obj
 0001:00011200       ?set_state@STRATOS_Action_Transport@@MAEXE@Z 00412200 f s_act_tr.obj
 0001:000113d6       ?update@STRATOS_Action_Transport@@UAEEXZ 004123d6 f s_act_tr.obj
 0001:000114f1       ?stop@STRATOS_Action_Transport@@UAEHXZ 004124f1 f s_act_tr.obj
 0001:00011519       ?move_to@STRATOS_Action_Transport@@UAEHPAVRGE_Static_Object@@MMM@Z 00412519 f s_act_tr.obj
 0001:0001155e       ?work@STRATOS_Action_Transport@@UAEHPAVRGE_Static_Object@@MMM@Z 0041255e f s_act_tr.obj
 0001:000115b0       ??_ESTRATOS_Action_Transport@@UAEPAXI@Z 004125b0 f s_act_tr.obj
 0001:000115b0       ??_GSTRATOS_Action_Transport@@UAEPAXI@Z 004125b0 f s_act_tr.obj
 0001:000115f0       ??_GRGE_Action_List@@QAEPAXI@Z 004125f0 f s_act_tr.obj
 0001:00011630       ??1STRATOS_Action_Transport@@UAE@XZ 00412630 f s_act_tr.obj
 0001:00011690       ??0RGE_Campaign_Info@@QAE@HPAPAVRGE_Campaign@@J@Z 00412690 f gameinfo.obj
 0001:000117c6       ??0RGE_Campaign_Info@@QAE@PAVRGE_Campaign@@@Z 004127c6 f gameinfo.obj
 0001:000118ff       ??1RGE_Campaign_Info@@QAE@XZ 004128ff f gameinfo.obj
 0001:00011944       ?save@RGE_Campaign_Info@@QAEXH@Z 00412944 f gameinfo.obj
 0001:00011a07       ?set_current_scenario@RGE_Campaign_Info@@QAEEJ@Z 00412a07 f gameinfo.obj
 0001:00011a88       ?verify_campaign_name@RGE_Campaign_Info@@QAEEPAD@Z 00412a88 f gameinfo.obj
 0001:00011ac6       ?get_scenario_list@RGE_Campaign_Info@@QAEJPAPAPADAAJ@Z 00412ac6 f gameinfo.obj
 0001:00011b80       ?get_current_scenario@RGE_Campaign_Info@@QAEJXZ 00412b80 f gameinfo.obj
 0001:00011b9f       ?notify_of_scenario_complete@RGE_Campaign_Info@@QAEXXZ 00412b9f f gameinfo.obj
 0001:00011c59       ?open_scenario@RGE_Campaign_Info@@QAEHXZ 00412c59 f gameinfo.obj
 0001:00011ca1       ??0RGE_Person_Info@@QAE@HPAPAVRGE_Campaign@@J@Z 00412ca1 f gameinfo.obj
 0001:00011e20       ??0RGE_Person_Info@@QAE@PADPAPAVRGE_Campaign@@J@Z 00412e20 f gameinfo.obj
 0001:00011e8a       ??1RGE_Person_Info@@QAE@XZ 00412e8a f gameinfo.obj
 0001:00011f33       ?save@RGE_Person_Info@@QAEXH@Z 00412f33 f gameinfo.obj
 0001:00011fe3       ?get_name@RGE_Person_Info@@QAEPADXZ 00412fe3 f gameinfo.obj
 0001:00011ffc       ?set_current_campaign@RGE_Person_Info@@QAEEJ@Z 00412ffc f gameinfo.obj
 0001:000121de       ?get_current_campaign@RGE_Person_Info@@QAEJXZ 004131de f gameinfo.obj
 0001:0001228a       ?get_current_scenario@RGE_Person_Info@@QAEJXZ 0041328a f gameinfo.obj
 0001:000122f0       ?set_current_scenario@RGE_Person_Info@@QAEEJ@Z 004132f0 f gameinfo.obj
 0001:00012359       ?get_scenario_list@RGE_Person_Info@@QAEJPAPAPADAAJ@Z 00413359 f gameinfo.obj
 0001:000123aa       ?notify_of_scenario_complete@RGE_Person_Info@@QAEXXZ 004133aa f gameinfo.obj
 0001:000123ea       ?open_scenario@RGE_Person_Info@@QAEHXZ 004133ea f gameinfo.obj
 0001:00012434       ??0RGE_Game_Info@@QAE@PAD@Z 00413434 f gameinfo.obj
 0001:000125ef       ??1RGE_Game_Info@@QAE@XZ   004135ef f gameinfo.obj
 0001:000126f3       ?save@RGE_Game_Info@@QAEXPAD@Z 004136f3 f gameinfo.obj
 0001:000127cc       ?find_campaigns@RGE_Game_Info@@QAEXXZ 004137cc f gameinfo.obj
 0001:00012a0c       ?add_new_person@RGE_Game_Info@@QAEEPAD@Z 00413a0c f gameinfo.obj
 0001:00012b1a       ?set_current_person@RGE_Game_Info@@QAEEJ@Z 00413b1a f gameinfo.obj
 0001:00012b5b       ?set_current_campaign@RGE_Game_Info@@QAEEJ@Z 00413b5b f gameinfo.obj
 0001:00012bae       ?set_current_scenario@RGE_Game_Info@@QAEEJ@Z 00413bae f gameinfo.obj
 0001:00012bf5       ?get_people_list@RGE_Game_Info@@QAEJPAPAPADAAJ@Z 00413bf5 f gameinfo.obj
 0001:00012c89       ?get_campaign_list@RGE_Game_Info@@QAEJPAPAPADAAJ@Z 00413c89 f gameinfo.obj
 0001:00012d48       ?get_scenario_list@RGE_Game_Info@@QAEJPAPAPADAAJ@Z 00413d48 f gameinfo.obj
 0001:00012dc8       ?get_current_scenario@RGE_Game_Info@@QAEJXZ 00413dc8 f gameinfo.obj
 0001:00012e18       ?get_current_campaign@RGE_Game_Info@@QAEJXZ 00413e18 f gameinfo.obj
 0001:00012e68       ?get_current_player@RGE_Game_Info@@QAEJXZ 00413e68 f gameinfo.obj
 0001:00012e83       ?notify_of_scenario_complete@RGE_Game_Info@@QAEXXZ 00413e83 f gameinfo.obj
 0001:00012ec9       ?open_scenario@RGE_Game_Info@@QAEHXZ 00413ec9 f gameinfo.obj
 0001:00012f20       ??_GRGE_Campaign_Info@@QAEPAXI@Z 00413f20 f gameinfo.obj
 0001:00012f60       ??_GRGE_Campaign@@QAEPAXI@Z 00413f60 f gameinfo.obj
 0001:00012fa0       ??_GRGE_Person_Info@@QAEPAXI@Z 00413fa0 f gameinfo.obj
 0001:00012fe0       ??0ObjectPlacer@@QAE@XZ    00413fe0 f mapobjct.obj
 0001:00013001       ??1ObjectPlacer@@QAE@XZ    00414001 f mapobjct.obj
 0001:0001301f       ?ClearAllValues@ObjectPlacer@@QAEXXZ 0041401f f mapobjct.obj
 0001:000130e8       ?PrepareForObjectPlacement@ObjectPlacer@@QAEXXZ 004140e8 f mapobjct.obj
 0001:00013119       ?GetPlayer@ObjectPlacer@@IAEXXZ 00414119 f mapobjct.obj
 0001:0001312f       ?CompareObjectToCenters@ObjectPlacer@@IAEHHHH@Z 0041412f f mapobjct.obj
 0001:000131d6       ?PlaceObjects@ObjectPlacer@@QAEXHH@Z 004141d6 f mapobjct.obj
 0001:000137cb       ?FindFirstCliffFileNumber@ObjectPlacer@@QAEHXZ 004147cb f mapobjct.obj
 0001:00013850       ?DeleteObject@ObjectPlacer@@QAEXPAVRGE_Static_Object@@@Z 00414850 f mapobjct.obj
 0001:00013896       ?ChangeObjectFacet@ObjectPlacer@@QAEXPAVRGE_Static_Object@@H@Z 00414896 f mapobjct.obj
 0001:000138b8       ?PlaceCliff@ObjectPlacer@@QAEXMMHH@Z 004148b8 f mapobjct.obj
 0001:00013a2a       ?PlaceObject@ObjectPlacer@@IAEHHHH@Z 00414a2a f mapobjct.obj
 0001:00013b1b       ?IsObjectPlacementValid@ObjectPlacer@@IAEHHHH@Z 00414b1b f mapobjct.obj
 0001:00013bc5       ?ForcePlaceObject@ObjectPlacer@@IAEXHHH@Z 00414bc5 f mapobjct.obj
 0001:00013c63       ?ForcePlaceObject@ObjectPlacer@@IAEXHHHHHH@Z 00414c63 f mapobjct.obj
 0001:00013d92       ?PlaceCenterBasedObject@ObjectPlacer@@IAEHHHHH@Z 00414d92 f mapobjct.obj
 0001:00013eb2       ?PlaceCenterBasedCenter@ObjectPlacer@@IAEHHHHH@Z 00414eb2 f mapobjct.obj
 0001:0001406e       ?RetrieveMapValue@ObjectPlacer@@IAEHHH@Z 0041506e f mapobjct.obj
 0001:000140fc       ?RetrieveElevationValue@ObjectPlacer@@IAEHHH@Z 004150fc f mapobjct.obj
 0001:0001418a       ?FindAnOpenSpot@ObjectPlacer@@IAEHPAH0PAULandPasserStruct@@@Z 0041518a f mapobjct.obj
 0001:00014405       ?PlaceObjectAtARadius@ObjectPlacer@@IAEHPAULandPasserStruct@@@Z 00415405 f mapobjct.obj
 0001:0001465e       ?PlaceRandom1@ObjectPlacer@@IAEXHHHHH@Z 0041565e f mapobjct.obj
 0001:00014763       ?PlaceRandom2@ObjectPlacer@@IAEXHH@Z 00415763 f mapobjct.obj
 0001:0001480b       ?PlaceRandomRestricted1@ObjectPlacer@@IAEXHHHHH@Z 0041580b f mapobjct.obj
 0001:00014901       ?PlaceRandomPerCenter1@ObjectPlacer@@IAEXHHHHHH@Z 00415901 f mapobjct.obj
 0001:00014a91       ?PlaceRandomGroupPerCenter@ObjectPlacer@@IAEXHHHHHH@Z 00415a91 f mapobjct.obj
 0001:00014c94       ?PlaceRandomPer100Tile1@ObjectPlacer@@IAEXHHHHH@Z 00415c94 f mapobjct.obj
 0001:00014e17       ?PlaceRandomPerCenter2@ObjectPlacer@@IAEXHHHHH@Z 00415e17 f mapobjct.obj
 0001:00014f16       ?PlaceRandomGroupPerCenterAdditiveDist@ObjectPlacer@@IAEXHHHHHH@Z 00415f16 f mapobjct.obj
 0001:00015459       ?PlaceRandomPerPlayerDist@ObjectPlacer@@IAEXHHHHHH@Z 00416459 f mapobjct.obj
 0001:00015647       ?PlaceClusterBuddies@ObjectPlacer@@IAEXHHHHHHH@Z 00416647 f mapobjct.obj
 0001:0001591f       ?PlaceRandomNearTypeOfLand@ObjectPlacer@@IAEXHHHHH@Z 0041691f f mapobjct.obj
 0001:00015b81       ?PlaceStringsDiagonally@ObjectPlacer@@IAEXHHHH@Z 00416b81 f mapobjct.obj
 0001:00016026       ?PlaceBanishedObject@ObjectPlacer@@IAEXHHHHHH@Z 00417026 f mapobjct.obj
 0001:00016158       ?PlaceCenterSurroundObjects@ObjectPlacer@@IAEXHHHHH@Z 00417158 f mapobjct.obj
 0001:00016371       ?PlaceCenterObject@ObjectPlacer@@IAEXHH@Z 00417371 f mapobjct.obj
 0001:00016480       ?cos@@YAMM@Z               00417480 f mapobjct.obj
 0001:000164a0       _cosf                      004174a0 f mapobjct.obj
 0001:000164d0       ?sin@@YAMM@Z               004174d0 f mapobjct.obj
 0001:000164f0       _sinf                      004174f0 f mapobjct.obj
 0001:00016520       ??0TRIBE_Action_Discovery_Artifact@@QAE@HPAVRGE_Action_Object@@@Z 00417520 f tact_dar.obj
 0001:000165e9       ??0TRIBE_Action_Discovery_Artifact@@QAE@PAVRGE_Action_Object@@PAVRGE_Task@@PAVRGE_Static_Object@@@Z 004175e9 f tact_dar.obj
 0001:0001669f       ??0TRIBE_Action_Discovery_Artifact@@QAE@PAVRGE_Action_Object@@PAVRGE_Task@@MMM@Z 0041769f f tact_dar.obj
 0001:00016764       ?save@TRIBE_Action_Discovery_Artifact@@UAEXH@Z 00417764 f tact_dar.obj
 0001:000167ac       ?first_in_stack@TRIBE_Action_Discovery_Artifact@@UAEXE@Z 004177ac f tact_dar.obj
 0001:000167de       ?set_state@TRIBE_Action_Discovery_Artifact@@MAEXE@Z 004177de f tact_dar.obj
 0001:00016832       ?update@TRIBE_Action_Discovery_Artifact@@UAEEXZ 00417832 f tact_dar.obj
 0001:000168e7       ?check_objects@TRIBE_Action_Discovery_Artifact@@IAEXXZ 004178e7 f tact_dar.obj
 0001:00016b30       ??_ETRIBE_Action_Discovery_Artifact@@UAEPAXI@Z 00417b30 f tact_dar.obj
 0001:00016b30       ??_GTRIBE_Action_Discovery_Artifact@@UAEPAXI@Z 00417b30 f tact_dar.obj
 0001:00016b70       ??1TRIBE_Action_Discovery_Artifact@@UAE@XZ 00417b70 f tact_dar.obj
 0001:00016bd0       ??0CliffMaker@@QAE@XZ      00417bd0 f cliff.obj
 0001:00016c62       ??1CliffMaker@@QAE@XZ      00417c62 f cliff.obj
 0001:00016d93       ?SetDimensions@CliffMaker@@QAEXHH@Z 00417d93 f cliff.obj
 0001:00016e02       ?CreateCliffs@CliffMaker@@QAEXXZ 00417e02 f cliff.obj
 0001:00016e30       ?ClearMatrix@CliffMaker@@IAEXXZ 00417e30 f cliff.obj
 0001:00016ea1       ?GetCliffVal@CliffMaker@@QBEHHH@Z 00417ea1 f cliff.obj
 0001:00016f18       ?CountNumberOfCliffNeighbors@CliffMaker@@IAEHHH@Z 00417f18 f cliff.obj
 0001:00016faa       ?SetCliffVal@CliffMaker@@IAEXHHH@Z 00417faa f cliff.obj
 0001:000170b7       ?TestAreaAroundForOtherCliffsAlreadyPlaced@CliffMaker@@IAEHHHH@Z 004180b7 f cliff.obj
 0001:000171bd       ?CheckLocationVsInsideRectangles@CliffMaker@@IAEHHH@Z 004181bd f cliff.obj
 0001:0001727f       ?DrawCliffs@CliffMaker@@IAEXXZ 0041827f f cliff.obj
 0001:0001764a       ?CleanUpAllCliffs@CliffMaker@@IAEXXZ 0041864a f cliff.obj
 0001:00017660       ?QuadrantManager@CliffMaker@@IAEXHHPAH0@Z 00418660 f cliff.obj
 0001:00017726       ?GetFacetDimensions@CliffMaker@@QAEXPAH0H@Z 00418726 f cliff.obj
 0001:00017755       ?GetNextCliff@CliffMaker@@QAEHPAH00@Z 00418755 f cliff.obj
 0001:00017831       ?PassAvoidanceRectangles@CliffMaker@@QAEXPAURECTANGLE2@@H@Z 00418831 f cliff.obj
 0001:00017953       ?InitCliffPattern@CliffMaker@@IAEXXZ 00418953 f cliff.obj
 0001:00017e3e       ?DeleteCliffPattern@CliffMaker@@IAEXXZ 00418e3e f cliff.obj
 0001:00017e7c       ?SetCliffForPainting@CliffMaker@@IAEXHHH@Z 00418e7c f cliff.obj
 0001:00017f14       ?ClearChangedValues@CliffMaker@@IAEXXZ 00418f14 f cliff.obj
 0001:00017f5e       ?IncrementDirection@CliffMaker@@IAE?AW4Direction@@W42@@Z 00418f5e f cliff.obj
 0001:00017fed       ?QueryTable@CliffMaker@@IAEHW4Direction@@W4Face@@01@Z 00418fed f cliff.obj
 0001:000180a1       ?QueryTable@CliffMaker@@IAEHPAUCliffPatternMatcher@@@Z 004190a1 f cliff.obj
 0001:000181b4       ?QueryTable@CliffMaker@@IAEHW4Face@@000@Z 004191b4 f cliff.obj
 0001:00018266       ?QueryNeighbor@CliffMaker@@IAE?AW4Face@@HHW4Direction@@@Z 00419266 f cliff.obj
 0001:0001839f       ?ClearTags@CliffMaker@@IAEXXZ 0041939f f cliff.obj
 0001:000183f8       ?DeleteCliffForPainting@CliffMaker@@IAEXHH@Z 004193f8 f cliff.obj
 0001:00018472       ?GetDirection@CliffMaker@@IAE?AW4Direction@@HHHH@Z 00419472 f cliff.obj
 0001:000184ff       ?QueryDirections@CliffMaker@@IAEHHPAW4Direction@@0@Z 004194ff f cliff.obj
 0001:00018605       ?DeleteCliff@CliffMaker@@QAEXHH@Z 00419605 f cliff.obj
 0001:0001885e       ?PlaceLast@CliffMaker@@IAEXXZ 0041985e f cliff.obj
 0001:00018b66       ?PlacePos@CliffMaker@@IAEXXZ 00419b66 f cliff.obj
 0001:00018c2f       ?CleanUpCliffsForPainting@CliffMaker@@IAEXXZ 00419c2f f cliff.obj
 0001:00018c9f       ?StoreLastDirections@CliffMaker@@IAEXXZ 00419c9f f cliff.obj
 0001:00018ce9       ?StorePosDirections@CliffMaker@@IAEXXZ 00419ce9 f cliff.obj
 0001:00018d33       ?GetPosition@CliffMaker@@IAEXW4Direction@@PAH1@Z 00419d33 f cliff.obj
 0001:00018d87       ?ReEvaluateNeighborCliffsForLast@CliffMaker@@IAEXXZ 00419d87 f cliff.obj
 0001:00018f77       ?GetNonNeighbors@CliffMaker@@IAEXHPAW4Direction@@00@Z 00419f77 f cliff.obj
 0001:000190a4       ?EliminateNonNeighborsNotConnected@CliffMaker@@IAEXHH@Z 0041a0a4 f cliff.obj
 0001:00019222       ?ReEvaluateNeighborCliffs@CliffMaker@@IAEXXZ 0041a222 f cliff.obj
 0001:00019412       ?EvaluateCurrentPosition@CliffMaker@@IAEHXZ 0041a412 f cliff.obj
 0001:0001942a       ?ReEvaluateCurrentPosition@CliffMaker@@IAEHXZ 0041a42a f cliff.obj
 0001:000195f5       ?SetDimensionsForPainting@CliffMaker@@QAEXHH@Z 0041a5f5 f cliff.obj
 0001:000197c4       ?PassAllCliffs@CliffMaker@@QAEXQAH00H@Z 0041a7c4 f cliff.obj
 0001:00019855       ?FirstClick@CliffMaker@@QAEHHH@Z 0041a855 f cliff.obj
 0001:000198eb       ?EndPaintCliffs@CliffMaker@@QAEHHH@Z 0041a8eb f cliff.obj
 0001:00019949       ?PaintCliffs@CliffMaker@@QAEHHH@Z 0041a949 f cliff.obj
 0001:00019a75       ?GetOffsetAndFile@CliffMaker@@QAEXHPAM0PAH@Z 0041aa75 f cliff.obj
 0001:00019caa       ?GetNextCliffForPainting@CliffMaker@@QAEHPAH00@Z 0041acaa f cliff.obj
 0001:00019cc4       ?GetNextDeletedCliff@CliffMaker@@QAEHPAH0@Z 0041acc4 f cliff.obj
 0001:00019d43       ?GetNextChangedCliff@CliffMaker@@QAEHPAH0@Z 0041ad43 f cliff.obj
 0001:00019df0       ?FastHypotenuse@@YAHHHHH@Z 0041adf0 f map_set.obj
 0001:00019e4a       ?InitCliffs@ControlerOfLandscape@@QAEXXZ 0041ae4a f map_set.obj
 0001:0001a166       ?DeleteCliffs@ControlerOfLandscape@@QAEHXZ 0041b166 f map_set.obj
 0001:0001a3a6       ?ChangeCliffs@ControlerOfLandscape@@QAEHH@Z 0041b3a6 f map_set.obj
 0001:0001a737       ?PlaceCliffsFirstClick@ControlerOfLandscape@@QAEXHH@Z 0041b737 f map_set.obj
 0001:0001a85d       ?PlaceCliffsClickAndDrag@ControlerOfLandscape@@QAEXHH@Z 0041b85d f map_set.obj
 0001:0001aae9       ?PlaceCliffsMouseRelease@ControlerOfLandscape@@QAEXHH@Z 0041bae9 f map_set.obj
 0001:0001aba3       ?HandleDiagonalCliffs@ControlerOfLandscape@@QAEXHHHH@Z 0041bba3 f map_set.obj
 0001:0001aea8       ?SetDataFile@ControlerOfLandscape@@MAEXH@Z 0041bea8 f map_set.obj
 0001:0001b017       ?SetNumberOfPlayers@ControlerOfLandscape@@UAEXH@Z 0041c017 f map_set.obj
 0001:0001b03c       ?SetRGE_Player@ControlerOfLandscape@@UAEXPAPAVRGE_Player@@@Z 0041c03c f map_set.obj
 0001:0001b0a8       ?SetDistanceBetweenPlayers@ControlerOfLandscape@@UAEXH@Z 0041c0a8 f map_set.obj
 0001:0001b0cc       ?SetRandomSeed@ControlerOfLandscape@@UAEXJ@Z 0041c0cc f map_set.obj
 0001:0001b109       ?GetRandomSeed@ControlerOfLandscape@@UAEHXZ 0041c109 f map_set.obj
 0001:0001b128       ?PlaceElevation@ControlerOfLandscape@@UAEXHPAURECTANGLE@@@Z 0041c128 f map_set.obj
 0001:0001b156       ?DrawRandomCirclesOnEdgeOfRect@ControlerOfLandscape@@MAEXPAURECTANGLE@@H@Z 0041c156 f map_set.obj
 0001:0001b282       ?PlaceLand@ControlerOfLandscape@@UAEXPAURECTANGLE@@HH@Z 0041c282 f map_set.obj
 0001:0001b482       ?SetRestrictedType1@ControlerOfLandscape@@UAEXXZ 0041c482 f map_set.obj
 0001:0001b4a5       ?SetRestrictedType2@ControlerOfLandscape@@UAEXXZ 0041c4a5 f map_set.obj
 0001:0001b4c8       ?BorderCleanup@ControlerOfLandscape@@MAEXXZ 0041c4c8 f map_set.obj
 0001:0001b510       ?BorderCleanup@ControlerOfLandscape@@MAEXPAURECTANGLE@@@Z 0041c510 f map_set.obj
 0001:0001b84a       ?CreateRectMapCopyForStorage@ControlerOfLandscape@@MAEXPAURECTANGLE@@@Z 0041c84a f map_set.obj
 0001:0001b8fc       ?CompareStorageMapCopyToMapAndSetAllDifferences@ControlerOfLandscape@@MAEXXZ 0041c8fc f map_set.obj
 0001:0001ba35       ?DeleteMapCopy@ControlerOfLandscape@@MAEXXZ 0041ca35 f map_set.obj
 0001:0001ba4b       ?PlaceLand@ControlerOfLandscape@@UAEXPAUCIRCLE@@H@Z 0041ca4b f map_set.obj
 0001:0001bc72       ?PlaceLand@ControlerOfLandscape@@UAEXPAURECTANGLE@@0H@Z 0041cc72 f map_set.obj
 0001:0001bef3       ?SetPlayerType@ControlerOfLandscape@@UAEXHH@Z 0041cef3 f map_set.obj
 0001:0001bf57       ?SetPercentageLand@ControlerOfLandscape@@UAEXH@Z 0041cf57 f map_set.obj
 0001:0001bfc8       ?DestroyAllWorldObjects@ControlerOfLandscape@@MAEXXZ 0041cfc8 f map_set.obj
 0001:0001c09d       ?GenerateClearMap@ControlerOfLandscape@@UAEXH@Z 0041d09d f map_set.obj
 0001:0001c156       ?GenerateMapWithPlayersAndNoObjects@ControlerOfLandscape@@UAEXHHHHPAPAVRGE_Player@@@Z 0041d156 f map_set.obj
 0001:0001c48b       ?GenerateMapWithNoObjects@ControlerOfLandscape@@UAEXH@Z 0041d48b f map_set.obj
 0001:0001cd57       ?GenerateMap@ControlerOfLandscape@@UAEXH@Z 0041dd57 f map_set.obj
 0001:0001d8c4       ?SetFractalVariablesBasedOnLandShape@ControlerOfLandscape@@MAEHHH@Z 0041e8c4 f map_set.obj
 0001:0001dd66       ?GenerateSecondaryLandNotOnType@ControlerOfLandscape@@MAEXHHHH@Z 0041ed66 f map_set.obj
 0001:0001e06a       ?GenerateSecondaryLand@ControlerOfLandscape@@MAEXHHH@Z 0041f06a f map_set.obj
 0001:0001e248       ?ClearOutAFewSidesToACertainDepth@ControlerOfLandscape@@MAEXHHH@Z 0041f248 f map_set.obj
 0001:0001e6da       ?PrepMap@ControlerOfLandscape@@MAEPADXZ 0041f6da f map_set.obj
 0001:0001f190       ?PassMap@ObjectPlacer@@QAEXPADHH@Z 00420190 f map_set.obj
 0001:0001f1e0       ?PassObjects@ObjectPlacer@@QAEXPAUObjectsData@@H@Z 004201e0 f map_set.obj
 0001:0001f210       ?SetRGE_Player@ObjectPlacer@@QAEXPAPAVRGE_Player@@@Z 00420210 f map_set.obj
 0001:0001f240       ??_GCliffMaker@@QAEPAXI@Z  00420240 f map_set.obj
 0001:0001f280       ?PassElevation@ObjectPlacer@@QAEXPAD@Z 00420280 f map_set.obj
 0001:0001f2b0       ?PassCenters@ObjectPlacer@@QAEXPAH0H@Z 004202b0 f map_set.obj
 0001:0001f2f0       ?SetReducedNumbers@ObjectPlacer@@QAEXXZ 004202f0 f map_set.obj
 0001:0001f310       ?SetRestricted1Flag@ObjectPlacer@@QAEXXZ 00420310 f map_set.obj
 0001:0001f330       ?SetRestricted2Flag@ObjectPlacer@@QAEXXZ 00420330 f map_set.obj
 0001:0001f350       ?SetReduceDistanceFlag@ObjectPlacer@@QAEXXZ 00420350 f map_set.obj
 0001:0001f370       ??_GPointMaker@@QAEPAXI@Z  00420370 f map_set.obj
 0001:0001f3b0       ?set_save_random@RGE_Base_Game@@QAEXI@Z 004203b0 f map_set.obj
 0001:0001f3e0       ?get_start_random@RGE_Base_Game@@QAEIXZ 004203e0 f map_set.obj
 0001:0001f400       ??_GTDebuggingLog@@QAEPAXI@Z 00420400 f map_set.obj
 0001:0001f440       ?SetDimensions@PointMaker@@QAEXHH@Z 00420440 f map_set.obj
 0001:0001f470       ??0TRIBE_Master_Combat_Object@@QAE@PAV0@H@Z 00420470 f tm_co_ob.obj
 0001:0001f4fd       ??0TRIBE_Master_Combat_Object@@QAE@HPAPAVRGE_Sprite@@PAPAVRGE_Sound@@H@Z 004204fd f tm_co_ob.obj
 0001:0001f59a       ??0TRIBE_Master_Combat_Object@@QAE@PAU_iobuf@@PAPAVRGE_Sprite@@PAPAVRGE_Sound@@FH@Z 0042059a f tm_co_ob.obj
 0001:0001f63f       ?setup@TRIBE_Master_Combat_Object@@IAEHPAV1@@Z 0042063f f tm_co_ob.obj
 0001:0001f6f4       ?setup@TRIBE_Master_Combat_Object@@IAEHHPAPAVRGE_Sprite@@PAPAVRGE_Sound@@@Z 004206f4 f tm_co_ob.obj
 0001:0001f7ae       ?setup@TRIBE_Master_Combat_Object@@IAEHPAU_iobuf@@PAPAVRGE_Sprite@@PAPAVRGE_Sound@@F@Z 004207ae f tm_co_ob.obj
 0001:0001f885       ??1TRIBE_Master_Combat_Object@@UAE@XZ 00420885 f tm_co_ob.obj
 0001:0001f8ed       ?create_task_list@TRIBE_Master_Combat_Object@@UAEPAVRGE_Task_List@@XZ 004208ed f tm_co_ob.obj
 0001:0001f97e       ?copy_obj@TRIBE_Master_Combat_Object@@UAEXPAVRGE_Master_Static_Object@@@Z 0042097e f tm_co_ob.obj
 0001:0001fa2d       ?modify@TRIBE_Master_Combat_Object@@UAEXME@Z 00420a2d f tm_co_ob.obj
 0001:0001fab7       ?modify_delta@TRIBE_Master_Combat_Object@@UAEXME@Z 00420ab7 f tm_co_ob.obj
 0001:0001fb57       ?modify_percent@TRIBE_Master_Combat_Object@@UAEXME@Z 00420b57 f tm_co_ob.obj
 0001:0001fbf8       ?save@TRIBE_Master_Combat_Object@@UAEXH@Z 00420bf8 f tm_co_ob.obj
 0001:0001fc9e       ?make_new_obj@TRIBE_Master_Combat_Object@@UAEPAVRGE_Static_Object@@PAVRGE_Player@@MMM@Z 00420c9e f tm_co_ob.obj
 0001:0001fd4a       ?make_new_master@TRIBE_Master_Combat_Object@@UAEPAVRGE_Master_Static_Object@@XZ 00420d4a f tm_co_ob.obj
 0001:0001fdf0       ??_GTRIBE_Master_Combat_Object@@UAEPAXI@Z 00420df0 f tm_co_ob.obj
 0001:0001fdf0       ??_ETRIBE_Master_Combat_Object@@UAEPAXI@Z 00420df0 f tm_co_ob.obj
 0001:0001fe30       ??0TRIBE_Task_List@@QAE@XZ 00420e30 f tm_co_ob.obj
 0001:0001fea0       ??0TribeSelectTribeScreen@@QAE@XZ 00420ea0 f scr_trb.obj
 0001:000208dd       ??1TribeSelectTribeScreen@@UAE@XZ 004218dd f scr_trb.obj
 0001:00020a98       ?action@TribeSelectTribeScreen@@MAEJPAVTPanel@@JKK@Z 00421a98 f scr_trb.obj
 0001:00020b79       ?fillTribeText@TribeSelectTribeScreen@@IAEXH@Z 00421b79 f scr_trb.obj
 0001:00020d31       ?tribeName@TribeSelectTribeScreen@@IAEPADH@Z 00421d31 f scr_trb.obj
 0001:00020df0       ??_GTribeSelectTribeScreen@@UAEPAXI@Z 00421df0 f scr_trb.obj
 0001:00020df0       ??_ETribeSelectTribeScreen@@UAEPAXI@Z 00421df0 f scr_trb.obj
 0001:00020e30       ??0BaseItem@@QAE@XZ        00421e30 f aibitm.obj
 0001:00020eca       ??0BaseItem@@QAE@HHHPADMMMMMM@Z 00421eca f aibitm.obj
 0001:00020f5e       ??0BaseItem@@QAE@PAV0@@Z   00421f5e f aibitm.obj
 0001:00021010       ??0BaseItem@@QAE@ABV0@@Z   00422010 f aibitm.obj
 0001:000210c2       ??1BaseItem@@UAE@XZ        004220c2 f aibitm.obj
 0001:000210e1       ??8@YAHABVBaseItem@@0@Z    004220e1 f aibitm.obj
 0001:0002113d       ??9@YAHABVBaseItem@@0@Z    0042213d f aibitm.obj
 0001:00021171       ??M@YAHABVBaseItem@@0@Z    00422171 f aibitm.obj
 0001:0002119f       ??O@YAHABVBaseItem@@0@Z    0042219f f aibitm.obj
 0001:000211cd       ?typeID@BaseItem@@QBEHXZ   004221cd f aibitm.obj
 0001:000211e9       ?gameID@BaseItem@@QBEHXZ   004221e9 f aibitm.obj
 0001:00021205       ?uniqueID@BaseItem@@QBEHXZ 00422205 f aibitm.obj
 0001:00021221       ?name@BaseItem@@QAEPADXZ   00422221 f aibitm.obj
 0001:0002123d       ?x@BaseItem@@QBEMXZ        0042223d f aibitm.obj
 0001:00021259       ?y@BaseItem@@QBEMXZ        00422259 f aibitm.obj
 0001:00021275       ?z@BaseItem@@QBEMXZ        00422275 f aibitm.obj
 0001:00021291       ?xSize@BaseItem@@QBEMXZ    00422291 f aibitm.obj
 0001:000212ad       ?ySize@BaseItem@@QBEMXZ    004222ad f aibitm.obj
 0001:000212c9       ?zSize@BaseItem@@QBEMXZ    004222c9 f aibitm.obj
 0001:000212e5       ?skip@BaseItem@@QBEHXZ     004222e5 f aibitm.obj
 0001:00021301       ?setTypeID@BaseItem@@QAEXH@Z 00422301 f aibitm.obj
 0001:00021322       ?setGameID@BaseItem@@QAEXH@Z 00422322 f aibitm.obj
 0001:00021343       ?setUniqueID@BaseItem@@QAEXH@Z 00422343 f aibitm.obj
 0001:00021364       ?setName@BaseItem@@QAEXPAD@Z 00422364 f aibitm.obj
 0001:00021391       ?setX@BaseItem@@QAEXM@Z    00422391 f aibitm.obj
 0001:000213b2       ?setY@BaseItem@@QAEXM@Z    004223b2 f aibitm.obj
 0001:000213d3       ?setZ@BaseItem@@QAEXM@Z    004223d3 f aibitm.obj
 0001:000213f4       ?setXSize@BaseItem@@QAEXM@Z 004223f4 f aibitm.obj
 0001:00021415       ?setYSize@BaseItem@@QAEXM@Z 00422415 f aibitm.obj
 0001:00021436       ?setZSize@BaseItem@@QAEXM@Z 00422436 f aibitm.obj
 0001:00021457       ?setSkip@BaseItem@@QAEXH@Z 00422457 f aibitm.obj
 0001:00021480       ??_GBaseItem@@UAEPAXI@Z    00422480 f aibitm.obj
 0001:00021480       ??_EBaseItem@@UAEPAXI@Z    00422480 f aibitm.obj
 0001:000214c0       ??0RGE_View@@QAE@XZ        004224c0 f view.obj
 0001:00021750       ??1RGE_View@@UAE@XZ        00422750 f view.obj
 0001:0002184a       ?setup@RGE_View@@QAEJPAVTDrawArea@@PAVTPanel@@JJJJEHEPAD@Z 0042284a f view.obj
 0001:00021a16       ?set_rect@RGE_View@@UAEXJJJJ@Z 00422a16 f view.obj
 0001:00021c1b       ?delete_surfaces@RGE_View@@QAEXXZ 00422c1b f view.obj
 0001:00021cc1       ?create_surfaces@RGE_View@@QAEHXZ 00422cc1 f view.obj
 0001:00021f23       ?calc_draw_vars@RGE_View@@IAEXXZ 00422f23 f view.obj
 0001:0002205b       ?set_redraw@RGE_View@@UAEXW4RedrawMode@TPanel@@@Z 0042305b f view.obj
 0001:00022093       ?set_world@RGE_View@@QAEXPAVRGE_Game_World@@@Z 00423093 f view.obj
 0001:000221b4       ?set_player@RGE_View@@QAEXPAVRGE_Player@@@Z 004231b4 f view.obj
 0001:000221ff       ?set_selection_area@RGE_View@@QAEXJJJJ@Z 004231ff f view.obj
 0001:00022247       ?get_selection_area@RGE_View@@QAEHAAJ000H@Z 00423247 f view.obj
 0001:0002245d       ?draw@RGE_View@@UAEXXZ     0042345d f view.obj
 0001:00022f0b       ?update@RGE_View@@IAEXXZ   00423f0b f view.obj
 0001:00023305       ?draw_view@RGE_View@@IAEXEPAVTDrawArea@@@Z 00424305 f view.obj
 0001:000234da       ?draw_object_outline@RGE_View@@IAEXXZ 004244da f view.obj
 0001:000239a1       ?draw_paint_brush@RGE_View@@IAEXXZ 004249a1 f view.obj
 0001:00023c09       ?pick@RGE_View@@QAEEEEJJPAURGE_Pick_Info@@PAVRGE_Static_Object@@@Z 00424c09 f view.obj
 0001:00023cd7       ?pick_multi@RGE_View@@QAEEEJJJJ@Z 00424cd7 f view.obj
 0001:00023d4e       ?pick@RGE_View@@QAEEEEPAUtagPOINT@@0PAPAXPAM2PAF3@Z 00424d4e f view.obj
 0001:00023d92       ?get_tile_screen_coords@RGE_View@@QAEHFFPAF0@Z 00424d92 f view.obj
 0001:00023e0c       ?get_center_screen_pos@RGE_View@@QAEXPAF0@Z 00424e0c f view.obj
 0001:00023e44       ?get_start_coords@RGE_View@@QAEXPAF000@Z 00424e44 f view.obj
 0001:00023ec4       ?get_center_coords@RGE_View@@QAEXPAF000@Z 00424ec4 f view.obj
 0001:00023f44       ?get_tile_sizes@RGE_View@@QAEXPAF000@Z 00424f44 f view.obj
 0001:00023fc4       ?get_max_size@RGE_View@@QAEXPAF0@Z 00424fc4 f view.obj
 0001:00023ffc       ?view_function@RGE_View@@IAEJEEPAUtagPOINT@@0PAPAXPAM2PAF3@Z 00424ffc f view.obj
 0001:000255c4       ?view_function_terrain@RGE_View@@IAEJE@Z 004265c4 f view.obj
 0001:000264eb       ?border_line_draw@RGE_View@@IAEXFFFF@Z 004274eb f view.obj
 0001:00026ac8       ?draw_tile@RGE_View@@IAEHPAURGE_Tile@@EFFFFE@Z 00427ac8 f view.obj
 0001:00027046       ?draw_fog_tile@RGE_View@@IAEHPAURGE_Tile@@FFFF@Z 00428046 f view.obj
 0001:00027842       ?draw_selected_tile@RGE_View@@IAEHPAURGE_Tile@@FFFF@Z 00428842 f view.obj
 0001:00027925       ?get_tile_picture@RGE_View@@IAEFEEFF@Z 00428925 f view.obj
 0001:00027aa0       ?get_border_picture@RGE_View@@IAEFEEEFF@Z 00428aa0 f view.obj
 0001:00027c49       ?hit_tile@RGE_View@@IAEHPAURGE_Tile@@FFFFPAUtagPOINT@@@Z 00428c49 f view.obj
 0001:00027e20       ?hit_object@RGE_View@@IAEPAVRGE_Static_Object@@PAURGE_Tile@@FFFFPAUtagPOINT@@1PAF2PAV2@E@Z 00428e20 f view.obj
 0001:000280da       ?start_scroll_view@RGE_View@@UAEHEJJHH@Z 004290da f view.obj
 0001:0002836b       ?handle_scroll_view@RGE_View@@UAEHJJ@Z 0042936b f view.obj
 0001:00028e17       ?end_scroll_view@RGE_View@@UAEXXZ 00429e17 f view.obj
 0001:00029123       ?do_paint@RGE_View@@UAEHJJJJH@Z 0042a123 f view.obj
 0001:00029476       ?clean_up_map@RGE_View@@UAEXXZ 0042a476 f view.obj
 0001:000294c0       ??_GRGE_View@@UAEPAXI@Z    0042a4c0 f view.obj
 0001:000294c0       ??_ERGE_View@@UAEPAXI@Z    0042a4c0 f view.obj
 0001:00029500       ??_GTSpan_List_Manager@@QAEPAXI@Z 0042a500 f view.obj
 0001:00029540       ??_GTDrawArea@@QAEPAXI@Z   0042a540 f view.obj
 0001:00029580       ?get_game_mode@RGE_Base_Game@@QAEHXZ 0042a580 f view.obj
 0001:000295a0       ?get_sub_game_mode@RGE_Base_Game@@QAEHXZ 0042a5a0 f view.obj
 0001:000295c0       ?get_master_obj_id@RGE_Base_Game@@QAEFXZ 0042a5c0 f view.obj
 0001:000295e0       ?get_brush_size@RGE_Base_Game@@QAEFXZ 0042a5e0 f view.obj
 0001:00029600       ?get_terrain_id@RGE_Base_Game@@QAEFXZ 0042a600 f view.obj
 0001:00029620       ?get_elevation_height@RGE_Base_Game@@QAEFXZ 0042a620 f view.obj
 0001:00029640       ??0RGE_Base_Game@@QAE@PAURGE_Prog_Info@@H@Z 0042a640 f basegame.obj
 0001:00029a79       ?setup@RGE_Base_Game@@MAEHXZ 0042aa79 f basegame.obj
 0001:0002a0f0       ??1RGE_Base_Game@@UAE@XZ   0042b0f0 f basegame.obj
 0001:0002a4d4       ?reset_timings@RGE_Base_Game@@QAEXXZ 0042b4d4 f basegame.obj
 0001:0002a59b       ?get_error_code@RGE_Base_Game@@UAEHXZ 0042b59b f basegame.obj
 0001:0002a5b7       ?get_string@RGE_Base_Game@@UAEPADJPADH@Z 0042b5b7 f basegame.obj
 0001:0002a603       ?get_string@RGE_Base_Game@@UAEPADHJPADH@Z 0042b603 f basegame.obj
 0001:0002a638       ?get_string2@RGE_Base_Game@@UAEPADHJJPADH@Z 0042b638 f basegame.obj
 0001:0002a78b       ?get_scenario_info@RGE_Base_Game@@QAEPAVRGE_Scenario@@PADH@Z 0042b78b f basegame.obj
 0001:0002a96e       ?get_scenario_header@RGE_Base_Game@@QAEPAVRGE_Scenario_Header@@PADH@Z 0042b96e f basegame.obj
 0001:0002aa80       ?write_scenario_header@RGE_Base_Game@@QAEXH@Z 0042ba80 f basegame.obj
 0001:0002ab0f       ?new_scenario_header@RGE_Base_Game@@UAEPAVRGE_Scenario_Header@@H@Z 0042bb0f f basegame.obj
 0001:0002aba6       ?new_scenario_header@RGE_Base_Game@@UAEPAVRGE_Scenario_Header@@PAVRGE_Scenario@@@Z 0042bba6 f basegame.obj
 0001:0002ac3d       ?new_scenario_info@RGE_Base_Game@@UAEPAVRGE_Scenario@@H@Z 0042bc3d f basegame.obj
 0001:0002acd9       ?get_campaign_info@RGE_Base_Game@@QAEXAAJ00@Z 0042bcd9 f basegame.obj
 0001:0002ad21       ?set_campaign_info@RGE_Base_Game@@QAEXJJJ@Z 0042bd21 f basegame.obj
 0001:0002ad66       ?set_campaign_win@RGE_Base_Game@@QAEXXZ 0042bd66 f basegame.obj
 0001:0002ad87       ?run@RGE_Base_Game@@UAEHXZ 0042bd87 f basegame.obj
 0001:0002ae0f       ?setup_cmd_options@RGE_Base_Game@@MAEHXZ 0042be0f f basegame.obj
 0001:0002bdb8       ?setup_class@RGE_Base_Game@@MAEHXZ 0042cdb8 f basegame.obj
 0001:0002bf0c       ?setup_main_window@RGE_Base_Game@@MAEHXZ 0042cf0c f basegame.obj
 0001:0002c179       ?setup_graphics_system@RGE_Base_Game@@MAEHXZ 0042d179 f basegame.obj
 0001:0002c30f       ?setup_palette@RGE_Base_Game@@MAEHXZ 0042d30f f basegame.obj
 0001:0002c35f       ?setup_mouse@RGE_Base_Game@@MAEHXZ 0042d35f f basegame.obj
 0001:0002c44e       ?setup_chat@RGE_Base_Game@@MAEHXZ 0042d44e f basegame.obj
 0001:0002c50d       ?setup_registry@RGE_Base_Game@@MAEHXZ 0042d50d f basegame.obj
 0001:0002c5d0       ?setup_debugging_log@RGE_Base_Game@@MAEHXZ 0042d5d0 f basegame.obj
 0001:0002c6a6       ?setup_comm@RGE_Base_Game@@MAEHXZ 0042d6a6 f basegame.obj
 0001:0002c811       ?reset_comm@RGE_Base_Game@@UAEHXZ 0042d811 f basegame.obj
 0001:0002c87b       ?setup_sound_system@RGE_Base_Game@@MAEHXZ 0042d87b f basegame.obj
 0001:0002ca0b       ?setup_sounds@RGE_Base_Game@@MAEHXZ 0042da0b f basegame.obj
 0001:0002cb7d       ?setup_fonts@RGE_Base_Game@@MAEHXZ 0042db7d f basegame.obj
 0001:0002ce80       ?setup_blank_screen@RGE_Base_Game@@MAEHXZ 0042de80 f basegame.obj
 0001:0002cf7a       ?setup_timings@RGE_Base_Game@@MAEXXZ 0042df7a f basegame.obj
 0001:0002cfd1       ?stop_sound_system@RGE_Base_Game@@MAEXXZ 0042dfd1 f basegame.obj
 0001:0002d14d       ?restart_sound_system@RGE_Base_Game@@MAEHXZ 0042e14d f basegame.obj
 0001:0002d204       ?make_font@RGE_Base_Game@@IAEPAXPAXPADHH@Z 0042e204 f basegame.obj
 0001:0002d29f       ?check_expiration@RGE_Base_Game@@IAEHXZ 0042e29f f basegame.obj
 0001:0002d329       ?check_multi_copies@RGE_Base_Game@@IAEHXZ 0042e329 f basegame.obj
 0001:0002d41b       ?check_paint@RGE_Base_Game@@IAEHXZ 0042e41b f basegame.obj
 0001:0002d55e       ?clear_window@RGE_Base_Game@@IAEXXZ 0042e55e f basegame.obj
 0001:0002d5d0       ?create_world@RGE_Base_Game@@MAEPAVRGE_Game_World@@XZ 0042e5d0 f basegame.obj
 0001:0002d664       ?close@RGE_Base_Game@@QAEXXZ 0042e664 f basegame.obj
 0001:0002d68d       ?create_dialog@RGE_Base_Game@@QAEHPAPAVTPanel@@PAV2@@Z 0042e68d f basegame.obj
 0001:0002d70a       ?delete_dialog@RGE_Base_Game@@QAEXPAPAVTPanel@@@Z 0042e70a f basegame.obj
 0001:0002d760       ?set_game_mode@RGE_Base_Game@@UAEXHH@Z 0042e760 f basegame.obj
 0001:0002d78d       ?set_player@RGE_Base_Game@@UAEXF@Z 0042e78d f basegame.obj
 0001:0002d7df       ?get_paused@RGE_Base_Game@@QAEHXZ 0042e7df f basegame.obj
 0001:0002d81d       ?request_pause@RGE_Base_Game@@QAEXXZ 0042e81d f basegame.obj
 0001:0002d85b       ?set_paused@RGE_Base_Game@@QAEXH@Z 0042e85b f basegame.obj
 0001:0002d88c       ?get_mouse_info@RGE_Base_Game@@QAEXIJAAUtagPOINT@@AAH111@Z 0042e88c f basegame.obj
 0001:0002d920       ?get_mouse_pos@RGE_Base_Game@@QAEXAAUtagPOINT@@@Z 0042e920 f basegame.obj
 0001:0002d998       ?get_player@RGE_Base_Game@@QAEPAVRGE_Player@@XZ 0042e998 f basegame.obj
 0001:0002da26       ?draw_window@RGE_Base_Game@@QAEXXZ 0042ea26 f basegame.obj
 0001:0002da49       ?mouse_on@RGE_Base_Game@@QAEXXZ 0042ea49 f basegame.obj
 0001:0002da6d       ?mouse_off@RGE_Base_Game@@QAEXXZ 0042ea6d f basegame.obj
 0001:0002da91       ?set_mouse_facet@RGE_Base_Game@@QAEXJ@Z 0042ea91 f basegame.obj
 0001:0002dabb       ?wnd_proc@RGE_Base_Game@@UAGJPAXIIJ@Z 0042eabb f basegame.obj
 0001:0002dfda       ?handle_idle@RGE_Base_Game@@MAEHXZ 0042efda f basegame.obj
 0001:0002e0a4       ?handle_mouse_move@RGE_Base_Game@@MAEHPAXIIJ@Z 0042f0a4 f basegame.obj
 0001:0002e168       ?handle_key_down@RGE_Base_Game@@MAEHPAXIIJ@Z 0042f168 f basegame.obj
 0001:0002e250       ?handle_user_command@RGE_Base_Game@@MAEHPAXIIJ@Z 0042f250 f basegame.obj
 0001:0002e34b       ?handle_command@RGE_Base_Game@@MAEHPAXIIJ@Z 0042f34b f basegame.obj
 0001:0002e38d       ?handle_music_done@RGE_Base_Game@@MAEHPAXIIJ@Z 0042f38d f basegame.obj
 0001:0002e3c7       ?handle_paint@RGE_Base_Game@@MAEHPAXIIJ@Z 0042f3c7 f basegame.obj
 0001:0002e6c5       ?handle_activate@RGE_Base_Game@@MAEHPAXIIJ@Z 0042f6c5 f basegame.obj
 0001:0002e784       ?handle_init_menu@RGE_Base_Game@@MAEHPAXIIJ@Z 0042f784 f basegame.obj
 0001:0002e7be       ?handle_exit_menu@RGE_Base_Game@@MAEHPAXIIJ@Z 0042f7be f basegame.obj
 0001:0002e7f8       ?handle_size@RGE_Base_Game@@MAEHPAXIIJ@Z 0042f7f8 f basegame.obj
 0001:0002e8f0       ?handle_palette_changed@RGE_Base_Game@@MAEHPAXIIJ@Z 0042f8f0 f basegame.obj
 0001:0002e95f       ?handle_query_new_palette@RGE_Base_Game@@MAEHPAXIIJ@Z 0042f95f f basegame.obj
 0001:0002ea64       ?handle_close@RGE_Base_Game@@MAEHPAXIIJ@Z 0042fa64 f basegame.obj
 0001:0002ead4       ?handle_destroy@RGE_Base_Game@@MAEHPAXIIJ@Z 0042fad4 f basegame.obj
 0001:0002eb29       ?calc_timings@RGE_Base_Game@@MAEXXZ 0042fb29 f basegame.obj
 0001:0002eda9       ?calc_timing_text@RGE_Base_Game@@MAEXXZ 0042fda9 f basegame.obj
 0001:0002ee70       ?show_timings@RGE_Base_Game@@MAEXXZ 0042fe70 f basegame.obj
 0001:0002ee9c       ?show_comm@RGE_Base_Game@@MAEXXZ 0042fe9c f basegame.obj
 0001:0002eef4       ?show_ai@RGE_Base_Game@@MAEXXZ 0042fef4 f basegame.obj
 0001:0002ef4c       ?send_game_options@RGE_Base_Game@@UAEXXZ 0042ff4c f basegame.obj
 0001:0002ef88       ?receive_game_options@RGE_Base_Game@@UAEXXZ 0042ff88 f basegame.obj
 0001:0002efe7       ?set_game_options@RGE_Base_Game@@QAEXPAURGE_Game_Options@1@@Z 0042ffe7 f basegame.obj
 0001:0002f0f6       ?get_game_options@RGE_Base_Game@@QAEXPAURGE_Game_Options@1@@Z 004300f6 f basegame.obj
 0001:0002f210       ?scenarioGame@RGE_Base_Game@@QBEHXZ 00430210 f basegame.obj
 0001:0002f22f       ?randomGame@RGE_Base_Game@@QBEHXZ 0043022f f basegame.obj
 0001:0002f261       ?campaignGame@RGE_Base_Game@@QBEHXZ 00430261 f basegame.obj
 0001:0002f280       ?scenarioName@RGE_Base_Game@@QAEPADXZ 00430280 f basegame.obj
 0001:0002f29e       ?singlePlayerGame@RGE_Base_Game@@QBEHXZ 0043029e f basegame.obj
 0001:0002f2bd       ?multiplayerGame@RGE_Base_Game@@QBEHXZ 004302bd f basegame.obj
 0001:0002f2dc       ?mapXSize@RGE_Base_Game@@QBEHXZ 004302dc f basegame.obj
 0001:0002f2fb       ?mapYSize@RGE_Base_Game@@QBEHXZ 004302fb f basegame.obj
 0001:0002f31a       ?mapZSize@RGE_Base_Game@@QBEHXZ 0043031a f basegame.obj
 0001:0002f339       ?allowCheatCodes@RGE_Base_Game@@QBEHXZ 00430339 f basegame.obj
 0001:0002f37b       ?annoyCheaters@RGE_Base_Game@@QBEHXZ 0043037b f basegame.obj
 0001:0002f39a       ?cheatNotification@RGE_Base_Game@@QBEHXZ 0043039a f basegame.obj
 0001:0002f3b9       ?fullVisibility@RGE_Base_Game@@QBEHXZ 004303b9 f basegame.obj
 0001:0002f3fb       ?fogOfWar@RGE_Base_Game@@QBEHXZ 004303fb f basegame.obj
 0001:0002f431       ?coloredChat@RGE_Base_Game@@QBEHXZ 00430431 f basegame.obj
 0001:0002f450       ?gameDeveloperMode@RGE_Base_Game@@QBEHXZ 00430450 f basegame.obj
 0001:0002f46f       ?numberPlayers@RGE_Base_Game@@QBEHXZ 0043046f f basegame.obj
 0001:0002f48e       ?gameSummary@RGE_Base_Game@@UAEPADXZ 0043048e f basegame.obj
 0001:0002f682       ?setScenarioGame@RGE_Base_Game@@QAEXH@Z 00430682 f basegame.obj
 0001:0002f6a6       ?setScenarioName@RGE_Base_Game@@QAEXPAD@Z 004306a6 f basegame.obj
 0001:0002f6d8       ?setCampaignGame@RGE_Base_Game@@QAEXH@Z 004306d8 f basegame.obj
 0001:0002f6fc       ?setSinglePlayerGame@RGE_Base_Game@@QAEXH@Z 004306fc f basegame.obj
 0001:0002f749       ?setMultiplayerGame@RGE_Base_Game@@QAEXH@Z 00430749 f basegame.obj
 0001:0002f796       ?setMapSize@RGE_Base_Game@@QAEXHHH@Z 00430796 f basegame.obj
 0001:0002f7d2       ?setAllowCheatCodes@RGE_Base_Game@@QAEXH@Z 004307d2 f basegame.obj
 0001:0002f7f6       ?setAnnoyCheaters@RGE_Base_Game@@QAEXH@Z 004307f6 f basegame.obj
 0001:0002f81a       ?setCheatNotification@RGE_Base_Game@@QAEXH@Z 0043081a f basegame.obj
 0001:0002f83e       ?setFullVisibility@RGE_Base_Game@@QAEXH@Z 0043083e f basegame.obj
 0001:0002f862       ?setFogOfWar@RGE_Base_Game@@QAEXH@Z 00430862 f basegame.obj
 0001:0002f886       ?setColoredChat@RGE_Base_Game@@QAEXH@Z 00430886 f basegame.obj
 0001:0002f8aa       ?setNumberPlayers@RGE_Base_Game@@QAEXH@Z 004308aa f basegame.obj
 0001:0002f8ce       ?setGameDeveloperMode@RGE_Base_Game@@QAEXH@Z 004308ce f basegame.obj
 0001:0002f8f2       ?set_map_visible@RGE_Base_Game@@QAEXE@Z 004308f2 f basegame.obj
 0001:0002f92c       ?set_map_fog@RGE_Base_Game@@QAEXE@Z 0043092c f basegame.obj
 0001:0002f966       ?turn_world_sound_off@RGE_Base_Game@@QAEXXZ 00430966 f basegame.obj
 0001:0002f996       ?campaign_open_scenario@RGE_Base_Game@@QAEHXZ 00430996 f basegame.obj
 0001:0002f9b7       ?GetChecksum@RGE_Base_Game@@QAEJXZ 004309b7 f basegame.obj
 0001:0002fa10       ?set_prog_mode@RGE_Base_Game@@UAEXH@Z 00430a10 f basegame.obj
 0001:0002fa40       ?get_view_panel@RGE_Base_Game@@UAEPAVTPanel@@XZ 00430a40 f basegame.obj
 0001:0002fa60       ?notification@RGE_Base_Game@@UAEXHJJ@Z 00430a60 f basegame.obj
 0001:0002fa80       ?handle_message@RGE_Base_Game@@MAEHPAUtagMSG@@@Z 00430a80 f basegame.obj
 0001:0002faa0       ?action_update@RGE_Base_Game@@MAEHXZ 00430aa0 f basegame.obj
 0001:0002fac0       ?action_mouse_move@RGE_Base_Game@@MAEHJJHHHH@Z 00430ac0 f basegame.obj
 0001:0002fae0       ?action_key_down@RGE_Base_Game@@MAEHKHHHH@Z 00430ae0 f basegame.obj
 0001:0002fb00       ?action_user_command@RGE_Base_Game@@MAEHKK@Z 00430b00 f basegame.obj
 0001:0002fb20       ?action_command@RGE_Base_Game@@MAEHKK@Z 00430b20 f basegame.obj
 0001:0002fb40       ?action_music_done@RGE_Base_Game@@MAEHXZ 00430b40 f basegame.obj
 0001:0002fb60       ?action_activate@RGE_Base_Game@@MAEHXZ 00430b60 f basegame.obj
 0001:0002fb80       ?action_deactivate@RGE_Base_Game@@MAEHXZ 00430b80 f basegame.obj
 0001:0002fba0       ?action_init_menu@RGE_Base_Game@@MAEHXZ 00430ba0 f basegame.obj
 0001:0002fbc0       ?action_exit_menu@RGE_Base_Game@@MAEHXZ 00430bc0 f basegame.obj
 0001:0002fbe0       ?action_size@RGE_Base_Game@@MAEHXZ 00430be0 f basegame.obj
 0001:0002fc00       ?action_close@RGE_Base_Game@@MAEHXZ 00430c00 f basegame.obj
 0001:0002fc20       ??_GRGE_Base_Game@@UAEPAXI@Z 00430c20 f basegame.obj
 0001:0002fc20       ??_ERGE_Base_Game@@UAEPAXI@Z 00430c20 f basegame.obj
 0001:0002fc60       ??_GRGE_Game_Info@@QAEPAXI@Z 00430c60 f basegame.obj
 0001:0002fca0       ??_GTMousePointer@@QAEPAXI@Z 00430ca0 f basegame.obj
 0001:0002fce0       ??_GTRegistry@@QAEPAXI@Z   00430ce0 f basegame.obj
 0001:0002fd20       ??_GTCommunications_Handler@@QAEPAXI@Z 00430d20 f basegame.obj
 0001:0002fd60       ??_GTChat@@QAEPAXI@Z       00430d60 f basegame.obj
 0001:0002fda0       ??_GTDrawSystem@@QAEPAXI@Z 00430da0 f basegame.obj
 0001:0002fde0       ??_GRGE_Scenario_Header@@QAEPAXI@Z 00430de0 f basegame.obj
 0001:0002fe20       ?get_track_count@TMusic_System@@QAEHXZ 00430e20 f basegame.obj
 0001:0002fe40       ?set_render_all@RGE_Base_Game@@QAEXXZ 00430e40 f basegame.obj
 0001:0002fe70       ??_GTDigital@@QAEPAXI@Z    00430e70 f basegame.obj
 0001:0002feb0       ??_GTMusic_System@@QAEPAXI@Z 00430eb0 f basegame.obj
 0001:0002fef0       ??_GTSound_Driver@@QAEPAXI@Z 00430ef0 f basegame.obj
 0001:0002ff30       ?get_error_code@TPanel@@QAEHXZ 00430f30 f basegame.obj
 0001:0002ff50       ?get_prog_mode@RGE_Base_Game@@QAEHXZ 00430f50 f basegame.obj
 0001:0002ff70       ??0RGE_Action_Combat@@QAE@HPAVRGE_Action_Object@@@Z 00430f70 f ACT_comb.obj
 0001:0002fff4       ??0RGE_Action_Combat@@QAE@PAVRGE_Action_Object@@PAVRGE_Task@@PAVRGE_Static_Object@@@Z 00430ff4 f ACT_comb.obj
 0001:00030089       ??0RGE_Action_Combat@@QAE@PAVRGE_Action_Object@@PAVRGE_Task@@MMM@Z 00431089 f ACT_comb.obj
 0001:0003012d       ?first_in_stack@RGE_Action_Combat@@UAEXE@Z 0043112d f ACT_comb.obj
 0001:000301d0       ?set_state@RGE_Action_Combat@@MAEXE@Z 004311d0 f ACT_comb.obj
 0001:0003049e       ?update@RGE_Action_Combat@@UAEEXZ 0043149e f ACT_comb.obj
 0001:000307ee       ?stop@RGE_Action_Combat@@UAEHXZ 004317ee f ACT_comb.obj
 0001:00030816       ?move_to@RGE_Action_Combat@@UAEHPAVRGE_Static_Object@@MMM@Z 00431816 f ACT_comb.obj
 0001:00030868       ?work@RGE_Action_Combat@@UAEHPAVRGE_Static_Object@@MMM@Z 00431868 f ACT_comb.obj
 0001:0003090f       ?attack_response@RGE_Action_Combat@@MAEEPAVRGE_Static_Object@@@Z 0043190f f ACT_comb.obj
 0001:0003096e       ?relation_response@RGE_Action_Combat@@MAEEJE@Z 0043196e f ACT_comb.obj
 0001:00030ab0       ??_ERGE_Action_Combat@@UAEPAXI@Z 00431ab0 f ACT_comb.obj
 0001:00030ab0       ??_GRGE_Action_Combat@@UAEPAXI@Z 00431ab0 f ACT_comb.obj
 0001:00030af0       ??1RGE_Action_Combat@@UAE@XZ 00431af0 f ACT_comb.obj
 0001:00030b50       ??0TEditPanel@@QAE@XZ      00431b50 f pnl_edit.obj
 0001:00030c61       ??1TEditPanel@@UAE@XZ      00431c61 f pnl_edit.obj
 0001:00030d6e       ?setup@TEditPanel@@QAEJPAVTDrawArea@@PAVTPanel@@JJJJPAXHEHEFPADW4AlignType@1@W4FormatType@1@HHH@Z 00431d6e f pnl_edit.obj
 0001:00031099       ?set_text@TEditPanel@@QAEXPAD@Z 00432099 f pnl_edit.obj
 0001:00031130       ?get_text@TEditPanel@@QAEPADXZ 00432130 f pnl_edit.obj
 0001:000311a4       ?set_active@TEditPanel@@UAEXH@Z 004321a4 f pnl_edit.obj
 0001:00031204       ?set_focus@TEditPanel@@UAEXH@Z 00432204 f pnl_edit.obj
 0001:000312a9       ?set_rect@TEditPanel@@UAEXJJJJ@Z 004322a9 f pnl_edit.obj
 0001:00031351       ?set_redraw@TEditPanel@@UAEXW4RedrawMode@TPanel@@@Z 00432351 f pnl_edit.obj
 0001:000313a1       ?wnd_proc@TEditPanel@@UAEJPAXIIJ@Z 004323a1 f pnl_edit.obj
 0001:00031543       ?sub_wnd_proc@TEditPanel@@QAEJPAXIIJ@Z 00432543 f pnl_edit.obj
 0001:00031697       ?draw@TEditPanel@@UAEXXZ   00432697 f pnl_edit.obj
 0001:000317a0       ?paint@TEditPanel@@UAEXXZ  004327a0 f pnl_edit.obj
 0001:000317c0       ??_GTEditPanel@@UAEPAXI@Z  004327c0 f pnl_edit.obj
 0001:000317c0       ??_ETEditPanel@@UAEPAXI@Z  004327c0 f pnl_edit.obj
 0001:00031800       ??0TRIBE_Panel_Object@@QAE@PAVTDrawArea@@PAVTPanel@@PAXJJPAVTShape@@PAPAV3@PAVTRIBE_Player@@@Z 00432800 f tpnl_obj.obj
 0001:00031abd       ??1TRIBE_Panel_Object@@UAE@XZ 00432abd f tpnl_obj.obj
 0001:00031b6d       ?set_player@TRIBE_Panel_Object@@QAEXPAVTRIBE_Player@@@Z 00432b6d f tpnl_obj.obj
 0001:00031bc5       ?set_object@TRIBE_Panel_Object@@QAEXPAVRGE_Static_Object@@@Z 00432bc5 f tpnl_obj.obj
 0001:00031bfe       ?draw@TRIBE_Panel_Object@@UAEXXZ 00432bfe f tpnl_obj.obj
 0001:00033681       ?handle_idle@TRIBE_Panel_Object@@UAEJXZ 00434681 f tpnl_obj.obj
 0001:00033ce4       ?save_object_info@TRIBE_Panel_Object@@AAEXXZ 00434ce4 f tpnl_obj.obj
 0001:00033ed0       ??_GTRIBE_Panel_Object@@UAEPAXI@Z 00434ed0 f tpnl_obj.obj
 0001:00033ed0       ??_ETRIBE_Panel_Object@@UAEPAXI@Z 00434ed0 f tpnl_obj.obj
 0001:00033f10       ?get_show_object_id@TRIBE_Game@@QAEHXZ 00434f10 f tpnl_obj.obj
 0001:00033f30       ??0TButtonPanel@@QAE@XZ    00434f30 f Pnl_btn.obj
 0001:0003416e       ??1TButtonPanel@@UAE@XZ    0043516e f Pnl_btn.obj
 0001:000342a2       ?setup@TButtonPanel@@QAEJPAVTDrawArea@@PAVTPanel@@JJJJW4DrawType@1@PAVTDigital@@W4NotifyType@1@J@Z 004352a2 f Pnl_btn.obj
 0001:00034315       ?buttonType@TButtonPanel@@QBE?AW4ButtonType@1@XZ 00435315 f Pnl_btn.obj
 0001:00034334       ?drawType@TButtonPanel@@QBE?AW4DrawType@1@XZ 00435334 f Pnl_btn.obj
 0001:00034353       ?notifyType@TButtonPanel@@QBE?AW4NotifyType@1@XZ 00435353 f Pnl_btn.obj
 0001:00034372       ?setDrawType@TButtonPanel@@QAEXW4DrawType@1@@Z 00435372 f Pnl_btn.obj
 0001:00034396       ?setButtonType@TButtonPanel@@QAEXW4ButtonType@1@@Z 00435396 f Pnl_btn.obj
 0001:000343ba       ?set_picture_info@TButtonPanel@@QAEXPAVTShape@@FJJH@Z 004353ba f Pnl_btn.obj
 0001:00034408       ?set_text_info@TButtonPanel@@QAEXPADPAXJJJJ@Z 00435408 f Pnl_btn.obj
 0001:00034452       ?set_text_info@TButtonPanel@@QAEXJPAXJJJJ@Z 00435452 f Pnl_btn.obj
 0001:0003449c       ?set_text_pos@TButtonPanel@@QAEXJJ@Z 0043549c f Pnl_btn.obj
 0001:000344d9       ?set_radio_info@TButtonPanel@@QAEXPAPAV1@F@Z 004354d9 f Pnl_btn.obj
 0001:000345a2       ?set_state_info@TButtonPanel@@QAEXF@Z 004355a2 f Pnl_btn.obj
 0001:000345d5       ?set_id@TButtonPanel@@QAEXFJJ@Z 004355d5 f Pnl_btn.obj
 0001:0003460f       ?set_picture@TButtonPanel@@QAEXFPAVTShape@@F@Z 0043560f f Pnl_btn.obj
 0001:00034658       ?set_text@TButtonPanel@@QAEXFPAD@Z 00435658 f Pnl_btn.obj
 0001:00034817       ?set_text@TButtonPanel@@QAEXFPAD0@Z 00435817 f Pnl_btn.obj
 0001:00034994       ?set_text@TButtonPanel@@QAEXFJ@Z 00435994 f Pnl_btn.obj
 0001:00034a06       ?set_text@TButtonPanel@@QAEXFJJ@Z 00435a06 f Pnl_btn.obj
 0001:00034ac0       ?set_font@TButtonPanel@@QAEXPAXJJ@Z 00435ac0 f Pnl_btn.obj
 0001:00034b09       ?set_text_color@TButtonPanel@@QAEXHKK@Z 00435b09 f Pnl_btn.obj
 0001:00034b67       ?set_highlight_text_color@TButtonPanel@@QAEXHKK@Z 00435b67 f Pnl_btn.obj
 0001:00034bc5       ?set_sound@TButtonPanel@@QAEXPAVTDigital@@@Z 00435bc5 f Pnl_btn.obj
 0001:00034be9       ?set_radio_button@TButtonPanel@@QAEXXZ 00435be9 f Pnl_btn.obj
 0001:00034ca4       ?set_state@TButtonPanel@@UAEXF@Z 00435ca4 f Pnl_btn.obj
 0001:00034cd7       ?get_state@TButtonPanel@@QAEHXZ 00435cd7 f Pnl_btn.obj
 0001:00034cf7       ?get_id@TButtonPanel@@QAEJXZ 00435cf7 f Pnl_btn.obj
 0001:00034d21       ?get_id2@TButtonPanel@@QAEJXZ 00435d21 f Pnl_btn.obj
 0001:00034d4b       ?get_text@TButtonPanel@@QAEHFPAPAD0@Z 00435d4b f Pnl_btn.obj
 0001:00034da1       ?draw@TButtonPanel@@UAEXXZ 00435da1 f Pnl_btn.obj
 0001:000355d8       ?handle_mouse_down@TButtonPanel@@UAEJEJJHH@Z 004365d8 f Pnl_btn.obj
 0001:00035659       ?mouse_left_dbl_click_action@TButtonPanel@@UAEJJJHH@Z 00436659 f Pnl_btn.obj
 0001:00035673       ?mouse_left_down_action@TButtonPanel@@UAEJJJHH@Z 00436673 f Pnl_btn.obj
 0001:00035754       ?mouse_left_move_action@TButtonPanel@@UAEJJJHH@Z 00436754 f Pnl_btn.obj
 0001:0003589d       ?mouse_left_up_action@TButtonPanel@@UAEJJJHH@Z 0043689d f Pnl_btn.obj
 0001:0003594a       ?handle_key_down@TButtonPanel@@UAEJJFHHH@Z 0043694a f Pnl_btn.obj
 0001:000359ff       ?key_down_action@TButtonPanel@@UAEJJFHHH@Z 004369ff f Pnl_btn.obj
 0001:00035b5f       ?char_action@TButtonPanel@@UAEJJF@Z 00436b5f f Pnl_btn.obj
 0001:00035b79       ?hit_button@TButtonPanel@@UAEHJJ@Z 00436b79 f Pnl_btn.obj
 0001:00035c5b       ?do_action@TButtonPanel@@QAEXXZ 00436c5b f Pnl_btn.obj
 0001:00035e20       ??_GTButtonPanel@@UAEPAXI@Z 00436e20 f Pnl_btn.obj
 0001:00035e20       ??_ETButtonPanel@@UAEPAXI@Z 00436e20 f Pnl_btn.obj
 0001:00035e60       ??0TPicture@@QAE@PADHPAXH@Z 00436e60 f Picture.obj
 0001:00035e93       ??0TPicture@@QAE@XZ        00436e93 f Picture.obj
 0001:00035efa       ??1TPicture@@QAE@XZ        00436efa f Picture.obj
 0001:00035f75       ?Load@TPicture@@QAEXPADHPAXH@Z 00436f75 f Picture.obj
 0001:000361ac       ?Init@TPicture@@QAEXPAUBITMAPINFO256@@PAEPAUTRANSINFO@@@Z 004371ac f Picture.obj
 0001:00036243       ?AlignedWidth@TPicture@@QAEJXZ 00437243 f Picture.obj
 0001:00036265       ?Draw@TPicture@@QAEXPAVTDrawArea@@JJHH@Z 00437265 f Picture.obj
 0001:00036350       ?Tile@TPicture@@QAEJPAVTDrawArea@@JJJJJJJJJJ@Z 00437350 f Picture.obj
 0001:000363d1       ?GetPixel@TPicture@@QAEEJJHH@Z 004373d1 f Picture.obj
 0001:00036520       ??0TRIBE_Action_Artifact@@QAE@HPAVRGE_Action_Object@@@Z 00437520 f tact_art.obj
 0001:000365a4       ??0TRIBE_Action_Artifact@@QAE@PAVRGE_Action_Object@@PAVRGE_Task@@PAVRGE_Static_Object@@@Z 004375a4 f tact_art.obj
 0001:00036636       ??0TRIBE_Action_Artifact@@QAE@PAVRGE_Action_Object@@PAVRGE_Task@@MMM@Z 00437636 f tact_art.obj
 0001:000366da       ?first_in_stack@TRIBE_Action_Artifact@@UAEXE@Z 004376da f tact_art.obj
 0001:0003676b       ?set_state@TRIBE_Action_Artifact@@MAEXE@Z 0043776b f tact_art.obj
 0001:00036987       ?update@TRIBE_Action_Artifact@@UAEEXZ 00437987 f tact_art.obj
 0001:00036b64       ?check_ownership@TRIBE_Action_Artifact@@IAEPAVRGE_Player@@XZ 00437b64 f tact_art.obj
 0001:00036e61       ?stop@TRIBE_Action_Artifact@@MAEHXZ 00437e61 f tact_art.obj
 0001:00036e89       ?move_to@TRIBE_Action_Artifact@@MAEHPAVRGE_Static_Object@@MMM@Z 00437e89 f tact_art.obj
 0001:00036ece       ?work@TRIBE_Action_Artifact@@MAEHPAVRGE_Static_Object@@MMM@Z 00437ece f tact_art.obj
 0001:00036f38       ?reset_owner@TRIBE_Action_Artifact@@QAEXXZ 00437f38 f tact_art.obj
 0001:00036f60       ??_GTRIBE_Action_Artifact@@UAEPAXI@Z 00437f60 f tact_art.obj
 0001:00036f60       ??_ETRIBE_Action_Artifact@@UAEPAXI@Z 00437f60 f tact_art.obj
 0001:00036fa0       ??1TRIBE_Action_Artifact@@UAE@XZ 00437fa0 f tact_art.obj
 0001:00037000       ??0TRIBE_Map@@QAE@HPAPAVRGE_Sound@@E@Z 00438000 f tmap.obj
 0001:000370fc       ??0TRIBE_Map@@QAE@PAD000FFFPAPAVRGE_Sound@@@Z 004380fc f tmap.obj
 0001:0003722c       ??1TRIBE_Map@@UAE@XZ       0043822c f tmap.obj
 0001:00037294       ?save@TRIBE_Map@@UAEXH@Z   00438294 f tmap.obj
 0001:000372b8       ?map_generate@TRIBE_Map@@UAEXPAVRGE_Player@@PAVRGE_Game_World@@PAURGE_Player_Info@@PAE@Z 004382b8 f tmap.obj
 0001:00037330       ?map_generate@TRIBE_Map@@QAEXPAURGE_Player_Info@@@Z 00438330 f tmap.obj
 0001:0003750c       ?check_tile_for_forest_change@TRIBE_Map@@QAEXFFPAVRGE_Game_World@@@Z 0043850c f tmap.obj
 0001:000377d9       ?change_terrain@TRIBE_Map@@QAEXFFEPAVRGE_Game_World@@@Z 004387d9 f tmap.obj
 0001:00037a10       ??_GTRIBE_Map@@UAEPAXI@Z   00438a10 f tmap.obj
 0001:00037a10       ??_ETRIBE_Map@@UAEPAXI@Z   00438a10 f tmap.obj
 0001:00037a50       ??_GControlerOfLandscape@@QAEPAXI@Z 00438a50 f tmap.obj
 0001:00037a90       ?get_new_random_map@RGE_Base_Game@@QAEHXZ 00438a90 f tmap.obj
 0001:00037ab0       ??0RGE_Diamond_Map@@QAE@XZ 00438ab0 f diam_map.obj
 0001:00037ca7       ??1RGE_Diamond_Map@@UAE@XZ 00438ca7 f diam_map.obj
 0001:00037d75       ?setup@RGE_Diamond_Map@@QAEJPAVTDrawArea@@PAVTPanel@@JJJJEH@Z 00438d75 f diam_map.obj
 0001:00037db6       ?set_bitmap@RGE_Diamond_Map@@QAEHPAD@Z 00438db6 f diam_map.obj
 0001:00038146       ?set_world@RGE_Diamond_Map@@QAEXPAVRGE_Game_World@@@Z 00439146 f diam_map.obj
 0001:000388db       ?set_player@RGE_Diamond_Map@@QAEXPAVRGE_Player@@@Z 004398db f diam_map.obj
 0001:0003890c       ?set_redraw@RGE_Diamond_Map@@UAEXW4RedrawMode@TPanel@@@Z 0043990c f diam_map.obj
 0001:00038947       ?delete_surfaces@RGE_Diamond_Map@@QAEXXZ 00439947 f diam_map.obj
 0001:000389a5       ?create_surfaces@RGE_Diamond_Map@@QAEHXZ 004399a5 f diam_map.obj
 0001:00038abd       ?draw@RGE_Diamond_Map@@UAEXXZ 00439abd f diam_map.obj
 0001:00038c9e       ?clear_image@RGE_Diamond_Map@@IAEXXZ 00439c9e f diam_map.obj
 0001:00038eb2       ?copy_image@RGE_Diamond_Map@@IAEXXZ 00439eb2 f diam_map.obj
 0001:00039189       ?draw_all_tiles@RGE_Diamond_Map@@IAEXXZ 0043a189 f diam_map.obj
 0001:00039230       ?draw_explored_tiles@RGE_Diamond_Map@@IAEXXZ 0043a230 f diam_map.obj
 0001:000392c9       ?draw_tile@RGE_Diamond_Map@@IAEXFFH@Z 0043a2c9 f diam_map.obj
 0001:00039780       ?draw_selected_area@RGE_Diamond_Map@@MAEXXZ 0043a780 f diam_map.obj
 0001:0003984d       ?draw_objects@RGE_Diamond_Map@@MAEXXZ 0043a84d f diam_map.obj
 0001:00039bfa       ?draw_object@RGE_Diamond_Map@@MAEXFFEFPAVRGE_Static_Object@@@Z 0043abfa f diam_map.obj
 0001:00039e00       ?draw_view_rect@RGE_Diamond_Map@@MAEXXZ 0043ae00 f diam_map.obj
 0001:0003a2d0       ?draw_all_from_pic@RGE_Diamond_Map@@IAEXXZ 0043b2d0 f diam_map.obj
 0001:0003a589       ?draw_all_from_map@RGE_Diamond_Map@@IAEXXZ 0043b589 f diam_map.obj
 0001:0003a9c5       ?pick_tile@RGE_Diamond_Map@@QAEHJJPAF0PAPAURGE_Tile@@@Z 0043b9c5 f diam_map.obj
 0001:0003ab74       ?handle_size@RGE_Diamond_Map@@UAEJJJ@Z 0043bb74 f diam_map.obj
 0001:0003abbe       ?start_scroll_view@RGE_Diamond_Map@@QAEXJJ@Z 0043bbbe f diam_map.obj
 0001:0003ac97       ?handle_scroll_view@RGE_Diamond_Map@@QAEXJJ@Z 0043bc97 f diam_map.obj
 0001:0003ad5b       ?end_scroll_view@RGE_Diamond_Map@@QAEXXZ 0043bd5b f diam_map.obj
 0001:0003ad90       ??_GRGE_Diamond_Map@@UAEPAXI@Z 0043bd90 f diam_map.obj
 0001:0003ad90       ??_ERGE_Diamond_Map@@UAEPAXI@Z 0043bd90 f diam_map.obj
 0001:0003add0       ??0RGE_Action_Attack@@QAE@HPAVRGE_Action_Object@@@Z 0043bdd0 f Act_atak.obj
 0001:0003af47       ??0RGE_Action_Attack@@QAE@PAVRGE_Action_Object@@PAVRGE_Static_Object@@PAVRGE_Sprite@@22MMFF@Z 0043bf47 f Act_atak.obj
 0001:0003b15a       ??0RGE_Action_Attack@@QAE@PAVRGE_Action_Object@@MMMPAVRGE_Sprite@@11MMFF@Z 0043c15a f Act_atak.obj
 0001:0003b326       ??1RGE_Action_Attack@@UAE@XZ 0043c326 f Act_atak.obj
 0001:0003b38e       ?save@RGE_Action_Attack@@UAEXH@Z 0043c38e f Act_atak.obj
 0001:0003b4d8       ?first_in_stack@RGE_Action_Attack@@UAEXE@Z 0043c4d8 f Act_atak.obj
 0001:0003b4fd       ?stop@RGE_Action_Attack@@UAEHXZ 0043c4fd f Act_atak.obj
 0001:0003b525       ?set_state@RGE_Action_Attack@@MAEXE@Z 0043c525 f Act_atak.obj
 0001:0003b7d9       ?update@RGE_Action_Attack@@UAEEXZ 0043c7d9 f Act_atak.obj
 0001:0003bcce       ?ready_to_attack@RGE_Action_Attack@@IAEHXZ 0043ccce f Act_atak.obj
 0001:0003c0dc       ?do_attack@RGE_Action_Attack@@IAEXXZ 0043d0dc f Act_atak.obj
 0001:0003c15d       ?copy_obj_sprites@RGE_Action_Attack@@MAEXPAVRGE_Master_Action_Object@@PAVRGE_Task@@1@Z 0043d15d f Act_atak.obj
 0001:0003c2e0       ??_GRGE_Action_Attack@@UAEPAXI@Z 0043d2e0 f Act_atak.obj
 0001:0003c2e0       ??_ERGE_Action_Attack@@UAEPAXI@Z 0043d2e0 f Act_atak.obj
 0001:0003c320       ??0RGE_Missile_Object@@QAE@PAVRGE_Master_Combat_Object@@PAVRGE_Player@@MMMH@Z 0043d320 f misl_obj.obj
 0001:0003c3d4       ??0RGE_Missile_Object@@QAE@HPAVRGE_Game_World@@H@Z 0043d3d4 f misl_obj.obj
 0001:0003c470       ??1RGE_Missile_Object@@UAE@XZ 0043d470 f misl_obj.obj
 0001:0003c4d8       ?setup@RGE_Missile_Object@@MAEHPAVRGE_Master_Combat_Object@@PAVRGE_Player@@MMM@Z 0043d4d8 f misl_obj.obj
 0001:0003c518       ?setup@RGE_Missile_Object@@MAEHHPAVRGE_Game_World@@@Z 0043d518 f misl_obj.obj
 0001:0003c54c       ?rehook@RGE_Missile_Object@@UAEXXZ 0043d54c f misl_obj.obj
 0001:0003c56a       ?save@RGE_Missile_Object@@UAEXH@Z 0043d56a f misl_obj.obj
 0001:0003c58e       ?update@RGE_Missile_Object@@UAEEXZ 0043d58e f misl_obj.obj
 0001:0003c5b2       ?init_missile@RGE_Missile_Object@@QAEXPAVRGE_Combat_Object@@PAVRGE_Static_Object@@@Z 0043d5b2 f misl_obj.obj
 0001:0003c67e       ?missile_move@RGE_Missile_Object@@QAEEXZ 0043d67e f misl_obj.obj
 0001:0003c77d       ?make_object_collision_list@RGE_Missile_Object@@QAEPAVRGE_Check_List@@M@Z 0043d77d f misl_obj.obj
 0001:0003cb30       ?getSpeed@RGE_Animated_Object@@UBEMXZ 0043db30 f misl_obj.obj
 0001:0003cb50       ?groupCommander@RGE_Combat_Object@@UBEEXZ 0043db50 f misl_obj.obj
 0001:0003cb70       ?inGroup@RGE_Combat_Object@@UBEEXZ 0043db70 f misl_obj.obj
 0001:0003cb90       ??_GRGE_Missile_Object@@UAEPAXI@Z 0043db90 f misl_obj.obj
 0001:0003cb90       ??_ERGE_Missile_Object@@UAEPAXI@Z 0043db90 f misl_obj.obj
 0001:0003cbd0       ??_GRGE_Check_List@@QAEPAXI@Z 0043dbd0 f misl_obj.obj
 0001:0003cc10       ??0RGE_Task_List@@QAE@XZ   0043dc10 f task_lst.obj
 0001:0003cc45       ??1RGE_Task_List@@QAE@XZ   0043dc45 f task_lst.obj
 0001:0003cc6c       ?copy@RGE_Task_List@@QAEXPAV1@@Z 0043dc6c f task_lst.obj
 0001:0003cd41       ?load@RGE_Task_List@@QAEXHPAPAVRGE_Sprite@@PAPAVRGE_Sound@@@Z 0043dd41 f task_lst.obj
 0001:0003ce20       ?load@RGE_Task_List@@QAEXPAU_iobuf@@PAPAVRGE_Sprite@@PAPAVRGE_Sound@@@Z 0043de20 f task_lst.obj
 0001:0003cf53       ?save@RGE_Task_List@@QAEXH@Z 0043df53 f task_lst.obj
 0001:0003cfbd       ?delete_list@RGE_Task_List@@QAEXXZ 0043dfbd f task_lst.obj
 0001:0003d07d       ?create_task@RGE_Task_List@@UAEPAVRGE_Task@@FF@Z 0043e07d f task_lst.obj
 0001:0003d14e       ?get_target_task@RGE_Task_List@@UAEPAVRGE_Task@@PAVRGE_Action_Object@@PAVRGE_Static_Object@@MMM@Z 0043e14e f task_lst.obj
 0001:0003d4cd       ?check_task@RGE_Task_List@@MAEHPAVRGE_Task@@PAVRGE_Action_Object@@PAVRGE_Static_Object@@@Z 0043e4cd f task_lst.obj
 0001:0003d660       ??_GRGE_Task@@QAEPAXI@Z    0043e660 f task_lst.obj
 0001:0003d6a0       ??0TribeMainDecisionAIModule@@QAE@PAXHPADPAVTribeAIPlayer@@H11@Z 0043e6a0 f taimdmd.obj
 0001:0003deef       ??1TribeMainDecisionAIModule@@UAE@XZ 0043eeef f taimdmd.obj
 0001:0003e06f       ?setLogHistory@TribeMainDecisionAIModule@@UAEXH@Z 0043f06f f taimdmd.obj
 0001:0003e18d       ?processMessage@TribeMainDecisionAIModule@@UAEHPAVAIModuleMessage@@@Z 0043f18d f taimdmd.obj
 0001:0003e1a7       ?update@TribeMainDecisionAIModule@@UAEHH@Z 0043f1a7 f taimdmd.obj
 0001:0003e2bb       ?addObject@TribeMainDecisionAIModule@@UAEHPAVBaseObject@@@Z 0043f2bb f taimdmd.obj
 0001:0003e3c3       ?removeObject@TribeMainDecisionAIModule@@UAEPAVBaseObject@@H@Z 0043f3c3 f taimdmd.obj
 0001:0003e409       ?objectGroupThatCanPerformTask@TribeMainDecisionAIModule@@UAEHH@Z 0043f409 f taimdmd.obj
 0001:0003e52b       ?canPerformTask@TribeMainDecisionAIModule@@UAEHPAVBaseObject@@H@Z 0043f52b f taimdmd.obj
 0001:0003e575       ?isMoveable@TribeMainDecisionAIModule@@QAEHH@Z 0043f575 f taimdmd.obj
 0001:0003e5a8       ?isMoveable@TribeMainDecisionAIModule@@QAEHPAVBaseObject@@@Z 0043f5a8 f taimdmd.obj
 0001:0003e62b       ?updateBuildAIWithObjects@TribeMainDecisionAIModule@@QAEXXZ 0043f62b f taimdmd.obj
 0001:0003e750       ??_ETribeMainDecisionAIModule@@UAEPAXI@Z 0043f750 f taimdmd.obj
 0001:0003e750       ??_GTribeMainDecisionAIModule@@UAEPAXI@Z 0043f750 f taimdmd.obj
 0001:0003e790       ??0TRIBE_Mission_Screen@@QAE@PADE@Z 0043f790 f scr_vc.obj
 0001:0003ea04       ??1TRIBE_Mission_Screen@@UAE@XZ 0043fa04 f scr_vc.obj
 0001:0003eb60       ?action@TRIBE_Mission_Screen@@MAEJPAVTPanel@@JKK@Z 0043fb60 f scr_vc.obj
 0001:0003ec30       ??_GTRIBE_Mission_Screen@@UAEPAXI@Z 0043fc30 f scr_vc.obj
 0001:0003ec30       ??_ETRIBE_Mission_Screen@@UAEPAXI@Z 0043fc30 f scr_vc.obj
 0001:0003ec70       ??0TChat@@QAE@PAXPAVTTaunt@@@Z 0043fc70 f Chat.obj
 0001:0003ed04       ??1TChat@@QAE@XZ           0043fd04 f Chat.obj
 0001:0003ed22       ?AddChatMsg@TChat@@QAEHPAD0@Z 0043fd22 f Chat.obj
 0001:0003ee95       ?GetChatMsg@TChat@@QAEPADH@Z 0043fe95 f Chat.obj
 0001:0003eed2       ?ClearChat@TChat@@QAEXXZ   0043fed2 f Chat.obj
 0001:0003ef45       ?HighMsgNumber@TChat@@QAEHXZ 0043ff45 f Chat.obj
 0001:0003ef64       ?MaxArraySize@TChat@@QAEHXZ 0043ff64 f Chat.obj
 0001:0003ef7f       ?setWindowHandle@TChat@@QAEXPAX@Z 0043ff7f f Chat.obj
 0001:0003ef9f       ?setInChatGroup@TChat@@QAEXHH@Z 0043ff9f f Chat.obj
 0001:0003efd8       ?inChatGroup@TChat@@QAEHH@Z 0043ffd8 f Chat.obj
 0001:0003f020       ??0TScreenPanel@@QAE@XZ    00440020 f Pnl_scr.obj
 0001:0003f09c       ??0TScreenPanel@@QAE@PAD@Z 0044009c f Pnl_scr.obj
 0001:0003f11e       ??1TScreenPanel@@UAE@XZ    0044011e f Pnl_scr.obj
 0001:0003f1b3       ?setup@TScreenPanel@@QAEJPAVTDrawArea@@PADE@Z 004401b3 f Pnl_scr.obj
 0001:0003f2ca       ?set_focus@TScreenPanel@@UAEXH@Z 004402ca f Pnl_scr.obj
 0001:0003f36c       ?palette@TScreenPanel@@QBEPAXXZ 0044036c f Pnl_scr.obj
 0001:0003f38b       ?popupOKDialog@TScreenPanel@@QAEXJPAD@Z 0044038b f Pnl_scr.obj
 0001:0003f3e5       ?popupOKDialog@TScreenPanel@@QAEXPAD0@Z 004403e5 f Pnl_scr.obj
 0001:0003f615       ?popupYesNoDialog@TScreenPanel@@QAEXJPAD@Z 00440615 f Pnl_scr.obj
 0001:0003f66f       ?popupYesNoDialog@TScreenPanel@@QAEXPAD0@Z 0044066f f Pnl_scr.obj
 0001:0003f89f       ?action@TScreenPanel@@UAEJPAVTPanel@@JKK@Z 0044089f f Pnl_scr.obj
 0001:0003f994       ?wnd_proc@TScreenPanel@@UAEJPAXIIJ@Z 00440994 f Pnl_scr.obj
 0001:0003f9e3       ?draw@TScreenPanel@@UAEXXZ 004409e3 f Pnl_scr.obj
 0001:0003fa20       ??_GTScreenPanel@@UAEPAXI@Z 00440a20 f Pnl_scr.obj
 0001:0003fa20       ??_ETScreenPanel@@UAEPAXI@Z 00440a20 f Pnl_scr.obj
 0001:0003fa60       ?get_palette@RGE_Base_Game@@QAEPAXXZ 00440a60 f Pnl_scr.obj
 0001:0003fa80       ??0TDropDownPanel@@QAE@XZ  00440a80 f Pnl_drop.obj
 0001:0003fb67       ??1TDropDownPanel@@UAE@XZ  00440b67 f Pnl_drop.obj
 0001:0003fbcf       ?setup@TDropDownPanel@@QAEJPAVTDrawArea@@PAVTPanel@@PAXJJHEHEJJJJFFJJPADJJPAPADFJ3333JJ@Z 00440bcf f Pnl_drop.obj
 0001:000400b5       ?draw@TDropDownPanel@@UAEXXZ 004410b5 f Pnl_drop.obj
 0001:00040134       ?handle_mouse_down@TDropDownPanel@@UAEJEJJHH@Z 00441134 f Pnl_drop.obj
 0001:0004022d       ?action@TDropDownPanel@@UAEJPAVTPanel@@JKK@Z 0044122d f Pnl_drop.obj
 0001:00040334       ?set_rect@TDropDownPanel@@UAEXJJJJ@Z 00441334 f Pnl_drop.obj
 0001:00040405       ?set_val_text_color@TDropDownPanel@@QAEXKK@Z 00441405 f Pnl_drop.obj
 0001:00040443       ?set_draw_style@TDropDownPanel@@QAEXW4DrawStyle@1@@Z 00441443 f Pnl_drop.obj
 0001:0004049c       ?set_draw_val_rect@TDropDownPanel@@QAEXH@Z 0044149c f Pnl_drop.obj
 0001:000404f9       ?set_mode@TDropDownPanel@@QAEXW4DropdownMode@1@@Z 004414f9 f Pnl_drop.obj
 0001:0004110e       ?currentLineNumber@TDropDownPanel@@QAEHXZ 0044210e f Pnl_drop.obj
 0001:0004114e       ?setCurrentLineNumber@TDropDownPanel@@QAEXH@Z 0044214e f Pnl_drop.obj
 0001:00041172       ?currentLine@TDropDownPanel@@QAEPADXZ 00442172 f Pnl_drop.obj
 0001:000411b2       ?set_sorted@TDropDownPanel@@QAEXH@Z 004421b2 f Pnl_drop.obj
 0001:000411ec       ?get_sorted@TDropDownPanel@@QAEHXZ 004421ec f Pnl_drop.obj
 0001:0004122c       ?set_line@TDropDownPanel@@QAEXJ@Z 0044222c f Pnl_drop.obj
 0001:000412b0       ?append_line@TDropDownPanel@@QAEHPADJ@Z 004422b0 f Pnl_drop.obj
 0001:000412fa       ?append_line@TDropDownPanel@@QAEHJJ@Z 004422fa f Pnl_drop.obj
 0001:00041344       ?insert_line@TDropDownPanel@@QAEHJPADJ@Z 00442344 f Pnl_drop.obj
 0001:00041392       ?insert_line@TDropDownPanel@@QAEHJJJ@Z 00442392 f Pnl_drop.obj
 0001:000413e0       ?delete_line@TDropDownPanel@@QAEHJ@Z 004423e0 f Pnl_drop.obj
 0001:00041426       ?get_line@TDropDownPanel@@QAEJXZ 00442426 f Pnl_drop.obj
 0001:00041466       ?get_line@TDropDownPanel@@QAEJJ@Z 00442466 f Pnl_drop.obj
 0001:000414ac       ?get_line@TDropDownPanel@@QAEJPAD@Z 004424ac f Pnl_drop.obj
 0001:000414f2       ?get_text@TDropDownPanel@@QAEPADXZ 004424f2 f Pnl_drop.obj
 0001:00041532       ?get_text@TDropDownPanel@@QAEPADJ@Z 00442532 f Pnl_drop.obj
 0001:00041578       ?get_id@TDropDownPanel@@QAEJXZ 00442578 f Pnl_drop.obj
 0001:000415b8       ?get_id@TDropDownPanel@@QAEJJ@Z 004425b8 f Pnl_drop.obj
 0001:000415fe       ?empty_list@TDropDownPanel@@QAEXXZ 004425fe f Pnl_drop.obj
 0001:00041632       ??0TDropDownButtonPanel@@QAE@PAVTDropDownPanel@@@Z 00442632 f Pnl_drop.obj
 0001:000416af       ?handle_mouse_move@TDropDownButtonPanel@@UAEJJJHH@Z 004426af f Pnl_drop.obj
 0001:00041820       ??_GTDropDownPanel@@UAEPAXI@Z 00442820 f Pnl_drop.obj
 0001:00041820       ??_ETDropDownPanel@@UAEPAXI@Z 00442820 f Pnl_drop.obj
 0001:00041860       ?get_parent_panel@TPanel@@QAEPAV1@XZ 00442860 f Pnl_drop.obj
 0001:00041880       ?get_sorted@TTextPanel@@QAEHXZ 00442880 f Pnl_drop.obj
 0001:000418a0       ??_GTDropDownButtonPanel@@UAEPAXI@Z 004428a0 f Pnl_drop.obj
 0001:000418a0       ??_ETDropDownButtonPanel@@UAEPAXI@Z 004428a0 f Pnl_drop.obj
 0001:000418e0       ??1TDropDownButtonPanel@@UAE@XZ 004428e0 f Pnl_drop.obj
 0001:00041940       ??0TribeSaveGameScreen@@QAE@W4Mode@0@PAD@Z 00442940 f scr_save.obj
 0001:00042409       ??1TribeSaveGameScreen@@UAE@XZ 00443409 f scr_save.obj
 0001:000425ac       ?fillList@TribeSaveGameScreen@@IAEXXZ 004435ac f scr_save.obj
 0001:00042889       ?action@TribeSaveGameScreen@@MAEJPAVTPanel@@JKK@Z 00443889 f scr_save.obj
 0001:00042c1f       ?save_for_scenario_editor@TribeSaveGameScreen@@IAEXXZ 00443c1f f scr_save.obj
 0001:00042cc0       ?get_work_dir@RGE_Base_Game@@QAEPADXZ 00443cc0 f scr_save.obj
 0001:00042ce0       ??_ETribeSaveGameScreen@@UAEPAXI@Z 00443ce0 f scr_save.obj
 0001:00042ce0       ??_GTribeSaveGameScreen@@UAEPAXI@Z 00443ce0 f scr_save.obj
 0001:00042d20       ??0TRIBE_Action_Heal@@QAE@HPAVRGE_Action_Object@@@Z 00443d20 f tact_hea.obj
 0001:00042da4       ??0TRIBE_Action_Heal@@QAE@PAVRGE_Action_Object@@PAVRGE_Task@@PAVRGE_Static_Object@@@Z 00443da4 f tact_hea.obj
 0001:00042e5d       ??0TRIBE_Action_Heal@@QAE@PAVRGE_Action_Object@@PAVRGE_Task@@MMM@Z 00443e5d f tact_hea.obj
 0001:00042f01       ?first_in_stack@TRIBE_Action_Heal@@UAEXE@Z 00443f01 f tact_hea.obj
 0001:00042f64       ?set_state@TRIBE_Action_Heal@@MAEXE@Z 00443f64 f tact_hea.obj
 0001:00043295       ?update@TRIBE_Action_Heal@@UAEEXZ 00444295 f tact_hea.obj
 0001:0004372a       ?work@TRIBE_Action_Heal@@UAEHPAVRGE_Static_Object@@MMM@Z 0044472a f tact_hea.obj
 0001:000437f0       ??_GTRIBE_Action_Heal@@UAEPAXI@Z 004447f0 f tact_hea.obj
 0001:000437f0       ??_ETRIBE_Action_Heal@@UAEPAXI@Z 004447f0 f tact_hea.obj
 0001:00043830       ??1TRIBE_Action_Heal@@UAE@XZ 00444830 f tact_hea.obj
 0001:00043890       ??0TRIBE_Building_Object@@QAE@PAVTRIBE_Master_Building_Object@@PAVRGE_Player@@MMMHH@Z 00444890 f t_b_obj.obj
 0001:00043949       ??0TRIBE_Building_Object@@QAE@PAVTRIBE_Master_Building_Object@@PAVRGE_Player@@MMMH@Z 00444949 f t_b_obj.obj
 0001:00043a03       ??0TRIBE_Building_Object@@QAE@HPAVRGE_Game_World@@H@Z 00444a03 f t_b_obj.obj
 0001:00043a98       ??1TRIBE_Building_Object@@UAE@XZ 00444a98 f t_b_obj.obj
 0001:00043b00       ?setup@TRIBE_Building_Object@@MAEHPAVTRIBE_Master_Building_Object@@PAVRGE_Player@@MMM@Z 00444b00 f t_b_obj.obj
 0001:00043bdf       ?setup@TRIBE_Building_Object@@MAEHHPAVRGE_Game_World@@@Z 00444bdf f t_b_obj.obj
 0001:00043c58       ?take_building_attribute_from_owner@TRIBE_Building_Object@@UAEXXZ 00444c58 f t_b_obj.obj
 0001:00043cf2       ?give_building_attribute_to_owner@TRIBE_Building_Object@@UAEXXZ 00444cf2 f t_b_obj.obj
 0001:00043d85       ?destroy_obj@TRIBE_Building_Object@@UAEXXZ 00444d85 f t_b_obj.obj
 0001:00043db1       ?heal@TRIBE_Building_Object@@UAEEM@Z 00444db1 f t_b_obj.obj
 0001:00043e5b       ?set_object_state@TRIBE_Building_Object@@UAEXE@Z 00444e5b f t_b_obj.obj
 0001:00043eac       ?update@TRIBE_Building_Object@@UAEEXZ 00444eac f t_b_obj.obj
 0001:0004426f       ?explore_terrain@TRIBE_Building_Object@@UAEHPAVRGE_Player@@EE@Z 0044526f f t_b_obj.obj
 0001:000442ca       ?save@TRIBE_Building_Object@@UAEXH@Z 004452ca f t_b_obj.obj
 0001:00044333       ?change_ownership@TRIBE_Building_Object@@UAEXPAVRGE_Player@@@Z 00445333 f t_b_obj.obj
 0001:0004447a       ?modify@TRIBE_Building_Object@@UAEXME@Z 0044547a f t_b_obj.obj
 0001:000444db       ?transform@TRIBE_Building_Object@@QAEXPAVTRIBE_Master_Building_Object@@@Z 004454db f t_b_obj.obj
 0001:0004453d       ?check@TRIBE_Building_Object@@QAEJPAPAV1@@Z 0044553d f t_b_obj.obj
 0001:00044711       ?connect@TRIBE_Building_Object@@QAEXXZ 00445711 f t_b_obj.obj
 0001:0004482e       ?connect2@TRIBE_Building_Object@@QAEXXZ 0044582e f t_b_obj.obj
 0001:000448fb       ?lay_down_impassable_terrain@TRIBE_Building_Object@@QAEXXZ 004458fb f t_b_obj.obj
 0001:00044ae2       ?lay_down_passable_terrain@TRIBE_Building_Object@@QAEXXZ 00445ae2 f t_b_obj.obj
 0001:00044cc0       ?build@TRIBE_Building_Object@@QAEEM@Z 00445cc0 f t_b_obj.obj
 0001:00044dc8       ?work_status@TRIBE_Building_Object@@QAEHAAF00PADF@Z 00445dc8 f t_b_obj.obj
 0001:00044e9e       ?get_construction_progress@TRIBE_Building_Object@@QAEFXZ 00445e9e f t_b_obj.obj
 0001:00044f12       ?copy_obj@TRIBE_Building_Object@@UAEXPAVRGE_Master_Static_Object@@@Z 00445f12 f t_b_obj.obj
 0001:00044f54       ?rotate@TRIBE_Building_Object@@UAEXJ@Z 00445f54 f t_b_obj.obj
 0001:00044f6c       ?damage@TRIBE_Building_Object@@UAEXHPAURGE_Armor_Weapon_Info@@MPAVRGE_Player@@PAVRGE_Static_Object@@@Z 00445f6c f t_b_obj.obj
 0001:00044fc0       ??_ETRIBE_Building_Object@@UAEPAXI@Z 00445fc0 f t_b_obj.obj
 0001:00044fc0       ??_GTRIBE_Building_Object@@UAEPAXI@Z 00445fc0 f t_b_obj.obj
 0001:00045000       ?get_action_type@RGE_Action@@QAEFXZ 00446000 f t_b_obj.obj
 0001:00045020       ??0TRIBE_Panel_Inven@@QAE@PAVTDrawArea@@PAVTPanel@@PAXPAVTRIBE_Player@@@Z 00446020 f tpnl_inv.obj
 0001:00045144       ?set_text_color@TRIBE_Panel_Inven@@QAEXKK@Z 00446144 f tpnl_inv.obj
 0001:00045181       ??1TRIBE_Panel_Inven@@UAE@XZ 00446181 f tpnl_inv.obj
 0001:00045268       ?draw@TRIBE_Panel_Inven@@UAEXXZ 00446268 f tpnl_inv.obj
 0001:0004563c       ?handle_idle@TRIBE_Panel_Inven@@UAEJXZ 0044663c f tpnl_inv.obj
 0001:0004573a       ?set_player@TRIBE_Panel_Inven@@QAEXPAVTRIBE_Player@@@Z 0044673a f tpnl_inv.obj
 0001:00045773       ?save_info@TRIBE_Panel_Inven@@IAEXXZ 00446773 f tpnl_inv.obj
 0001:00045870       ??_ETRIBE_Panel_Inven@@UAEPAXI@Z 00446870 f tpnl_inv.obj
 0001:00045870       ??_GTRIBE_Panel_Inven@@UAEPAXI@Z 00446870 f tpnl_inv.obj
 0001:000458b0       ?get_game_running@RGE_Base_Game@@QAEHXZ 004468b0 f tpnl_inv.obj
 0001:00045900       ??0TribeBuildAIModule@@QAE@PAXH@Z 00446900 f taibldmd.obj
 0001:00045986       ??1TribeBuildAIModule@@UAE@XZ 00446986 f taibldmd.obj
 0001:000459ee       ?setMainDecisionAI@TribeBuildAIModule@@QAEXPAVTribeMainDecisionAIModule@@@Z 004469ee f taibldmd.obj
 0001:00045a12       ?nextBuilding@TribeBuildAIModule@@QAEPAVConstructionItem@@XZ 00446a12 f taibldmd.obj
 0001:00045bb8       ?nextTrain@TribeBuildAIModule@@QAEHPAH00@Z 00446bb8 f taibldmd.obj
 0001:00045d44       ?nextResearch@TribeBuildAIModule@@QAEHPAH00@Z 00446d44 f taibldmd.obj
 0001:00045ed0       ?nextBuildListItem@TribeBuildAIModule@@QAEPAVBuildItem@@H@Z 00446ed0 f taibldmd.obj
 0001:00045faa       ?nextBuildListItemCategory@TribeBuildAIModule@@QAEHXZ 00446faa f taibldmd.obj
 0001:0004603a       ?blockingResource@TribeBuildAIModule@@QAEHXZ 0044703a f taibldmd.obj
 0001:000460c9       ?mostNeededResource@TribeBuildAIModule@@QAEHHH@Z 004470c9 f taibldmd.obj
 0001:00046216       ?addItem@TribeBuildAIModule@@UAEHPAVAIModuleMessage@@@Z 00447216 f taibldmd.obj
 0001:0004636b       ?addBuiltItem@TribeBuildAIModule@@UAEHPAVAIModuleMessage@@@Z 0044736b f taibldmd.obj
 0001:00046504       ?removeBuiltItem@TribeBuildAIModule@@UAEHPAVAIModuleMessage@@@Z 00447504 f taibldmd.obj
 0001:0004665f       ?cancelBuildItem@TribeBuildAIModule@@UAEHPAVAIModuleMessage@@@Z 0044765f f taibldmd.obj
 0001:000469c1       ?addTrainedUnit@TribeBuildAIModule@@UAEHPAVAIModuleMessage@@@Z 004479c1 f taibldmd.obj
 0001:00046a4a       ?removeTrainedUnit@TribeBuildAIModule@@UAEHPAVAIModuleMessage@@@Z 00447a4a f taibldmd.obj
 0001:00046a67       ?cancelTrainUnit@TribeBuildAIModule@@UAEHPAVAIModuleMessage@@@Z 00447a67 f taibldmd.obj
 0001:00046b3e       ?addResearch@TribeBuildAIModule@@UAEHPAVAIModuleMessage@@@Z 00447b3e f taibldmd.obj
 0001:00046bc7       ?removeResearch@TribeBuildAIModule@@UAEHPAVAIModuleMessage@@@Z 00447bc7 f taibldmd.obj
 0001:00046be4       ?cancelResearch@TribeBuildAIModule@@UAEHPAVAIModuleMessage@@@Z 00447be4 f taibldmd.obj
 0001:00046cd0       ??_GTribeBuildAIModule@@UAEPAXI@Z 00447cd0 f taibldmd.obj
 0001:00046cd0       ??_ETribeBuildAIModule@@UAEPAXI@Z 00447cd0 f taibldmd.obj
 0001:00046d10       ?get_target_task@TRIBE_Task_List@@UAEPAVRGE_Task@@PAVRGE_Action_Object@@PAVRGE_Static_Object@@MMM@Z 00447d10 f ttsk_lst.obj
 0001:00047150       ??0TCommunications_Services@@QAE@XZ 00448150 f com_serv.obj
 0001:00047226       ??1TCommunications_Services@@QAE@XZ 00448226 f com_serv.obj
 0001:0004724f       ?GetServiceCount@TCommunications_Services@@QAEHXZ 0044824f f com_serv.obj
 0001:0004726e       ?IncServiceCount@TCommunications_Services@@QAEHXZ 0044826e f com_serv.obj
 0001:00047296       ?GetServiceName@TCommunications_Services@@QAEPADH@Z 00448296 f com_serv.obj
 0001:000472dd       ?SetServiceName@TCommunications_Services@@QAEHHPAD@Z 004482dd f com_serv.obj
 0001:0004732e       ?GetServiceGUID@TCommunications_Services@@QAE?AU_GUID@@H@Z 0044832e f com_serv.obj
 0001:00047372       ?EnumServiceGUID@TCommunications_Services@@QAEXHPAU_GUID@@@Z 00448372 f com_serv.obj
 0001:000473be       ?GetServiceActive@TCommunications_Services@@QAEHH@Z 004483be f com_serv.obj
 0001:0004743e       ?SetServiceActive@TCommunications_Services@@QAEXHH@Z 0044843e f com_serv.obj
 0001:000474bf       ?DPEnumCallback@@YGHPAU_GUID@@PADKKPAX@Z 004484bf f com_serv.obj
 0001:00047560       ??0RGE_Master_Animated_Object@@QAE@PAV0@H@Z 00448560 f m_an_obj.obj
 0001:000475ed       ??0RGE_Master_Animated_Object@@QAE@HPAPAVRGE_Sprite@@PAPAVRGE_Sound@@H@Z 004485ed f m_an_obj.obj
 0001:0004768a       ??0RGE_Master_Animated_Object@@QAE@PAU_iobuf@@PAPAVRGE_Sprite@@PAPAVRGE_Sound@@FH@Z 0044868a f m_an_obj.obj
 0001:0004772f       ?setup@RGE_Master_Animated_Object@@IAEHPAV1@@Z 0044872f f m_an_obj.obj
 0001:00047771       ?setup@RGE_Master_Animated_Object@@IAEHHPAPAVRGE_Sprite@@PAPAVRGE_Sound@@@Z 00448771 f m_an_obj.obj
 0001:000477c0       ?setup@RGE_Master_Animated_Object@@IAEHPAU_iobuf@@PAPAVRGE_Sprite@@PAPAVRGE_Sound@@F@Z 004487c0 f m_an_obj.obj
 0001:0004783d       ??1RGE_Master_Animated_Object@@UAE@XZ 0044883d f m_an_obj.obj
 0001:000478a5       ?make_new_obj@RGE_Master_Animated_Object@@UAEPAVRGE_Static_Object@@PAVRGE_Player@@MMM@Z 004488a5 f m_an_obj.obj
 0001:00047951       ?make_new_master@RGE_Master_Animated_Object@@UAEPAVRGE_Master_Static_Object@@XZ 00448951 f m_an_obj.obj
 0001:000479eb       ?copy_obj@RGE_Master_Animated_Object@@UAEXPAVRGE_Master_Static_Object@@@Z 004489eb f m_an_obj.obj
 0001:00047a27       ?modify@RGE_Master_Animated_Object@@UAEXME@Z 00448a27 f m_an_obj.obj
 0001:00047a86       ?modify_delta@RGE_Master_Animated_Object@@UAEXME@Z 00448a86 f m_an_obj.obj
 0001:00047aee       ?modify_percent@RGE_Master_Animated_Object@@UAEXME@Z 00448aee f m_an_obj.obj
 0001:00047b56       ?save@RGE_Master_Animated_Object@@UAEXH@Z 00448b56 f m_an_obj.obj
 0001:00047ba0       ??_ERGE_Master_Animated_Object@@UAEPAXI@Z 00448ba0 f m_an_obj.obj
 0001:00047ba0       ??_GRGE_Master_Animated_Object@@UAEPAXI@Z 00448ba0 f m_an_obj.obj
 0001:00047be0       ??0BuildItem@@QAE@XZ       00448be0 f aiblditm.obj
 0001:00047ce9       ??0BuildItem@@QAE@HHHHHHPADMMMHHHH@Z 00448ce9 f aiblditm.obj
 0001:00047e15       ??0BuildItem@@QAE@PAV0@@Z  00448e15 f aiblditm.obj
 0001:00047f52       ??0BuildItem@@QAE@ABV0@@Z  00448f52 f aiblditm.obj
 0001:0004808f       ??1BuildItem@@UAE@XZ       0044908f f aiblditm.obj
 0001:000480f7       ??8@YAHABVBuildItem@@0@Z   004490f7 f aiblditm.obj
 0001:00048125       ??9@YAHABVBuildItem@@0@Z   00449125 f aiblditm.obj
 0001:00048153       ??M@YAHABVBuildItem@@0@Z   00449153 f aiblditm.obj
 0001:00048181       ??O@YAHABVBuildItem@@0@Z   00449181 f aiblditm.obj
 0001:000481af       ?buildCategory@BuildItem@@QBEHXZ 004491af f aiblditm.obj
 0001:000481cb       ?number@BuildItem@@QBEHXZ  004491cb f aiblditm.obj
 0001:000481e7       ?priority@BuildItem@@QBEHXZ 004491e7 f aiblditm.obj
 0001:00048203       ?inProgress@BuildItem@@QBEHXZ 00449203 f aiblditm.obj
 0001:00048222       ?built@BuildItem@@QBEHXZ   00449222 f aiblditm.obj
 0001:00048241       ?buildAttempts@BuildItem@@QBEHXZ 00449241 f aiblditm.obj
 0001:00048260       ?buildFrom@BuildItem@@QBEHXZ 00449260 f aiblditm.obj
 0001:0004827f       ?terrainSet@BuildItem@@QBEHXZ 0044927f f aiblditm.obj
 0001:0004829e       ?terrainAdjacency@BuildItem@@QBEHH@Z 0044929e f aiblditm.obj
 0001:000482e1       ?placeOnElevation@BuildItem@@QBEHXZ 004492e1 f aiblditm.obj
 0001:00048300       ?setInProgress@BuildItem@@QAEXH@Z 00449300 f aiblditm.obj
 0001:00048324       ?setBuilt@BuildItem@@QAEXH@Z 00449324 f aiblditm.obj
 0001:00048348       ?incrementBuildAttempts@BuildItem@@QAEXXZ 00449348 f aiblditm.obj
 0001:00048370       ??_EBuildItem@@UAEPAXI@Z   00449370 f aiblditm.obj
 0001:00048370       ??_GBuildItem@@UAEPAXI@Z   00449370 f aiblditm.obj
 0001:000483b0       ??0UnitAIModule@@QAE@PAVRGE_Static_Object@@H@Z 004493b0 f aiuaimod.obj
 0001:0004865e       ??1UnitAIModule@@UAE@XZ    0044965e f aiuaimod.obj
 0001:000487ff       ?save@UnitAIModule@@UAEXH@Z 004497ff f aiuaimod.obj
 0001:00048c9f       ?load@UnitAIModule@@UAEXH@Z 00449c9f f aiuaimod.obj
 0001:00049098       ?owner@UnitAIModule@@UBEPAVRGE_Player@@XZ 0044a098 f aiuaimod.obj
 0001:000490b7       ?object@UnitAIModule@@QBEPAVRGE_Static_Object@@XZ 0044a0b7 f aiuaimod.obj
 0001:000490d3       ?objectID@UnitAIModule@@QBEHXZ 0044a0d3 f aiuaimod.obj
 0001:000490ef       ?objectCategory@UnitAIModule@@QBEHXZ 0044a0ef f aiuaimod.obj
 0001:0004910b       ?mood@UnitAIModule@@QBEHXZ 0044a10b f aiuaimod.obj
 0001:00049127       ?lastUpdateTime@UnitAIModule@@QBEKXZ 0044a127 f aiuaimod.obj
 0001:00049146       ?idleTimer@UnitAIModule@@QBEKXZ 0044a146 f aiuaimod.obj
 0001:00049165       ?idleTimeout@UnitAIModule@@QBEKXZ 0044a165 f aiuaimod.obj
 0001:00049184       ?defenseBuffer@UnitAIModule@@QBEMXZ 0044a184 f aiuaimod.obj
 0001:000491a3       ?setDefenseBuffer@UnitAIModule@@QAEXM@Z 0044a1a3 f aiuaimod.obj
 0001:000491c7       ?groupID@UnitAIModule@@QBEHXZ 0044a1c7 f aiuaimod.obj
 0001:000491e3       ?setGroupID@UnitAIModule@@QAEXH@Z 0044a1e3 f aiuaimod.obj
 0001:00049204       ?orderQueueSize@UnitAIModule@@QBEHXZ 0044a204 f aiuaimod.obj
 0001:00049220       ?orderQueueElement@UnitAIModule@@QBEPAUOrderEvent@@H@Z 0044a220 f aiuaimod.obj
 0001:00049278       ?removeFromOrderQueue@UnitAIModule@@QAEHH@Z 0044a278 f aiuaimod.obj
 0001:00049408       ?purgeOrderQueue@UnitAIModule@@QAEXXZ 0044a408 f aiuaimod.obj
 0001:00049428       ?currentOrder@UnitAIModule@@QBEHXZ 0044a428 f aiuaimod.obj
 0001:00049444       ?setCurrentOrder@UnitAIModule@@QAEXH@Z 0044a444 f aiuaimod.obj
 0001:00049471       ?currentAction@UnitAIModule@@QBEHXZ 0044a471 f aiuaimod.obj
 0001:0004948d       ?setCurrentAction@UnitAIModule@@QAEXH@Z 0044a48d f aiuaimod.obj
 0001:000494ba       ?currentTarget@UnitAIModule@@QBEHXZ 0044a4ba f aiuaimod.obj
 0001:000494d6       ?currentTargetType@UnitAIModule@@QBEHXZ 0044a4d6 f aiuaimod.obj
 0001:000494f2       ?currentTargetX@UnitAIModule@@QBEMXZ 0044a4f2 f aiuaimod.obj
 0001:0004950e       ?currentTargetY@UnitAIModule@@QBEMXZ 0044a50e f aiuaimod.obj
 0001:0004952a       ?currentTargetZ@UnitAIModule@@QBEMXZ 0044a52a f aiuaimod.obj
 0001:00049546       ?lastAction@UnitAIModule@@QBEHXZ 0044a546 f aiuaimod.obj
 0001:00049562       ?lastOrder@UnitAIModule@@QBEHXZ 0044a562 f aiuaimod.obj
 0001:0004957e       ?lastTarget@UnitAIModule@@QBEHXZ 0044a57e f aiuaimod.obj
 0001:0004959a       ?lastTargetType@UnitAIModule@@QBEHXZ 0044a59a f aiuaimod.obj
 0001:000495b6       ?desiredTargetDistance@UnitAIModule@@QBEMXZ 0044a5b6 f aiuaimod.obj
 0001:000495d2       ?attackingUnitID@UnitAIModule@@QAEHH@Z 0044a5d2 f aiuaimod.obj
 0001:00049623       ?numberAttackingUnits@UnitAIModule@@QBEHXZ 0044a623 f aiuaimod.obj
 0001:00049644       ?update@UnitAIModule@@UAEHK@Z 0044a644 f aiuaimod.obj
 0001:000498b9       ?order@UnitAIModule@@UAEHHHHHMMMHH@Z 0044a8b9 f aiuaimod.obj
 0001:0004997c       ?notify@UnitAIModule@@UAEHHHHJJJ@Z 0044a97c f aiuaimod.obj
 0001:00049a61       ?notifyCommander@UnitAIModule@@UAEHPAUNotifyEvent@@@Z 0044aa61 f aiuaimod.obj
 0001:00049aad       ?notifyCommander@UnitAIModule@@UAEHHHHJJJ@Z 0044aaad f aiuaimod.obj
 0001:00049b46       ?search@UnitAIModule@@UAEHXZ 0044ab46 f aiuaimod.obj
 0001:00049f3c       ?importantWhenDead@UnitAIModule@@UAEHH@Z 0044af3c f aiuaimod.obj
 0001:00049f56       ?retryableOrder@UnitAIModule@@UAEHH@Z 0044af56 f aiuaimod.obj
 0001:00049f70       ?actionRequiresLiveTarget@UnitAIModule@@UAEHH@Z 0044af70 f aiuaimod.obj
 0001:00049fd5       ?bestUnitToAttack@UnitAIModule@@UAEHPAM@Z 0044afd5 f aiuaimod.obj
 0001:0004a1a0       ?mostDangerousEnemy@UnitAIModule@@UAEHPAM@Z 0044b1a0 f aiuaimod.obj
 0001:0004a356       ?weakestEnemy@UnitAIModule@@UAEHPAM@Z 0044b356 f aiuaimod.obj
 0001:0004a4b2       ?closestAttacker@UnitAIModule@@UAEHPAM@Z 0044b4b2 f aiuaimod.obj
 0001:0004a61a       ?closestObject@UnitAIModule@@UAEHHHHPAM@Z 0044b61a f aiuaimod.obj
 0001:0004a9c2       ?closestUndiscoveredTile@UnitAIModule@@UAEHPAH0H@Z 0044b9c2 f aiuaimod.obj
 0001:0004ac35       ?waypoint@UnitAIModule@@QBEPAUWaypoint@@H@Z 0044bc35 f aiuaimod.obj
 0001:0004ac4f       ?waypointQueueSize@UnitAIModule@@QBEHXZ 0044bc4f f aiuaimod.obj
 0001:0004ac6e       ?addToWaypointQueue@UnitAIModule@@QAEHHH@Z 0044bc6e f aiuaimod.obj
 0001:0004acec       ?inWaypointQueue@UnitAIModule@@QBEHHH@Z 0044bcec f aiuaimod.obj
 0001:0004ad7a       ?clearWaypointQueue@UnitAIModule@@QAEXXZ 0044bd7a f aiuaimod.obj
 0001:0004ad9d       ?canAttackUnit@UnitAIModule@@UAEHH@Z 0044bd9d f aiuaimod.obj
 0001:0004adba       ?stopObject@UnitAIModule@@UAEHXZ 0044bdba f aiuaimod.obj
 0001:0004ae2a       ?attackObject@UnitAIModule@@UAEHHH@Z 0044be2a f aiuaimod.obj
 0001:0004af16       ?huntObject@UnitAIModule@@UAEHHH@Z 0044bf16 f aiuaimod.obj
 0001:0004aff4       ?convertObject@UnitAIModule@@UAEHHH@Z 0044bff4 f aiuaimod.obj
 0001:0004b0d2       ?healObject@UnitAIModule@@UAEHHH@Z 0044c0d2 f aiuaimod.obj
 0001:0004b1ad       ?gatherObject@UnitAIModule@@UAEHHH@Z 0044c1ad f aiuaimod.obj
 0001:0004b28b       ?repairObject@UnitAIModule@@UAEHHH@Z 0044c28b f aiuaimod.obj
 0001:0004b369       ?buildObject@UnitAIModule@@UAEHHH@Z 0044c369 f aiuaimod.obj
 0001:0004b447       ?tradeWithObject@UnitAIModule@@UAEHHH@Z 0044c447 f aiuaimod.obj
 0001:0004b525       ?explore@UnitAIModule@@UAEHHHH@Z 0044c525 f aiuaimod.obj
 0001:0004b5ca       ?enterObject@UnitAIModule@@UAEHHH@Z 0044c5ca f aiuaimod.obj
 0001:0004b5e4       ?transportObject@UnitAIModule@@UAEHMMMH@Z 0044c5e4 f aiuaimod.obj
 0001:0004b5fe       ?moveTo@UnitAIModule@@UAEHHH@Z 0044c5fe f aiuaimod.obj
 0001:0004b6cc       ?moveTo@UnitAIModule@@UAEHHMH@Z 0044c6cc f aiuaimod.obj
 0001:0004b79e       ?moveTo@UnitAIModule@@UAEHMMMH@Z 0044c79e f aiuaimod.obj
 0001:0004b830       ?evasiveMoveTo@UnitAIModule@@UAEHMMMH@Z 0044c830 f aiuaimod.obj
 0001:0004bb49       ?runAwayFromAttackers@UnitAIModule@@UAEHH@Z 0044cb49 f aiuaimod.obj
 0001:0004bc9d       ?followObject@UnitAIModule@@UAEHHMH@Z 0044cc9d f aiuaimod.obj
 0001:0004bd38       ?defendObject@UnitAIModule@@UAEHHMH@Z 0044cd38 f aiuaimod.obj
 0001:0004bddc       ?defendPosition@UnitAIModule@@UAEHMMMH@Z 0044cddc f aiuaimod.obj
 0001:0004be53       ?removeCurrentTarget@UnitAIModule@@QAEXXZ 0044ce53 f aiuaimod.obj
 0001:0004beb3       ?setCurrentTarget@UnitAIModule@@QAEXHMMM@Z 0044ceb3 f aiuaimod.obj
 0001:0004bf3c       ?setCurrentTarget@UnitAIModule@@QAEXHHMMM@Z 0044cf3c f aiuaimod.obj
 0001:0004bf99       ?importantObject@UnitAIModule@@UAEHH@Z 0044cf99 f aiuaimod.obj
 0001:0004c00f       ?processOrder@UnitAIModule@@MAEHPAUOrderEvent@@H@Z 0044d00f f aiuaimod.obj
 0001:0004c196       ?processNotify@UnitAIModule@@MAEHPAUNotifyEvent@@K@Z 0044d196 f aiuaimod.obj
 0001:0004c8c9       ?processIdle@UnitAIModule@@MAEHXZ 0044d8c9 f aiuaimod.obj
 0001:0004cb91       ?processMisc@UnitAIModule@@MAEHXZ 0044db91 f aiuaimod.obj
 0001:0004d073       ?processRetryableOrder@UnitAIModule@@MAEHXZ 0044e073 f aiuaimod.obj
 0001:0004d168       ?addToOrderQueue@UnitAIModule@@IAEHPAUOrderEvent@@H@Z 0044e168 f aiuaimod.obj
 0001:0004d1bc       ?addToOrderQueue@UnitAIModule@@IAEHHHHHMMMH@Z 0044e1bc f aiuaimod.obj
 0001:0004d5df       ?addToNotifyQueue@UnitAIModule@@IAEHPAUNotifyEvent@@@Z 0044e5df f aiuaimod.obj
 0001:0004d628       ?addToNotifyQueue@UnitAIModule@@IAEHHHHJJJ@Z 0044e628 f aiuaimod.obj
 0001:0004d811       ?purgeNotifyQueue@UnitAIModule@@IAEXK@Z 0044e811 f aiuaimod.obj
 0001:0004d83f       ?lookupObject@UnitAIModule@@IAEPAVRGE_Static_Object@@H@Z 0044e83f f aiuaimod.obj
 0001:0004d8a3       ?logDebug@UnitAIModule@@UAAXPADZZ 0044e8a3 f aiuaimod.obj
 0001:0004d920       ??_EUnitAIModule@@UAEPAXI@Z 0044e920 f aiuaimod.obj
 0001:0004d920       ??_GUnitAIModule@@UAEPAXI@Z 0044e920 f aiuaimod.obj
 0001:0004d960       ??0?$ManagedArray@H@@QAE@H@Z 0044e960 f aiuaimod.obj
 0001:0004d9c0       ??1?$ManagedArray@H@@QAE@XZ 0044e9c0 f aiuaimod.obj
 0001:0004da30       ??A?$ManagedArray@H@@QAEAAHH@Z 0044ea30 f aiuaimod.obj
 0001:0004da70       ?contains@?$ManagedArray@H@@QAEHABH@Z 0044ea70 f aiuaimod.obj
 0001:0004dae0       ?add@?$ManagedArray@H@@QAEHH@Z 0044eae0 f aiuaimod.obj
 0001:0004db60       ?number@?$ManagedArray@H@@QBE?BHXZ 0044eb60 f aiuaimod.obj
 0001:0004db80       ?zeroNumber@?$ManagedArray@H@@QAEXXZ 0044eb80 f aiuaimod.obj
 0001:0004dba0       ?resize@?$ManagedArray@H@@IAEHH@Z 0044eba0 f aiuaimod.obj
 0001:0004dc50       ?sqrt@@YAMM@Z              0044ec50 f aiuaimod.obj
 0001:0004dc70       _sqrtf                     0044ec70 f aiuaimod.obj
 0001:0004dca0       ?remove@?$ManagedArray@H@@QAEHH@Z 0044eca0 f aiuaimod.obj
 0001:0004dd60       ??0RGE_Visible_Map@@QAE@PAVRGE_Map@@PAVRGE_Player@@@Z 0044ed60 f visible.obj
 0001:0004de72       ??0RGE_Visible_Map@@QAE@HPAVRGE_Game_World@@@Z 0044ee72 f visible.obj
 0001:0004dfd6       ??1RGE_Visible_Map@@UAE@XZ 0044efd6 f visible.obj
 0001:0004e055       ?width@RGE_Visible_Map@@QBEHXZ 0044f055 f visible.obj
 0001:0004e071       ?height@RGE_Visible_Map@@QBEHXZ 0044f071 f visible.obj
 0001:0004e08d       ?save@RGE_Visible_Map@@QAEXH@Z 0044f08d f visible.obj
 0001:0004e122       ?set_fog@RGE_Visible_Map@@QAEXXZ 0044f122 f visible.obj
 0001:0004e1ae       ?reset_fog@RGE_Visible_Map@@QAEXXZ 0044f1ae f visible.obj
 0001:0004e310       ?visible@RGE_Visible_Map@@QBEEHH@Z 0044f310 f visible.obj
 0001:0004e3f0       ?set_non_visible_border@RGE_Visible_Map@@QAEXHH@Z 0044f3f0 f visible.obj
 0001:0004e408       ?get_visible@RGE_Visible_Map@@QBEEHH@Z 0044f408 f visible.obj
 0001:0004e432       ?set_visible@RGE_Visible_Map@@QAEXHHE@Z 0044f432 f visible.obj
 0001:0004e48f       ?set_all@RGE_Visible_Map@@QAEXE@Z 0044f48f f visible.obj
 0001:0004e538       ?numberTilesExplored@RGE_Visible_Map@@QBEHXZ 0044f538 f visible.obj
 0001:0004e554       ?percentExplored@RGE_Visible_Map@@QBEMXZ 0044f554 f visible.obj
 0001:0004e590       ??_GRGE_Visible_Map@@UAEPAXI@Z 0044f590 f visible.obj
 0001:0004e590       ??_ERGE_Visible_Map@@UAEPAXI@Z 0044f590 f visible.obj
 0001:0004e5d0       ??0TRIBE_Master_Building_Object@@QAE@PAV0@H@Z 0044f5d0 f tm_b_obj.obj
 0001:0004e65d       ??0TRIBE_Master_Building_Object@@QAE@HPAPAVRGE_Sprite@@PAPAVRGE_Sound@@H@Z 0044f65d f tm_b_obj.obj
 0001:0004e6fa       ??0TRIBE_Master_Building_Object@@QAE@PAU_iobuf@@PAPAVRGE_Sprite@@PAPAVRGE_Sound@@FH@Z 0044f6fa f tm_b_obj.obj
 0001:0004e79f       ?setup@TRIBE_Master_Building_Object@@IAEHPAV1@@Z 0044f79f f tm_b_obj.obj
 0001:0004e87b       ?setup@TRIBE_Master_Building_Object@@IAEHHPAPAVRGE_Sprite@@PAPAVRGE_Sound@@@Z 0044f87b f tm_b_obj.obj
 0001:0004e9dc       ?setup@TRIBE_Master_Building_Object@@IAEHPAU_iobuf@@PAPAVRGE_Sprite@@PAPAVRGE_Sound@@F@Z 0044f9dc f tm_b_obj.obj
 0001:0004eae2       ??1TRIBE_Master_Building_Object@@UAE@XZ 0044fae2 f tm_b_obj.obj
 0001:0004eb4a       ?copy_obj@TRIBE_Master_Building_Object@@UAEXPAVRGE_Master_Static_Object@@@Z 0044fb4a f tm_b_obj.obj
 0001:0004ec20       ?modify@TRIBE_Master_Building_Object@@UAEXME@Z 0044fc20 f tm_b_obj.obj
 0001:0004ec85       ?modify_delta@TRIBE_Master_Building_Object@@UAEXME@Z 0044fc85 f tm_b_obj.obj
 0001:0004ecf9       ?modify_percent@TRIBE_Master_Building_Object@@UAEXME@Z 0044fcf9 f tm_b_obj.obj
 0001:0004ed21       ?save@TRIBE_Master_Building_Object@@UAEXH@Z 0044fd21 f tm_b_obj.obj
 0001:0004ee62       ?make_new_obj@TRIBE_Master_Building_Object@@UAEPAVRGE_Static_Object@@PAVRGE_Player@@MMMH@Z 0044fe62 f tm_b_obj.obj
 0001:0004ef12       ?make_new_obj@TRIBE_Master_Building_Object@@UAEPAVRGE_Static_Object@@PAVRGE_Player@@MMM@Z 0044ff12 f tm_b_obj.obj
 0001:0004efbe       ?make_new_master@TRIBE_Master_Building_Object@@UAEPAVRGE_Master_Static_Object@@XZ 0044ffbe f tm_b_obj.obj
 0001:0004f058       ?draw@TRIBE_Master_Building_Object@@UAEXPAVTDrawArea@@FFPAVRGE_Color_Table@@JJ@Z 00450058 f tm_b_obj.obj
 0001:0004f0ac       ?alignment@TRIBE_Master_Building_Object@@UAEEAAM0PAVRGE_Game_World@@E@Z 004500ac f tm_b_obj.obj
 0001:0004f0e0       ??_GTRIBE_Master_Building_Object@@UAEPAXI@Z 004500e0 f tm_b_obj.obj
 0001:0004f0e0       ??_ETRIBE_Master_Building_Object@@UAEPAXI@Z 004500e0 f tm_b_obj.obj
 0001:0004f120       ??0TRIBE_Dialog_List@@QAE@PAD@Z 00450120 f tdlg_lst.obj
 0001:0004f195       ?create_list@TRIBE_Dialog_List@@MAEHXZ 00450195 f tdlg_lst.obj
 0001:0004f213       ?create_build_list@TRIBE_Dialog_List@@IAEHXZ 00450213 f tdlg_lst.obj
 0001:0004f362       ?create_train_list@TRIBE_Dialog_List@@IAEHXZ 00450362 f tdlg_lst.obj
 0001:0004f4c8       ?create_research_list@TRIBE_Dialog_List@@IAEHXZ 004504c8 f tdlg_lst.obj
 0001:0004f62e       ?get_cur_id@TRIBE_Dialog_List@@MAEFXZ 0045062e f tdlg_lst.obj
 0001:0004f6a0       ?get_list_name@TListDialog@@UAEPADXZ 004506a0 f tdlg_lst.obj
 0001:0004f6c0       ??_ETRIBE_Dialog_List@@UAEPAXI@Z 004506c0 f tdlg_lst.obj
 0001:0004f6c0       ??_GTRIBE_Dialog_List@@UAEPAXI@Z 004506c0 f tdlg_lst.obj
 0001:0004f700       ??1TRIBE_Dialog_List@@UAE@XZ 00450700 f tdlg_lst.obj
 0001:0004f760       ??0TMousePointer@@QAE@XZ   00450760 f Mouseptr.obj
 0001:0004f8a0       ??1TMousePointer@@QAE@XZ   004508a0 f Mouseptr.obj
 0001:0004f8fd       ?setup@TMousePointer@@QAEHHPAVTDrawArea@@PAD@Z 004508fd f Mouseptr.obj
 0001:0004fbf8       ?delete_surfaces@TMousePointer@@QAEXXZ 00450bf8 f Mouseptr.obj
 0001:0004fc66       ?create_surfaces@TMousePointer@@QAEHXZ 00450c66 f Mouseptr.obj
 0001:0004fd67       ?update_mouse@TMousePointer@@QAEXXZ 00450d67 f Mouseptr.obj
 0001:0004fdcb       ?calc_rect@TMousePointer@@QAEHXZ 00450dcb f Mouseptr.obj
 0001:0005005a       ?draw@TMousePointer@@QAEXXZ 0045105a f Mouseptr.obj
 0001:00050122       ?paint@TMousePointer@@QAEXXZ 00451122 f Mouseptr.obj
 0001:000501cb       ?erase@TMousePointer@@QAEXXZ 004511cb f Mouseptr.obj
 0001:00050256       ?set_facet@TMousePointer@@QAEXF@Z 00451256 f Mouseptr.obj
 0001:00050282       ?off@TMousePointer@@QAEXXZ 00451282 f Mouseptr.obj
 0001:000502f4       ?on@TMousePointer@@QAEXXZ  004512f4 f Mouseptr.obj
 0001:00050334       ?reset@TMousePointer@@QAEXXZ 00451334 f Mouseptr.obj
 0001:00050360       ??0TRIBE_Dialog_Sed_Menu@@QAE@PAVTRIBE_Screen_Sed@@@Z 00451360 f dlg_sedm.obj
 0001:0005053c       ??1TRIBE_Dialog_Sed_Menu@@UAE@XZ 0045153c f dlg_sedm.obj
 0001:000505ea       ?action@TRIBE_Dialog_Sed_Menu@@UAEJPAVTPanel@@JKK@Z 004515ea f dlg_sedm.obj
 0001:000506c0       ?set_button_font@TDialogPanel@@QAEXH@Z 004516c0 f dlg_sedm.obj
 0001:000506f0       ??_ETRIBE_Dialog_Sed_Menu@@UAEPAXI@Z 004516f0 f dlg_sedm.obj
 0001:000506f0       ??_GTRIBE_Dialog_Sed_Menu@@UAEPAXI@Z 004516f0 f dlg_sedm.obj
 0001:00050730       ??0RGE_Action_Bird@@QAE@HPAVRGE_Action_Object@@@Z 00451730 f act_bird.obj
 0001:000507b4       ??0RGE_Action_Bird@@QAE@PAVRGE_Action_Object@@PAVRGE_Task@@MMM@Z 004517b4 f act_bird.obj
 0001:00050858       ?first_in_stack@RGE_Action_Bird@@UAEXE@Z 00451858 f act_bird.obj
 0001:000508c8       ?set_state@RGE_Action_Bird@@MAEXE@Z 004518c8 f act_bird.obj
 0001:00050a0a       ?update@RGE_Action_Bird@@UAEEXZ 00451a0a f act_bird.obj
 0001:00050cc0       ??_ERGE_Action_Bird@@UAEPAXI@Z 00451cc0 f act_bird.obj
 0001:00050cc0       ??_GRGE_Action_Bird@@UAEPAXI@Z 00451cc0 f act_bird.obj
 0001:00050d00       ??1RGE_Action_Bird@@UAE@XZ 00451d00 f act_bird.obj
 0001:00050d60       ??0UnitAIGroup@@QAE@XZ     00451d60 f aiuaigrp.obj
 0001:00050e31       ??0UnitAIGroup@@QAE@PAVRGE_Player@@@Z 00451e31 f aiuaigrp.obj
 0001:00050efc       ??0UnitAIGroup@@QAE@PAVRGE_Player@@H@Z 00451efc f aiuaigrp.obj
 0001:00050fc6       ??1UnitAIGroup@@UAE@XZ     00451fc6 f aiuaigrp.obj
 0001:00051052       ?save@UnitAIGroup@@UAEXH@Z 00452052 f aiuaigrp.obj
 0001:0005111b       ?load@UnitAIGroup@@UAEXH@Z 0045211b f aiuaigrp.obj
 0001:000511bd       ?inUse@UnitAIGroup@@QBEHXZ 004521bd f aiuaigrp.obj
 0001:000511dc       ?setInUse@UnitAIGroup@@QAEXH@Z 004521dc f aiuaigrp.obj
 0001:00051200       ?owner@UnitAIGroup@@UBEPAVRGE_Player@@XZ 00452200 f aiuaigrp.obj
 0001:0005121f       ?setOwner@UnitAIGroup@@QAEXPAVRGE_Player@@@Z 0045221f f aiuaigrp.obj
 0001:00051243       ?id@UnitAIGroup@@QBEHXZ    00452243 f aiuaigrp.obj
 0001:00051262       ?size@UnitAIGroup@@QBEHXZ  00452262 f aiuaigrp.obj
 0001:00051286       ?member@UnitAIGroup@@QAEHH@Z 00452286 f aiuaigrp.obj
 0001:000512dd       ?add@UnitAIGroup@@QAEHH@Z  004522dd f aiuaigrp.obj
 0001:00051307       ?remove@UnitAIGroup@@QAEHH@Z 00452307 f aiuaigrp.obj
 0001:00051381       ?purgeMembers@UnitAIGroup@@QAEXXZ 00452381 f aiuaigrp.obj
 0001:00051414       ?commandingUnitID@UnitAIGroup@@QBEHXZ 00452414 f aiuaigrp.obj
 0001:00051433       ?setCommandingUnitID@UnitAIGroup@@QAEXH@Z 00452433 f aiuaigrp.obj
 0001:00051457       ?selectNewCommandingUnit@UnitAIGroup@@QAEHXZ 00452457 f aiuaigrp.obj
 0001:000514b7       ?update@UnitAIGroup@@UAEHKPAVUnitAIModule@@@Z 004524b7 f aiuaigrp.obj
 0001:00051769       ?order@UnitAIGroup@@UAEHHHHHMMMH@Z 00452769 f aiuaigrp.obj
 0001:000517ae       ?notify@UnitAIGroup@@UAEHHHHJJJ@Z 004527ae f aiuaigrp.obj
 0001:000517e6       ?search@UnitAIGroup@@UAEHXZ 004527e6 f aiuaigrp.obj
 0001:00051807       ?bestUnitToAttack@UnitAIGroup@@UAEHPAM@Z 00452807 f aiuaigrp.obj
 0001:00051871       ?mostDangerousEnemy@UnitAIGroup@@UAEHPAM@Z 00452871 f aiuaigrp.obj
 0001:000518db       ?weakestEnemy@UnitAIGroup@@UAEHPAM@Z 004528db f aiuaigrp.obj
 0001:00051945       ?closestEnemy@UnitAIGroup@@UAEHPAM@Z 00452945 f aiuaigrp.obj
 0001:000519b5       ?logDebug@UnitAIGroup@@UAAXPADZZ 004529b5 f aiuaigrp.obj
 0001:00051a52       ?stopObject@UnitAIGroup@@UAEHXZ 00452a52 f aiuaigrp.obj
 0001:00051ae7       ?attackObject@UnitAIGroup@@UAEHHH@Z 00452ae7 f aiuaigrp.obj
 0001:00051c73       ?moveTo@UnitAIGroup@@UAEHHH@Z 00452c73 f aiuaigrp.obj
 0001:00051c8d       ?moveTo@UnitAIGroup@@UAEHMMMH@Z 00452c8d f aiuaigrp.obj
 0001:00051cb0       ??_EUnitAIGroup@@UAEPAXI@Z 00452cb0 f aiuaigrp.obj
 0001:00051cb0       ??_GUnitAIGroup@@UAEPAXI@Z 00452cb0 f aiuaigrp.obj
 0001:00051cf0       ??0TRIBE_Panel_Text_Line@@QAE@PAVTDrawArea@@PAVTPanel@@PAX@Z 00452cf0 f tpnl_txl.obj
 0001:00051dc2       ?set_info@TRIBE_Panel_Text_Line@@QAEXEPADJ@Z 00452dc2 f tpnl_txl.obj
 0001:00051e60       ?draw@TRIBE_Panel_Text_Line@@UAEXXZ 00452e60 f tpnl_txl.obj
 0001:00051fa0       ??_GTRIBE_Panel_Text_Line@@UAEPAXI@Z 00452fa0 f tpnl_txl.obj
 0001:00051fa0       ??_ETRIBE_Panel_Text_Line@@UAEPAXI@Z 00452fa0 f tpnl_txl.obj
 0001:00051fe0       ??1TRIBE_Panel_Text_Line@@UAE@XZ 00452fe0 f tpnl_txl.obj
 0001:00052040       ??0TRIBE_Screen_Campaign_Selection@@QAE@XZ 00453040 f scr_cams.obj
 0001:00052559       ?init_vars@TRIBE_Screen_Campaign_Selection@@IAEXXZ 00453559 f scr_cams.obj
 0001:000525f1       ??1TRIBE_Screen_Campaign_Selection@@UAE@XZ 004535f1 f scr_cams.obj
 0001:000526f2       ?handle_idle@TRIBE_Screen_Campaign_Selection@@UAEJXZ 004536f2 f scr_cams.obj
 0001:0005274f       ?action@TRIBE_Screen_Campaign_Selection@@MAEJPAVTPanel@@JKK@Z 0045374f f scr_cams.obj
 0001:0005291b       ?fillCampaigns@TRIBE_Screen_Campaign_Selection@@IAEXXZ 0045391b f scr_cams.obj
 0001:00052b39       ?fillScenarios@TRIBE_Screen_Campaign_Selection@@IAEXXZ 00453b39 f scr_cams.obj
 0001:00052d23       ?startGame@TRIBE_Screen_Campaign_Selection@@IAEXXZ 00453d23 f scr_cams.obj
 0001:00052f80       ??_ETRIBE_Screen_Campaign_Selection@@UAEPAXI@Z 00453f80 f scr_cams.obj
 0001:00052f80       ??_GTRIBE_Screen_Campaign_Selection@@UAEPAXI@Z 00453f80 f scr_cams.obj
 0001:00052fc0       ?get_player_game_info@RGE_Base_Game@@QAEPAVRGE_Game_Info@@XZ 00453fc0 f scr_cams.obj
 0001:00052fe0       ??0TribeSendMessageDialog@@QAE@PAVTPanel@@@Z 00453fe0 f dlg_smsg.obj
 0001:000543ec       ??1TribeSendMessageDialog@@UAE@XZ 004553ec f dlg_smsg.obj
 0001:000545d9       ?action@TribeSendMessageDialog@@MAEJPAVTPanel@@JKK@Z 004555d9 f dlg_smsg.obj
 0001:000547ef       ?checkButtons@TribeSendMessageDialog@@IAEXXZ 004557ef f dlg_smsg.obj
 0001:00054875       ?draw@TribeSendMessageDialog@@UAEXXZ 00455875 f dlg_smsg.obj
 0001:00054981       ??0TribeSendQuickMessageDialog@@QAE@PAVTPanel@@W4Mode@0@@Z 00455981 f dlg_smsg.obj
 0001:00054d1f       ??1TribeSendQuickMessageDialog@@UAE@XZ 00455d1f f dlg_smsg.obj
 0001:00054e1e       ?action@TribeSendQuickMessageDialog@@MAEJPAVTPanel@@JKK@Z 00455e1e f dlg_smsg.obj
 0001:00054f30       ?draw@TribeSendQuickMessageDialog@@UAEXXZ 00455f30 f dlg_smsg.obj
 0001:00055040       ??_GTribeSendMessageDialog@@UAEPAXI@Z 00456040 f dlg_smsg.obj
 0001:00055040       ??_ETribeSendMessageDialog@@UAEPAXI@Z 00456040 f dlg_smsg.obj
 0001:00055080       ??_GTribeSendQuickMessageDialog@@UAEPAXI@Z 00456080 f dlg_smsg.obj
 0001:00055080       ??_ETribeSendQuickMessageDialog@@UAEPAXI@Z 00456080 f dlg_smsg.obj
 0001:000550c0       ?StopIfSyncFail@TCommunications_Handler@@QAEXH@Z 004560c0 f Com_hand.obj
 0001:000550f0       ?ShowSyncChatMsgs@TCommunications_Handler@@QAEXH@Z 004560f0 f Com_hand.obj
 0001:00055110       ?DropPacketsIntentionally@TCommunications_Handler@@QAEXH@Z 00456110 f Com_hand.obj
 0001:00055120       ?SetStepMode@TCommunications_Handler@@QAEXH@Z 00456120 f Com_hand.obj
 0001:00055130       ?SetSpeedControl@TCommunications_Handler@@QAEXH@Z 00456130 f Com_hand.obj
 0001:00055150       ?CalculatePlayerRange@TCommunications_Handler@@IAEHXZ 00456150 f Com_hand.obj
 0001:000551d0       ?Step@TCommunications_Handler@@QAEXH@Z 004561d0 f Com_hand.obj
 0001:000551e0       ?ResetAll@TCommunications_Handler@@IAEXXZ 004561e0 f Com_hand.obj
 0001:000552f0       ??0TCommunications_Handler@@QAE@PAXEPAVTChat@@U_GUID@@@Z 004562f0 f Com_hand.obj
 0001:000555a0       ??1TCommunications_Handler@@QAE@XZ 004565a0 f Com_hand.obj
 0001:000556c0       ?AddCommand@TCommunications_Handler@@IAEHKPAXKHEH@Z 004566c0 f Com_hand.obj
 0001:000556f0       ?get_command@TCommunications_Handler@@QAEPAXXZ 004566f0 f Com_hand.obj
 0001:00055730       ?new_command@TCommunications_Handler@@QAEEPAXH@Z 00456730 f Com_hand.obj
 0001:00055750       ?NewCommand@TCommunications_Handler@@QAEHPAXHH@Z 00456750 f Com_hand.obj
 0001:000557d0       ?LastWorldRandom@TCommunications_Handler@@QAEXH@Z 004567d0 f Com_hand.obj
 0001:000557f0       ?DoCycle@TCommunications_Handler@@QAEHXZ 004567f0 f Com_hand.obj
 0001:00055960       ?GetNextNewPlayer@TCommunications_Handler@@IAEHXZ 00456960 f Com_hand.obj
 0001:00055990       ?SendPlayerName@TCommunications_Handler@@IAEJXZ 00456990 f Com_hand.obj
 0001:00055a00       ?ReceiveGameMessages@TCommunications_Handler@@QAEXXZ 00456a00 f Com_hand.obj
 0001:00055b50       ?NotifyWindow@TCommunications_Handler@@QAEXW4COMMMESSAGES@@@Z 00456b50 f Com_hand.obj
 0001:00055b90       ?EvaluatePlayerMessage@TCommunications_Handler@@IAEXK@Z 00456b90 f Com_hand.obj
 0001:00056390       ?ReleaseSettings@TCommunications_Handler@@QAEXXZ 00457390 f Com_hand.obj
 0001:000563a0       ?SendSharedData@TCommunications_Handler@@QAEJXZ 004573a0 f Com_hand.obj
 0001:00056410       ?TEST@TCommunications_Handler@@IAEHXZ 00457410 f Com_hand.obj
 0001:00056420       ?SetSelfPlayer@TCommunications_Handler@@IAEXXZ 00457420 f Com_hand.obj
 0001:00056470       ?EvaluateSystemMessage@TCommunications_Handler@@IAEXK@Z 00457470 f Com_hand.obj
 0001:00056840       ?SendGroupChatMsg@TCommunications_Handler@@QAEXPAD@Z 00457840 f Com_hand.obj
 0001:000568d0       ?SendChatMsgAll@TCommunications_Handler@@QAEXPAD@Z 004578d0 f Com_hand.obj
 0001:000568e0       ?SendChatMsg@TCommunications_Handler@@QAEXHPAD@Z 004578e0 f Com_hand.obj
 0001:00056970       ?OverrideGranularity@TCommunications_Handler@@QAEXW4COMMSPEEDS@@@Z 00457970 f Com_hand.obj
 0001:000569d0       ?OverrideSendSpeedChange@TCommunications_Handler@@QAEXW4COMMSPEEDS@@@Z 004579d0 f Com_hand.obj
 0001:00056a30       ?SendSpeedChange@TCommunications_Handler@@QAEXII@Z 00457a30 f Com_hand.obj
 0001:00056a60       ?SendSpeedRequest@TCommunications_Handler@@QAEXW4COMMSPEEDS@@@Z 00457a60 f Com_hand.obj
 0001:00056b10       ?SendLatentMsg@TCommunications_Handler@@IAEXXZ 00457b10 f Com_hand.obj
 0001:00056b60       ?AllPlayersAcknowledged@TCommunications_Handler@@QAEHXZ 00457b60 f Com_hand.obj
 0001:00056bf0       ?SendChecksumMessage@TCommunications_Handler@@QAEJKIK@Z 00457bf0 f Com_hand.obj
 0001:00056c30       ?SendAllDoneMsg@TCommunications_Handler@@IAEJK@Z 00457c30 f Com_hand.obj
 0001:00056d10       ?CommResendAll@TCommunications_Handler@@QAEJKK@Z 00457d10 f Com_hand.obj
 0001:00056d20       ?CommOut@TCommunications_Handler@@IAEJKEPAXHH@Z 00457d20 f Com_hand.obj
 0001:00056f20       ?DestroyMultiplayerGame@TCommunications_Handler@@QAEXXZ 00457f20 f Com_hand.obj
 0001:00056f40       ?GetCommunicationsStatus@TCommunications_Handler@@QAE?AW4COMMSTATUS@@XZ 00457f40 f Com_hand.obj
 0001:00056f50       ?UnlinkCurrentLevel@TCommunications_Handler@@QAE?AW4COMMSTATUS@@XZ 00457f50 f Com_hand.obj
 0001:000570a0       ?UnlinkToLevel@TCommunications_Handler@@QAE?AW4COMMSTATUS@@W42@@Z 004580a0 f Com_hand.obj
 0001:000570e0       ?AnalyzeCommunicationsStatus@TCommunications_Handler@@QAE?AW4COMMSTATUS@@XZ 004580e0 f Com_hand.obj
 0001:000571a0       ?IsPaused@TCommunications_Handler@@QAEHXZ 004581a0 f Com_hand.obj
 0001:000571b0       ?LocalResumeGame@TCommunications_Handler@@IAEXXZ 004581b0 f Com_hand.obj
 0001:000571f0       ?LocalPauseGame@TCommunications_Handler@@IAEXXZ 004581f0 f Com_hand.obj
 0001:00057230       ?SendPauseGame@TCommunications_Handler@@IAEXH@Z 00458230 f Com_hand.obj
 0001:00057270       ?TogglePauseGame@TCommunications_Handler@@QAEHXZ 00458270 f Com_hand.obj
 0001:000572b0       ?RequestPauseGame@TCommunications_Handler@@QAEXH@Z 004582b0 f Com_hand.obj
 0001:00057310       ?RequestResumeGame@TCommunications_Handler@@QAEXH@Z 00458310 f Com_hand.obj
 0001:00057370       ?SetRandomSeed@TCommunications_Handler@@QAEXXZ 00458370 f Com_hand.obj
 0001:000573a0       ?GetRandomSeed@TCommunications_Handler@@QAEIXZ 004583a0 f Com_hand.obj
 0001:000573d0       ?WhoAmI@TCommunications_Handler@@QAEHXZ 004583d0 f Com_hand.obj
 0001:000573e0       ?host@TCommunications_Handler@@QAEHXZ 004583e0 f Com_hand.obj
 0001:00057400       ?GetCommStateStr@TCommunications_Handler@@QAEPADXZ 00458400 f Com_hand.obj
 0001:00057490       ?GetCurrentTurn@TCommunications_Handler@@QAEKXZ 00458490 f Com_hand.obj
 0001:000574a0       ?GetSyncTurn@TCommunications_Handler@@QAEKXZ 004584a0 f Com_hand.obj
 0001:000574c0       ?GetReadyPlayerStr@TCommunications_Handler@@QAEPADXZ 004584c0 f Com_hand.obj
 0001:000575a0       ?GetPlayerState@TCommunications_Handler@@QAEHH@Z 004585a0 f Com_hand.obj
 0001:000575d0       ?GetPlayerHumanity@TCommunications_Handler@@QAEHH@Z 004585d0 f Com_hand.obj
 0001:00057600       ?SetPlayerHumanity@TCommunications_Handler@@QAEXHH@Z 00458600 f Com_hand.obj
 0001:00057650       ?GetActivePlayerCount@TCommunications_Handler@@QAEHXZ 00458650 f Com_hand.obj
 0001:000576b0       ?IsPlayerHuman@TCommunications_Handler@@QAEHH@Z 004586b0 f Com_hand.obj
 0001:000576f0       ?GetCommInfo@TCommunications_Handler@@QAEPADE@Z 004586f0 f Com_hand.obj
 0001:000578e0       ?GetAllLatentStr@TCommunications_Handler@@QAEPADXZ 004588e0 f Com_hand.obj
 0001:00057a00       ?GetPlayerName@TCommunications_Handler@@QAEPADH@Z 00458a00 f Com_hand.obj
 0001:00057a60       ?UpdatePlayerInformation@TCommunications_Handler@@QAEXKPAD0@Z 00458a60 f Com_hand.obj
 0001:00057ac0       ?IsLobbyLaunched@TCommunications_Handler@@QAEHXZ 00458ac0 f Com_hand.obj
 0001:00057c00       ?InitPlayerInformation@TCommunications_Handler@@QAEXHKPAD0@Z 00458c00 f Com_hand.obj
 0001:00057d70       ?SetGameTitle@TCommunications_Handler@@QAEHPAD@Z 00458d70 f Com_hand.obj
 0001:00057da0       ?SetPlayerName@TCommunications_Handler@@QAEHPAD@Z 00458da0 f Com_hand.obj
 0001:00057e00       ?SetWindowHandle@TCommunications_Handler@@QAEPAXPAX@Z 00458e00 f Com_hand.obj
 0001:00057e10       ?CreateDirectPlayConversation@TCommunications_Handler@@IAEJXZ 00458e10 f Com_hand.obj
 0001:00057e90       ?CreateMultiplayerGame@TCommunications_Handler@@QAEHXZ 00458e90 f Com_hand.obj
 0001:00058020       ?AddSelfPlayer@TCommunications_Handler@@IAEHXZ 00459020 f Com_hand.obj
 0001:00058110       ?InitJoinGame@TCommunications_Handler@@QAEHXZ 00459110 f Com_hand.obj
 0001:00058150       ?JoinMultiplayerGame@TCommunications_Handler@@QAEHPAU_GUID@@@Z 00459150 f Com_hand.obj
 0001:00058290       ?AllowPlayerJoins@TCommunications_Handler@@QAEXH@Z 00459290 f Com_hand.obj
 0001:000582a0       ?LaunchMultiplayerGame@TCommunications_Handler@@QAEXXZ 004592a0 f Com_hand.obj
 0001:00058340       ?GetMultiPlayerCaps@TCommunications_Handler@@IAEJH@Z 00459340 f Com_hand.obj
 0001:00058440       ?GetServiceGUID@TCommunications_Handler@@QAE?AU_GUID@@XZ 00459440 f Com_hand.obj
 0001:00058470       ?GetApplicationGUID@TCommunications_Handler@@QAE?AU_GUID@@XZ 00459470 f Com_hand.obj
 0001:000584a0       ?SetApplicationGUID@TCommunications_Handler@@QAEXU_GUID@@@Z 004594a0 f Com_hand.obj
 0001:000584d0       ?GetDP2Interface@TCommunications_Handler@@QAEPAUIDirectPlay2@@XZ 004594d0 f Com_hand.obj
 0001:000584e0       ?SetServiceGUID@TCommunications_Handler@@QAEXU_GUID@@@Z 004594e0 f Com_hand.obj
 0001:00058510       ?SetSessionGUID@TCommunications_Handler@@QAEXU_GUID@@@Z 00459510 f Com_hand.obj
 0001:00058540       ?ShowReturn@TCommunications_Handler@@QAEXJPAD@Z 00459540 f Com_hand.obj
 0001:00058d80       ?UpdatePlayers@TCommunications_Handler@@QAEXXZ 00459d80 f Com_hand.obj
 0001:00058dd0       ?UpdatePlayer@TCommunications_Handler@@QAEXHH@Z 00459dd0 f Com_hand.obj
 0001:00059210       ?SetMyReadiness@TCommunications_Handler@@QAEHHKKKK@Z 0045a210 f Com_hand.obj
 0001:000592f0       ?GetClientReadiness@TCommunications_Handler@@QAEHHPAHPAK111@Z 0045a2f0 f Com_hand.obj
 0001:00059350       ?IsPlayerReady@TCommunications_Handler@@QAEHH@Z 0045a350 f Com_hand.obj
 0001:00059380       ?MultiplayerGameStart@TCommunications_Handler@@QAEHXZ 0045a380 f Com_hand.obj
 0001:000593b0       ?AllPlayersReady@TCommunications_Handler@@QAEHXZ 0045a3b0 f Com_hand.obj
 0001:00059410       ?DPlayGetSessionDesc@TCommunications_Handler@@IAEJXZ 0045a410 f Com_hand.obj
 0001:000594d0       ?CommGetCaps@TCommunications_Handler@@IAEJXZ 0045a4d0 f Com_hand.obj
 0001:000596c0       ?CloseSession@TCommunications_Handler@@IAEJXZ 0045a6c0 f Com_hand.obj
 0001:00059730       ?ReleaseComm@TCommunications_Handler@@IAEJXZ 0045a730 f Com_hand.obj
 0001:000597a0       ?Kick@TCommunications_Handler@@QAEHH@Z 0045a7a0 f Com_hand.obj
 0001:00059870       ?DestroyMyPlayer@TCommunications_Handler@@IAEJXZ 0045a870 f Com_hand.obj
 0001:000598d0       ?EnumPlayerCallback@@YGHKKPAUDPNAME@@KPAX@Z 0045a8d0 f Com_hand.obj
 0001:00059900       ?SetAndSendMyGameOptions@TCommunications_Handler@@QAEXPADK@Z 0045a900 f Com_hand.obj
 0001:00059930       ?SendMyGameOptions@TCommunications_Handler@@QAEXXZ 0045a930 f Com_hand.obj
 0001:00059960       ?SetOptions@TCommunications_Handler@@IAEXPADK@Z 0045a960 f Com_hand.obj
 0001:000599b0       ?GetMyGameOptions@TCommunications_Handler@@QAEPAXPAK@Z 0045a9b0 f Com_hand.obj
 0001:000599c0       ?FreeOptions@TCommunications_Handler@@IAEXXZ 0045a9c0 f Com_hand.obj
 0001:000599f0       ?StringFromGUID@@YAHPAU_GUID@@PAG@Z 0045a9f0 f Com_hand.obj
 0001:00059a70       ?DebugSessionInformation@TCommunications_Handler@@QAEXPAUDPSESSIONDESC2@@@Z 0045aa70 f Com_hand.obj
 0001:00059ca0       ??0TribeGameSetupScreen@@QAE@XZ 0045aca0 f scr_mpss.obj
 0001:0005a525       ?init_vars@TribeGameSetupScreen@@IAEXXZ 0045b525 f scr_mpss.obj
 0001:0005a68c       ??1TribeGameSetupScreen@@UAE@XZ 0045b68c f scr_mpss.obj
 0001:0005a898       ?action@TribeGameSetupScreen@@MAEJPAVTPanel@@JKK@Z 0045b898 f scr_mpss.obj
 0001:0005b379       ?fillItems@TribeGameSetupScreen@@IAEXXZ 0045c379 f scr_mpss.obj
 0001:0005b6e7       ?displayItem@TribeGameSetupScreen@@IAEXW4State@1@@Z 0045c6e7 f scr_mpss.obj
 0001:0005c48f       ?updateSummary@TribeGameSetupScreen@@IAEXXZ 0045d48f f scr_mpss.obj
 0001:0005c541       ?fillExplanation@TribeGameSetupScreen@@IAEXXZ 0045d541 f scr_mpss.obj
 0001:0005c718       ?fillDrives@TribeGameSetupScreen@@IAEXXZ 0045d718 f scr_mpss.obj
 0001:0005c72e       ?fillScenarios@TribeGameSetupScreen@@IAEXXZ 0045d72e f scr_mpss.obj
 0001:0005c9d8       ?saveInputValues@TribeGameSetupScreen@@IAEXXZ 0045d9d8 f scr_mpss.obj
 0001:0005ca30       ??_ETribeGameSetupScreen@@UAEPAXI@Z 0045da30 f scr_mpss.obj
 0001:0005ca30       ??_GTribeGameSetupScreen@@UAEPAXI@Z 0045da30 f scr_mpss.obj
 0001:0005cadb       ??0VictoryConditionRuleSystem@@QAE@XZ 0045dadb f taistrmd.obj
 0001:0005cafd       ??1VictoryConditionRuleSystem@@UAE@XZ 0045dafd f taistrmd.obj
 0001:0005cb1c       ?evaluateAsInProgress@VictoryConditionRuleSystem@@QAEHPAVTribeAIPlayer@@H@Z 0045db1c f taistrmd.obj
 0001:0005cb36       ?evaluateAsNonInProgress@VictoryConditionRuleSystem@@QAEHPAVTribeAIPlayer@@H@Z 0045db36 f taistrmd.obj
 0001:0005cbb3       ?execute@VictoryConditionRuleSystem@@QAEHPAVTribeAIPlayer@@H@Z 0045dbb3 f taistrmd.obj
 0001:0005cf99       ?stopExecution@VictoryConditionRuleSystem@@QAEHPAVTribeAIPlayer@@H@Z 0045df99 f taistrmd.obj
 0001:0005cfb3       ??0TribeStrategyAIModule@@QAE@PAXH@Z 0045dfb3 f taistrmd.obj
 0001:0005d165       ??1TribeStrategyAIModule@@UAE@XZ 0045e165 f taistrmd.obj
 0001:0005d221       ?update@TribeStrategyAIModule@@UAEHH@Z 0045e221 f taistrmd.obj
 0001:0005d501       ?setMainDecisionAI@TribeStrategyAIModule@@QAEXPAVTribeMainDecisionAIModule@@@Z 0045e501 f taistrmd.obj
 0001:0005d525       ?currentVictoryCondition@TribeStrategyAIModule@@QBEHXZ 0045e525 f taistrmd.obj
 0001:0005d544       ?targetID@TribeStrategyAIModule@@QBEHXZ 0045e544 f taistrmd.obj
 0001:0005d563       ?targetType@TribeStrategyAIModule@@QBEHXZ 0045e563 f taistrmd.obj
 0001:0005d582       ?secondTargetID@TribeStrategyAIModule@@QBEHXZ 0045e582 f taistrmd.obj
 0001:0005d5a1       ?secondTargetType@TribeStrategyAIModule@@QBEHXZ 0045e5a1 f taistrmd.obj
 0001:0005d5c0       ?targetPoint1@TribeStrategyAIModule@@QBEABUWaypoint@@XZ 0045e5c0 f taistrmd.obj
 0001:0005d5de       ?targetPoint2@TribeStrategyAIModule@@QBEABUWaypoint@@XZ 0045e5de f taistrmd.obj
 0001:0005d5fc       ?targetAttribute@TribeStrategyAIModule@@QBEHXZ 0045e5fc f taistrmd.obj
 0001:0005d61b       ?targetNumber@TribeStrategyAIModule@@QBEHXZ 0045e61b f taistrmd.obj
 0001:0005d63a       ?setVictoryCondition@TribeStrategyAIModule@@QAEXH@Z 0045e63a f taistrmd.obj
 0001:0005d86e       ?isRuleExecuting@TribeStrategyAIModule@@QAEHH@Z 0045e86e f taistrmd.obj
 0001:0005d8ac       ?isRuleIdle@TribeStrategyAIModule@@QAEHH@Z 0045e8ac f taistrmd.obj
 0001:0005d8f0       ??_GVictoryConditionRuleSystem@@UAEPAXI@Z 0045e8f0 f taistrmd.obj
 0001:0005d8f0       ??_EVictoryConditionRuleSystem@@UAEPAXI@Z 0045e8f0 f taistrmd.obj
 0001:0005d930       ??_GTribeStrategyAIModule@@UAEPAXI@Z 0045e930 f taistrmd.obj
 0001:0005d930       ??_ETribeStrategyAIModule@@UAEPAXI@Z 0045e930 f taistrmd.obj
 0001:0005d970       ??0TRIBE_Master_Tree_Object@@QAE@PAV0@H@Z 0045e970 f tm_tre_o.obj
 0001:0005da04       ??0TRIBE_Master_Tree_Object@@QAE@HPAPAVRGE_Sprite@@PAPAVRGE_Sound@@H@Z 0045ea04 f tm_tre_o.obj
 0001:0005daa8       ??0TRIBE_Master_Tree_Object@@QAE@PAU_iobuf@@PAPAVRGE_Sprite@@PAPAVRGE_Sound@@FH@Z 0045eaa8 f tm_tre_o.obj
 0001:0005db54       ?make_new_obj@TRIBE_Master_Tree_Object@@UAEPAVRGE_Static_Object@@PAVRGE_Player@@MMM@Z 0045eb54 f tm_tre_o.obj
 0001:0005dc00       ?make_new_master@TRIBE_Master_Tree_Object@@UAEPAVRGE_Master_Static_Object@@XZ 0045ec00 f tm_tre_o.obj
 0001:0005dca0       ??_GTRIBE_Master_Tree_Object@@UAEPAXI@Z 0045eca0 f tm_tre_o.obj
 0001:0005dca0       ??_ETRIBE_Master_Tree_Object@@UAEPAXI@Z 0045eca0 f tm_tre_o.obj
 0001:0005dce0       ??1TRIBE_Master_Tree_Object@@UAE@XZ 0045ece0 f tm_tre_o.obj
 0001:0005dd40       ?DrawShallows@TribeLandMaker@@IAEXPAUPOINT_S@@HHH@Z 0045ed40 f tribdraw.obj
 0001:0005def4       ?CleanUpBeachAndElevation@TribeLandMaker@@IAEXXZ 0045eef4 f tribdraw.obj
 0001:0005df36       ?CleanUpBeachAndElevation@TribeLandMaker@@IAEXPAURECTANGLE@@@Z 0045ef36 f tribdraw.obj
 0001:0005df70       ??0RGE_Master_Missile_Object@@QAE@PAV0@H@Z 0045ef70 f m_mi_obj.obj
 0001:0005dffd       ??0RGE_Master_Missile_Object@@QAE@HPAPAVRGE_Sprite@@PAPAVRGE_Sound@@H@Z 0045effd f m_mi_obj.obj
 0001:0005e09a       ??0RGE_Master_Missile_Object@@QAE@PAU_iobuf@@PAPAVRGE_Sprite@@PAPAVRGE_Sound@@FH@Z 0045f09a f m_mi_obj.obj
 0001:0005e13f       ?setup@RGE_Master_Missile_Object@@IAEHPAV1@@Z 0045f13f f m_mi_obj.obj
 0001:0005e1db       ?setup@RGE_Master_Missile_Object@@IAEHHPAPAVRGE_Sprite@@PAPAVRGE_Sound@@@Z 0045f1db f m_mi_obj.obj
 0001:0005e29d       ?setup@RGE_Master_Missile_Object@@IAEHPAU_iobuf@@PAPAVRGE_Sprite@@PAPAVRGE_Sound@@F@Z 0045f29d f m_mi_obj.obj
 0001:0005e36a       ??1RGE_Master_Missile_Object@@UAE@XZ 0045f36a f m_mi_obj.obj
 0001:0005e3d2       ?make_new_obj@RGE_Master_Missile_Object@@UAEPAVRGE_Static_Object@@PAVRGE_Player@@MMM@Z 0045f3d2 f m_mi_obj.obj
 0001:0005e47e       ?make_new_master@RGE_Master_Missile_Object@@UAEPAVRGE_Master_Static_Object@@XZ 0045f47e f m_mi_obj.obj
 0001:0005e518       ?copy_obj@RGE_Master_Missile_Object@@UAEXPAVRGE_Master_Static_Object@@@Z 0045f518 f m_mi_obj.obj
 0001:0005e5ae       ?modify@RGE_Master_Missile_Object@@UAEXME@Z 0045f5ae f m_mi_obj.obj
 0001:0005e5d6       ?modify_delta@RGE_Master_Missile_Object@@UAEXME@Z 0045f5d6 f m_mi_obj.obj
 0001:0005e5fe       ?modify_percent@RGE_Master_Missile_Object@@UAEXME@Z 0045f5fe f m_mi_obj.obj
 0001:0005e626       ?save@RGE_Master_Missile_Object@@UAEXH@Z 0045f626 f m_mi_obj.obj
 0001:0005e6e0       ??_GRGE_Master_Missile_Object@@UAEPAXI@Z 0045f6e0 f m_mi_obj.obj
 0001:0005e6e0       ??_ERGE_Master_Missile_Object@@UAEPAXI@Z 0045f6e0 f m_mi_obj.obj
 0001:0005e720       ??0TribeAIPlayer@@QAE@PAVTRIBE_World@@PAVRGE_Master_Player@@EPADEEPAXH22@Z 0045f720 f taiplyr.obj
 0001:0005e891       ??0TribeAIPlayer@@QAE@HPAVTRIBE_World@@EPAX@Z 0045f891 f taiplyr.obj
 0001:0005eaab       ??1TribeAIPlayer@@UAE@XZ   0045faab f taiplyr.obj
 0001:0005eb84       ?load@TribeAIPlayer@@UAEXH@Z 0045fb84 f taiplyr.obj
 0001:0005eba8       ?save@TribeAIPlayer@@UAEXH@Z 0045fba8 f taiplyr.obj
 0001:0005ecb1       ?toggleLogging@TribeAIPlayer@@UAEXXZ 0045fcb1 f taiplyr.obj
 0001:0005ecee       ?aiStatus@TribeAIPlayer@@UAEPADH@Z 0045fcee f taiplyr.obj
 0001:0005f392       ?logMessage@TribeAIPlayer@@UAAXPADZZ 00460392 f taiplyr.obj
 0001:0005f3ee       ?add_attribute_num@TribeAIPlayer@@UAEXFM@Z 004603ee f taiplyr.obj
 0001:0005f416       ?update@TribeAIPlayer@@UAEXXZ 00460416 f taiplyr.obj
 0001:0005f461       ?addObject@TribeAIPlayer@@UAEXPAVRGE_Static_Object@@@Z 00460461 f taiplyr.obj
 0001:0005f6dd       ?removeObject@TribeAIPlayer@@UAEXPAVRGE_Static_Object@@@Z 004606dd f taiplyr.obj
 0001:0005f7ea       ?moveObject@TribeAIPlayer@@UAEXHMMH@Z 004607ea f taiplyr.obj
 0001:0005f83e       ?moveObject@TribeAIPlayer@@UAEXHMMHH@Z 0046083e f taiplyr.obj
 0001:0005f892       ?stopObject@TribeAIPlayer@@UAEXH@Z 00460892 f taiplyr.obj
 0001:0005f8e9       ?notify@TribeAIPlayer@@UAEXHHHJJJ@Z 004608e9 f taiplyr.obj
 0001:0005fc69       ?buildObject@TribeAIPlayer@@UAEXHHMMH@Z 00460c69 f taiplyr.obj
 0001:0005fcd0       ?cancelBuild@TribeAIPlayer@@UAEXHHHMMH@Z 00460cd0 f taiplyr.obj
 0001:0005fe46       ?registerBuild@TribeAIPlayer@@UAEXPAVRGE_Static_Object@@H@Z 00460e46 f taiplyr.obj
 0001:0006002b       ?trainUnit@TribeAIPlayer@@UAEXHHH@Z 0046102b f taiplyr.obj
 0001:00060065       ?cancelTrain@TribeAIPlayer@@UAEXHHHH@Z 00461065 f taiplyr.obj
 0001:00060164       ?registerTrain@TribeAIPlayer@@UAEXHHH@Z 00461164 f taiplyr.obj
 0001:00060263       ?research@TribeAIPlayer@@UAEXHHH@Z 00461263 f taiplyr.obj
 0001:0006029d       ?cancelResearch@TribeAIPlayer@@UAEXHHHH@Z 0046129d f taiplyr.obj
 0001:0006039c       ?registerResearch@TribeAIPlayer@@UAEXHHH@Z 0046139c f taiplyr.obj
 0001:0006049b       ?taskExplorer@TribeAIPlayer@@UAEXHMM@Z 0046149b f taiplyr.obj
 0001:000604fa       ?taskTrader@TribeAIPlayer@@UAEXHHHMM@Z 004614fa f taiplyr.obj
 0001:00060561       ?taskAttacker@TribeAIPlayer@@UAEXHHHMM@Z 00461561 f taiplyr.obj
 0001:000605e9       ?taskResourceGatherer@TribeAIPlayer@@UAEXHHHMM@Z 004615e9 f taiplyr.obj
 0001:00060650       ?registerObject@TribeAIPlayer@@UAEXPAVRGE_Static_Object@@@Z 00461650 f taiplyr.obj
 0001:00060668       ?loadAIInformation@TribeAIPlayer@@UAEXPAD0H@Z 00461668 f taiplyr.obj
 0001:00060a20       ??_GTribeAIPlayer@@UAEPAXI@Z 00461a20 f taiplyr.obj
 0001:00060a20       ??_ETribeAIPlayer@@UAEPAXI@Z 00461a20 f taiplyr.obj
 0001:00060a60       ??_ETribeAIPlayer@@WBMA@AEPAXI@Z 00461a60 f taiplyr.obj
 0001:00060a70       ?update@TribeAIPlayer@@WBMA@AEXXZ 00461a70 f taiplyr.obj
 0001:00060a80       ??0RGE_Action_Object@@QAE@PAVRGE_Master_Action_Object@@PAVRGE_Player@@MMMH@Z 00461a80 f act_obj.obj
 0001:00060b2d       ??0RGE_Action_Object@@QAE@HPAVRGE_Game_World@@H@Z 00461b2d f act_obj.obj
 0001:00060bc2       ??1RGE_Action_Object@@UAE@XZ 00461bc2 f act_obj.obj
 0001:00060c72       ?setup@RGE_Action_Object@@MAEHPAVRGE_Master_Action_Object@@PAVRGE_Player@@MMM@Z 00461c72 f act_obj.obj
 0001:00060cd3       ?setup@RGE_Action_Object@@MAEHHPAVRGE_Game_World@@@Z 00461cd3 f act_obj.obj
 0001:00060d47       ?create_action_list@RGE_Action_Object@@MAEPAVRGE_Action_List@@XZ 00461d47 f act_obj.obj
 0001:00060ddc       ?rehook@RGE_Action_Object@@UAEXXZ 00461ddc f act_obj.obj
 0001:00060e08       ?save@RGE_Action_Object@@UAEXH@Z 00461e08 f act_obj.obj
 0001:00060e55       ?transform@RGE_Action_Object@@UAEXPAVRGE_Master_Static_Object@@@Z 00461e55 f act_obj.obj
 0001:00060e87       ?destroy_obj@RGE_Action_Object@@UAEXXZ 00461e87 f act_obj.obj
 0001:00060eb3       ?notify_of_relation@RGE_Action_Object@@UAEXJE@Z 00461eb3 f act_obj.obj
 0001:00060ecb       ?do_command@RGE_Action_Object@@UAEXPAVRGE_Static_Object@@MMM@Z 00461ecb f act_obj.obj
 0001:00060f14       ?move_to@RGE_Action_Object@@UAEXPAVRGE_Static_Object@@MMM@Z 00461f14 f act_obj.obj
 0001:000610ff       ?work@RGE_Action_Object@@UAEXPAVRGE_Static_Object@@MMM@Z 004620ff f act_obj.obj
 0001:00061148       ?work2@RGE_Action_Object@@UAEXPAVRGE_Static_Object@@MMME@Z 00462148 f act_obj.obj
 0001:0006167e       ?set_attack@RGE_Action_Object@@UAEXPAVRGE_Static_Object@@@Z 0046267e f act_obj.obj
 0001:000616a2       ?play_command_sound@RGE_Action_Object@@UAEXXZ 004626a2 f act_obj.obj
 0001:000616dc       ?set_task@RGE_Action_Object@@UAEXF@Z 004626dc f act_obj.obj
 0001:0006175b       ?setTaskByTaskID@RGE_Action_Object@@UAEXH@Z 0046275b f act_obj.obj
 0001:000617da       ?set_action@RGE_Action_Object@@UAEXPAVRGE_Action@@@Z 004627da f act_obj.obj
 0001:0006180e       ?set_only_action@RGE_Action_Object@@UAEXPAVRGE_Action@@@Z 0046280e f act_obj.obj
 0001:00061850       ?set_end_action@RGE_Action_Object@@UAEXPAVRGE_Action@@@Z 00462850 f act_obj.obj
 0001:00061884       ?stop@RGE_Action_Object@@UAEXXZ 00462884 f act_obj.obj
 0001:000618be       ?update@RGE_Action_Object@@UAEEXZ 004628be f act_obj.obj
 0001:000619e5       ?change_ownership@RGE_Action_Object@@UAEXPAVRGE_Player@@@Z 004629e5 f act_obj.obj
 0001:00061a27       ?copy_obj@RGE_Action_Object@@UAEXPAVRGE_Master_Static_Object@@@Z 00462a27 f act_obj.obj
 0001:00061a66       ?have_action@RGE_Action_Object@@QAEEXZ 00462a66 f act_obj.obj
 0001:00061aa4       ?get_target_obj@RGE_Action_Object@@UAEPAVRGE_Static_Object@@XZ 00462aa4 f act_obj.obj
 0001:00061aec       ?getTask@RGE_Action_Object@@UAEPAVRGE_Task@@PAVRGE_Static_Object@@MMM@Z 00462aec f act_obj.obj
 0001:00061c40       ?can_attack@RGE_Static_Object@@UAEEXZ 00462c40 f act_obj.obj
 0001:00061c60       ?calc_attack_modifier@RGE_Static_Object@@UAEMPAV1@@Z 00462c60 f act_obj.obj
 0001:00061c80       ?rateOfFire@RGE_Static_Object@@UAEMXZ 00462c80 f act_obj.obj
 0001:00061ca0       ?weaponRange@RGE_Static_Object@@UAEMXZ 00462ca0 f act_obj.obj
 0001:00061cc0       ?groupCommander@RGE_Static_Object@@UBEEXZ 00462cc0 f act_obj.obj
 0001:00061ce0       ?inGroup@RGE_Static_Object@@UBEEXZ 00462ce0 f act_obj.obj
 0001:00061d00       ??_ERGE_Action_Object@@UAEPAXI@Z 00462d00 f act_obj.obj
 0001:00061d00       ??_GRGE_Action_Object@@UAEPAXI@Z 00462d00 f act_obj.obj
 0001:00061d40       ?set_attack@RGE_Static_Object@@UAEXPAV1@@Z 00462d40 f act_obj.obj
 0001:00061d60       ?get_list@RGE_Action_List@@QAEPAURGE_Action_Node@@XZ 00462d60 f act_obj.obj
 0001:00061d80       ??0BaseObject@@QAE@XZ      00462d80 f aibobj.obj
 0001:00061eb4       ??0BaseObject@@QAE@HHHHPADMMMMMMHHH@Z 00462eb4 f aibobj.obj
 0001:00061ff8       ??0BaseObject@@QAE@PAV0@@Z 00462ff8 f aibobj.obj
 0001:000621bb       ??0BaseObject@@QAE@ABV0@@Z 004631bb f aibobj.obj
 0001:0006237e       ??1BaseObject@@UAE@XZ      0046337e f aibobj.obj
 0001:000623b8       ??8@YAHABVBaseObject@@0@Z  004633b8 f aibobj.obj
 0001:000623e6       ??9@YAHABVBaseObject@@0@Z  004633e6 f aibobj.obj
 0001:00062414       ??M@YAHABVBaseObject@@0@Z  00463414 f aibobj.obj
 0001:00062442       ??O@YAHABVBaseObject@@0@Z  00463442 f aibobj.obj
 0001:00062470       ?numberGroups@BaseObject@@QBEHXZ 00463470 f aibobj.obj
 0001:0006248c       ?groupID@BaseObject@@QBEHH@Z 0046348c f aibobj.obj
 0001:000624e0       ?inGroup@BaseObject@@QBEHH@Z 004634e0 f aibobj.obj
 0001:0006253c       ?addGroup@BaseObject@@QAEHH@Z 0046353c f aibobj.obj
 0001:0006260f       ?removeGroup@BaseObject@@QAEHH@Z 0046360f f aibobj.obj
 0001:000626f2       ?categoryID@BaseObject@@QBEHXZ 004636f2 f aibobj.obj
 0001:0006270e       ?typeID@BaseObject@@QBEHXZ 0046370e f aibobj.obj
 0001:0006272a       ?gameID@BaseObject@@QBEABHXZ 0046372a f aibobj.obj
 0001:00062746       ?name@BaseObject@@QAEPADXZ 00463746 f aibobj.obj
 0001:00062762       ?xPosition@BaseObject@@QBEMXZ 00463762 f aibobj.obj
 0001:0006277e       ?yPosition@BaseObject@@QBEMXZ 0046377e f aibobj.obj
 0001:0006279a       ?zPosition@BaseObject@@QBEMXZ 0046379a f aibobj.obj
 0001:000627b6       ?xSize@BaseObject@@QBEMXZ  004637b6 f aibobj.obj
 0001:000627d2       ?ySize@BaseObject@@QBEMXZ  004637d2 f aibobj.obj
 0001:000627ee       ?zSize@BaseObject@@QBEMXZ  004637ee f aibobj.obj
 0001:0006280a       ?hitPoints@BaseObject@@QBEHXZ 0046380a f aibobj.obj
 0001:00062826       ?minHitPoints@BaseObject@@QBEHXZ 00463826 f aibobj.obj
 0001:00062842       ?maxHitPoints@BaseObject@@QBEHXZ 00463842 f aibobj.obj
 0001:00062861       ?busy@BaseObject@@QBEHXZ   00463861 f aibobj.obj
 0001:00062880       ?currentTask@BaseObject@@QBEHXZ 00463880 f aibobj.obj
 0001:0006289f       ?currentTarget@BaseObject@@QBEHXZ 0046389f f aibobj.obj
 0001:000628be       ?currentTargetType@BaseObject@@QBEHXZ 004638be f aibobj.obj
 0001:000628dd       ?currentTargetXPosition@BaseObject@@QBEMXZ 004638dd f aibobj.obj
 0001:000628fc       ?currentTargetYPosition@BaseObject@@QBEMXZ 004638fc f aibobj.obj
 0001:0006291b       ?currentTargetZPosition@BaseObject@@QBEMXZ 0046391b f aibobj.obj
 0001:0006293a       ?setXPosition@BaseObject@@QAEXM@Z 0046393a f aibobj.obj
 0001:0006295b       ?setYPosition@BaseObject@@QAEXM@Z 0046395b f aibobj.obj
 0001:0006297c       ?setZPosition@BaseObject@@QAEXM@Z 0046397c f aibobj.obj
 0001:0006299d       ?setXSize@BaseObject@@QAEXM@Z 0046399d f aibobj.obj
 0001:000629be       ?setYSize@BaseObject@@QAEXM@Z 004639be f aibobj.obj
 0001:000629df       ?setZSize@BaseObject@@QAEXM@Z 004639df f aibobj.obj
 0001:00062a00       ?setHitPoints@BaseObject@@QAEXH@Z 00463a00 f aibobj.obj
 0001:00062a21       ?incrementHitPoints@BaseObject@@QAEXH@Z 00463a21 f aibobj.obj
 0001:00062a42       ?decrementHitPoints@BaseObject@@QAEXH@Z 00463a42 f aibobj.obj
 0001:00062a67       ?setMinHitPoints@BaseObject@@QAEXH@Z 00463a67 f aibobj.obj
 0001:00062a88       ?incrementMinHitPoints@BaseObject@@QAEXH@Z 00463a88 f aibobj.obj
 0001:00062aa9       ?decrementMinHitPoints@BaseObject@@QAEXH@Z 00463aa9 f aibobj.obj
 0001:00062ace       ?setMaxHitPoints@BaseObject@@QAEXH@Z 00463ace f aibobj.obj
 0001:00062af2       ?incrementMaxHitPoints@BaseObject@@QAEXH@Z 00463af2 f aibobj.obj
 0001:00062b16       ?decrementMaxHitPoints@BaseObject@@QAEXH@Z 00463b16 f aibobj.obj
 0001:00062b3e       ?setBusy@BaseObject@@QAEXH@Z 00463b3e f aibobj.obj
 0001:00062b62       ?setCurrentTask@BaseObject@@QAEXH@Z 00463b62 f aibobj.obj
 0001:00062b86       ?setCurrentTarget@BaseObject@@QAEXH@Z 00463b86 f aibobj.obj
 0001:00062baa       ?setCurrentTargetType@BaseObject@@QAEXH@Z 00463baa f aibobj.obj
 0001:00062bce       ?setCurrentTargetPosition@BaseObject@@QAEXMMM@Z 00463bce f aibobj.obj
 0001:00062c10       ??_GBaseObject@@UAEPAXI@Z  00463c10 f aibobj.obj
 0001:00062c10       ??_EBaseObject@@UAEPAXI@Z  00463c10 f aibobj.obj
 0001:00062c50       ??0TRIBE_Campaign_Editor_Screen@@QAE@XZ 00463c50 f scr_cam.obj
 0001:000631c8       ??1TRIBE_Campaign_Editor_Screen@@UAE@XZ 004641c8 f scr_cam.obj
 0001:0006364a       ?fill_campaign_drop@TRIBE_Campaign_Editor_Screen@@IAEXXZ 0046464a f scr_cam.obj
 0001:0006372d       ?fill_scenario_list@TRIBE_Campaign_Editor_Screen@@IAEXXZ 0046472d f scr_cam.obj
 0001:00063810       ?fill_campaign_scenario_list@TRIBE_Campaign_Editor_Screen@@IAEXXZ 00464810 f scr_cam.obj
 0001:000638bb       ?check_lists@TRIBE_Campaign_Editor_Screen@@IAEEXZ 004648bb f scr_cam.obj
 0001:00063985       ?load_campaign@TRIBE_Campaign_Editor_Screen@@IAEXXZ 00464985 f scr_cam.obj
 0001:00063b70       ?make_campaign@TRIBE_Campaign_Editor_Screen@@IAEXXZ 00464b70 f scr_cam.obj
 0001:00063dd2       ?add_scenario@TRIBE_Campaign_Editor_Screen@@IAEXXZ 00464dd2 f scr_cam.obj
 0001:00063e87       ?remove_scenario@TRIBE_Campaign_Editor_Screen@@IAEXXZ 00464e87 f scr_cam.obj
 0001:00063f3c       ?action@TRIBE_Campaign_Editor_Screen@@MAEJPAVTPanel@@JKK@Z 00464f3c f scr_cam.obj
 0001:000644c0       ??_GTRIBE_Campaign_Editor_Screen@@UAEPAXI@Z 004654c0 f scr_cam.obj
 0001:000644c0       ??_ETRIBE_Campaign_Editor_Screen@@UAEPAXI@Z 004654c0 f scr_cam.obj
 0001:00064500       ??0RGE_Action_Missile@@QAE@HPAVRGE_Action_Object@@@Z 00465500 f ACT_misl.obj
 0001:000645ed       ??0RGE_Action_Missile@@QAE@PAVRGE_Action_Object@@PAVRGE_Static_Object@@1MMM@Z 004655ed f ACT_misl.obj
 0001:000646a0       ?first_in_stack@RGE_Action_Missile@@UAEXE@Z 004656a0 f ACT_misl.obj
 0001:00064731       ?intercept@RGE_Action_Missile@@IAEXAAM00@Z 00465731 f ACT_misl.obj
 0001:000647b8       ?set_state@RGE_Action_Missile@@MAEXE@Z 004657b8 f ACT_misl.obj
 0001:00064a69       ?update@RGE_Action_Missile@@UAEEXZ 00465a69 f ACT_misl.obj
 0001:00065120       ?save@RGE_Action_Missile@@UAEXH@Z 00466120 f ACT_misl.obj
 0001:000651b0       ??_ERGE_Action_Missile@@UAEPAXI@Z 004661b0 f ACT_misl.obj
 0001:000651b0       ??_GRGE_Action_Missile@@UAEPAXI@Z 004661b0 f ACT_misl.obj
 0001:000651f0       ??1RGE_Action_Missile@@UAE@XZ 004661f0 f ACT_misl.obj
 0001:00065250       ?atan2@@YAMMM@Z            00466250 f ACT_misl.obj
 0001:00065270       _atan2f                    00466270 f ACT_misl.obj
 0001:000652a0       ??0TSpan_Node_List@@QAE@HHH@Z 004662a0 f spanlist.obj
 0001:00065344       ??1TSpan_Node_List@@QAE@XZ 00466344 f spanlist.obj
 0001:000653d9       ?SetNumZones@TSpan_Node_List@@AAEXH@Z 004663d9 f spanlist.obj
 0001:000654b6       ?InitNewZone@TSpan_Node_List@@AAEXH@Z 004664b6 f spanlist.obj
 0001:0006556c       ?GetNode@TSpan_Node_List@@QAEPAUVSpan_Node@@XZ 0046656c f spanlist.obj
 0001:00065660       ?FreeNode@TSpan_Node_List@@QAEXPAUVSpan_Node@@@Z 00466660 f spanlist.obj
 0001:0006569c       ?FreeThread@TSpan_Node_List@@QAEHPAUVSpan_Node@@0@Z 0046669c f spanlist.obj
 0001:00065752       ?ReclaimAllNodes@TSpan_Node_List@@QAEXXZ 00466752 f spanlist.obj
 0001:00065798       ?ResetStats@TSpan_Node_List@@QAEXXZ 00466798 f spanlist.obj
 0001:000657d6       ??0TSpan_List_Manager@@QAE@H@Z 004667d6 f spanlist.obj
 0001:000658f9       ??1TSpan_List_Manager@@QAE@XZ 004668f9 f spanlist.obj
 0001:000659e4       ?SetSpanRegions@TSpan_List_Manager@@QAEXHHHH@Z 004669e4 f spanlist.obj
 0001:00065aa9       ?ResetAll@TSpan_List_Manager@@QAEXXZ 00466aa9 f spanlist.obj
 0001:00065b4e       ?AddSpan@TSpan_List_Manager@@QAEXHHH@Z 00466b4e f spanlist.obj
 0001:000661b0       ?AddShape@TSpan_List_Manager@@QAEXPAVTShape@@HHH@Z 004671b0 f spanlist.obj
 0001:000662d9       ?DeleteSpan@TSpan_List_Manager@@QAEXHHH@Z 004672d9 f spanlist.obj
 0001:000666c4       ?DeleteShape@TSpan_List_Manager@@QAEXPAVTShape@@HHH@Z 004676c4 f spanlist.obj
 0001:000667ba       ?PointVisible@TSpan_List_Manager@@QAEHHH@Z 004677ba f spanlist.obj
 0001:00066853       ?AlignamizeSpans@TSpan_List_Manager@@QAEXXZ 00467853 f spanlist.obj
 0001:000669b9       ?ScrollSpansHorizontally@TSpan_List_Manager@@QAEXHH@Z 004679b9 f spanlist.obj
 0001:00066b44       ?ScrollSpansVertically@TSpan_List_Manager@@QAEXHH@Z 00467b44 f spanlist.obj
 0001:00066e06       ?ValidateSpan@TSpan_List_Manager@@QAEHH@Z 00467e06 f spanlist.obj
 0001:00067010       ??0TRIBE_Player@@QAE@HPAVTRIBE_World@@E@Z 00468010 f tplayer.obj
 0001:00067198       ??0TRIBE_Player@@QAE@PAVTRIBE_World@@PAVRGE_Master_Player@@EPADEEE@Z 00468198 f tplayer.obj
 0001:0006746f       ??1TRIBE_Player@@UAE@XZ    0046846f f tplayer.obj
 0001:00067567       ?make_scenario_obj@TRIBE_Player@@UAEXMMMFEM@Z 00468567 f tplayer.obj
 0001:00067681       ?save@TRIBE_Player@@UAEXH@Z 00468681 f tplayer.obj
 0001:00067766       ?update@TRIBE_Player@@UAEXXZ 00468766 f tplayer.obj
 0001:0006795b       ?scenario_save@TRIBE_Player@@UAEXH@Z 0046895b f tplayer.obj
 0001:0006797f       ?scenario_load@TRIBE_Player@@UAEXHPAJM@Z 0046897f f tplayer.obj
 0001:00067b65       ?load@TRIBE_Player@@UAEXH@Z 00468b65 f tplayer.obj
 0001:00067e7f       ?load_master_object@TRIBE_Player@@QAEXHFEPAPAVRGE_Sprite@@PAPAVRGE_Sound@@@Z 00468e7f f tplayer.obj
 0001:00068062       ?tech_cost@TRIBE_Player@@QAEXFAAF00000@Z 00469062 f tplayer.obj
 0001:000680a4       ?obj_cost@TRIBE_Player@@QAEXFPAPADAAF11111M@Z 004690a4 f tplayer.obj
 0001:000684cf       ?find_obj@TRIBE_Player@@QAEPAVRGE_Static_Object@@F@Z 004694cf f tplayer.obj
 0001:00068553       ?make_new_object@TRIBE_Player@@UAEPAVRGE_Static_Object@@JMMMH@Z 00469553 f tplayer.obj
 0001:000685c2       ?interface_tech_avail@TRIBE_Player@@QAEXPAPAUItem_Avail@@PAFF@Z 004695c2 f tplayer.obj
 0001:0006883f       ?interface_item_avail@TRIBE_Player@@QAEXPAPAUItem_Avail@@PAFF@Z 0046983f f tplayer.obj
 0001:00068c89       ?interface_trade_avail@TRIBE_Player@@QAEXPAPAUTrade_Avail@@PAF@Z 00469c89 f tplayer.obj
 0001:00068ea1       ?command_make_building@TRIBE_Player@@QAEEFMM@Z 00469ea1 f tplayer.obj
 0001:00068f54       ?command_building_make_tech@TRIBE_Player@@QAEEF@Z 00469f54 f tplayer.obj
 0001:00068fb7       ?command_building_make_obj@TRIBE_Player@@QAEEF@Z 00469fb7 f tplayer.obj
 0001:0006901a       ?check_obj_cost@TRIBE_Player@@QAEEFPAFM@Z 0046a01a f tplayer.obj
 0001:000691a0       ?pay_obj_cost@TRIBE_Player@@QAEEFM@Z 0046a1a0 f tplayer.obj
 0001:000692ca       ?reimburse_obj_cost@TRIBE_Player@@QAEXF@Z 0046a2ca f tplayer.obj
 0001:000693a9       ?check_tech_cost@TRIBE_Player@@QAEEFPAF@Z 0046a3a9 f tplayer.obj
 0001:000693d7       ?pay_tech_cost@TRIBE_Player@@QAEEF@Z 0046a3d7 f tplayer.obj
 0001:00069405       ?tech_abling@TRIBE_Player@@QAEXJE@Z 0046a405 f tplayer.obj
 0001:00069453       ?rev_tech@TRIBE_Player@@QAEXJ@Z 0046a453 f tplayer.obj
 0001:000695e0       ?random_start@TRIBE_Player@@UAEXXZ 0046a5e0 f tplayer.obj
 0001:00069932       ?cancelBuild@TRIBE_Player@@UAEXHHHMMH@Z 0046a932 f tplayer.obj
 0001:0006994a       ?registerBuild@TRIBE_Player@@UAEXPAVRGE_Static_Object@@H@Z 0046a94a f tplayer.obj
 0001:00069962       ?cancelTrain@TRIBE_Player@@UAEXHHHH@Z 0046a962 f tplayer.obj
 0001:0006997a       ?registerTrain@TRIBE_Player@@UAEXHHH@Z 0046a97a f tplayer.obj
 0001:00069992       ?cancelResearch@TRIBE_Player@@UAEXHHHH@Z 0046a992 f tplayer.obj
 0001:000699aa       ?registerResearch@TRIBE_Player@@UAEXHHH@Z 0046a9aa f tplayer.obj
 0001:000699c2       ?registerObject@TRIBE_Player@@UAEXPAVRGE_Static_Object@@@Z 0046a9c2 f tplayer.obj
 0001:000699da       ?loadAIInformation@TRIBE_Player@@UAEXPAD0H@Z 0046a9da f tplayer.obj
 0001:000699f2       ?notify@TRIBE_Player@@UAEXHHHJJJ@Z 0046a9f2 f tplayer.obj
 0001:00069be9       ?get_achievement@TRIBE_Player@@QAEXEPAD@Z 0046abe9 f tplayer.obj
 0001:00069dd4       ??0TRIBE_Gaia@@QAE@HPAVTRIBE_World@@E@Z 0046add4 f tplayer.obj
 0001:00069eb4       ??0TRIBE_Gaia@@QAE@PAVTRIBE_World@@PAVRGE_Master_Player@@EPADE@Z 0046aeb4 f tplayer.obj
 0001:00069f78       ?save@TRIBE_Gaia@@UAEXH@Z  0046af78 f tplayer.obj
 0001:00069ff8       ?update@TRIBE_Gaia@@UAEXXZ 0046aff8 f tplayer.obj
 0001:0006a08b       ?load_master_object@TRIBE_Gaia@@QAEXHFEPAPAVRGE_Sprite@@PAPAVRGE_Sound@@@Z 0046b08b f tplayer.obj
 0001:0006a0bf       ?random_start@TRIBE_Gaia@@UAEXXZ 0046b0bf f tplayer.obj
 0001:0006a0e0       ??_ETRIBE_Player@@UAEPAXI@Z 0046b0e0 f tplayer.obj
 0001:0006a0e0       ??_GTRIBE_Player@@UAEPAXI@Z 0046b0e0 f tplayer.obj
 0001:0006a120       ??0TRIBE_Object_List@@QAE@XZ 0046b120 f tplayer.obj
 0001:0006a190       ??_GTAi@@QAEPAXI@Z         0046b190 f tplayer.obj
 0001:0006a1d0       ??_GTRIBE_Player_Tech@@QAEPAXI@Z 0046b1d0 f tplayer.obj
 0001:0006a210       ??_GTRIBE_Gaia@@UAEPAXI@Z  0046b210 f tplayer.obj
 0001:0006a210       ??_ETRIBE_Gaia@@UAEPAXI@Z  0046b210 f tplayer.obj
 0001:0006a250       ??1TRIBE_Gaia@@UAE@XZ      0046b250 f tplayer.obj
 0001:0006a2b0       ??0TribeMenuDialog@@QAE@PAVTPanel@@@Z 0046b2b0 f dlg_menu.obj
 0001:0006ace2       ??1TribeMenuDialog@@UAE@XZ 0046bce2 f dlg_menu.obj
 0001:0006ae08       ?action@TribeMenuDialog@@MAEJPAVTPanel@@JKK@Z 0046be08 f dlg_menu.obj
 0001:0006b2a6       ?draw@TribeMenuDialog@@UAEXXZ 0046c2a6 f dlg_menu.obj
 0001:0006b3c0       ??_GTribeMenuDialog@@UAEPAXI@Z 0046c3c0 f dlg_menu.obj
 0001:0006b3c0       ??_ETribeMenuDialog@@UAEPAXI@Z 0046c3c0 f dlg_menu.obj
 0001:0006b400       ??0RGE_Color_Table@@QAE@H@Z 0046c400 f color.obj
 0001:0006b4fd       ??0RGE_Color_Table@@QAE@PAU_iobuf@@F@Z 0046c4fd f color.obj
 0001:0006b5c3       ??1RGE_Color_Table@@UAE@XZ 0046c5c3 f color.obj
 0001:0006b5e2       ?save@RGE_Color_Table@@QAEXH@Z 0046c5e2 f color.obj
 0001:0006b670       ??_ERGE_Color_Table@@UAEPAXI@Z 0046c670 f color.obj
 0001:0006b670       ??_GRGE_Color_Table@@UAEPAXI@Z 0046c670 f color.obj
 0001:0006b6b0       ??0TRIBE_Scenario_Header@@QAE@PAVT_Scenario@@@Z 0046c6b0 f tscenaro.obj
 0001:0006b741       ??0TRIBE_Scenario_Header@@QAE@H@Z 0046c741 f tscenaro.obj
 0001:0006b809       ?get_size@TRIBE_Scenario_Header@@UAEJXZ 0046c809 f tscenaro.obj
 0001:0006b830       ?save@TRIBE_Scenario_Header@@UAEXH@Z 0046c830 f tscenaro.obj
 0001:0006b87e       ??0T_Scenario@@QAE@PAVRGE_Game_World@@@Z 0046c87e f tscenaro.obj
 0001:0006b93a       ?InitializePlayerValues@T_Scenario@@QAEXXZ 0046c93a f tscenaro.obj
 0001:0006ba29       ?ClearDisabledTechnologies@T_Scenario@@AAEXXZ 0046ca29 f tscenaro.obj
 0001:0006ba72       ?InitializeAIInformation@T_Scenario@@QAEXXZ 0046ca72 f tscenaro.obj
 0001:0006bae9       ?Set_victory_all_flag@T_Scenario@@QAEXH@Z 0046cae9 f tscenaro.obj
 0001:0006bb2f       ?Get_victory_all_flag@T_Scenario@@QAEHXZ 0046cb2f f tscenaro.obj
 0001:0006bb4e       ?SetSPWhich@T_Scenario@@QAEXH@Z 0046cb4e f tscenaro.obj
 0001:0006bb94       ?GetSPWhich@T_Scenario@@QAEHXZ 0046cb94 f tscenaro.obj
 0001:0006bbb3       ?InitializeVictoryValues@T_Scenario@@QAEXXZ 0046cbb3 f tscenaro.obj
 0001:0006bcb4       ?ClearSPVictoryCondition@T_Scenario@@QAEXH@Z 0046ccb4 f tscenaro.obj
 0001:0006bd01       ?InitializeFriendlinessValues@T_Scenario@@QAEXXZ 0046cd01 f tscenaro.obj
 0001:0006bd6d       ?Set_player_attitude@T_Scenario@@QAEXHHH@Z 0046cd6d f tscenaro.obj
 0001:0006bdf3       ?Get_player_attitude@T_Scenario@@QAEHHH@Z 0046cdf3 f tscenaro.obj
 0001:0006be5d       ?Set_player_Gold@T_Scenario@@QAEXHH@Z 0046ce5d f tscenaro.obj
 0001:0006bea1       ?Set_player_Wood@T_Scenario@@QAEXHH@Z 0046cea1 f tscenaro.obj
 0001:0006bee5       ?Set_player_Food@T_Scenario@@QAEXHH@Z 0046cee5 f tscenaro.obj
 0001:0006bf29       ?Set_player_Stone@T_Scenario@@QAEXHH@Z 0046cf29 f tscenaro.obj
 0001:0006bf6d       ?Set_player_Info@T_Scenario@@QAEXHPAUPlayer_Start_Info@@@Z 0046cf6d f tscenaro.obj
 0001:0006bfbb       ?Set_Multi_Conquest@T_Scenario@@QAEXH@Z 0046cfbb f tscenaro.obj
 0001:0006bffc       ?Set_Multi_Ruins@T_Scenario@@QAEXH@Z 0046cffc f tscenaro.obj
 0001:0006c020       ?Set_Multi_Artifacts@T_Scenario@@QAEXH@Z 0046d020 f tscenaro.obj
 0001:0006c044       ?Set_Multi_Discoveries@T_Scenario@@QAEXH@Z 0046d044 f tscenaro.obj
 0001:0006c068       ?Set_Multi_Exploration@T_Scenario@@QAEXH@Z 0046d068 f tscenaro.obj
 0001:0006c08c       ?Set_Multi_Gold@T_Scenario@@QAEXH@Z 0046d08c f tscenaro.obj
 0001:0006c0b0       ?SetSPRectangle@T_Scenario@@QAEXHMMMM@Z 0046d0b0 f tscenaro.obj
 0001:0006c17c       ?SetSPObjectType@T_Scenario@@QAEXHH@Z 0046d17c f tscenaro.obj
 0001:0006c1c1       ?SetSPPlayerID@T_Scenario@@QAEXHH@Z 0046d1c1 f tscenaro.obj
 0001:0006c206       ?SetSPAllFlag@T_Scenario@@QAEXHH@Z 0046d206 f tscenaro.obj
 0001:0006c24b       ?SetSPAttribType@T_Scenario@@QAEXHH@Z 0046d24b f tscenaro.obj
 0001:0006c290       ?SetSPVictoryType@T_Scenario@@QAEXHH@Z 0046d290 f tscenaro.obj
 0001:0006c2d5       ?SetSPObject@T_Scenario@@QAEXHPAVRGE_Static_Object@@@Z 0046d2d5 f tscenaro.obj
 0001:0006c360       ?SetSPDestObjectID@T_Scenario@@QAEXHPAVRGE_Static_Object@@@Z 0046d360 f tscenaro.obj
 0001:0006c3eb       ?SetSPAmount@T_Scenario@@QAEXHH@Z 0046d3eb f tscenaro.obj
 0001:0006c430       ?SetPlayerAlliedVictory@T_Scenario@@QAEXHH@Z 0046d430 f tscenaro.obj
 0001:0006c458       ?SetDisabledTechnology@T_Scenario@@QAEXHHH@Z 0046d458 f tscenaro.obj
 0001:0006c48c       ?SetTechTree@T_Scenario@@QAEXH@Z 0046d48c f tscenaro.obj
 0001:0006c4ba       ?SetPlayerAge@T_Scenario@@QAEXHH@Z 0046d4ba f tscenaro.obj
 0001:0006c4e2       ?Get_player_Gold@T_Scenario@@QAEHH@Z 0046d4e2 f tscenaro.obj
 0001:0006c525       ?Get_player_Wood@T_Scenario@@QAEHH@Z 0046d525 f tscenaro.obj
 0001:0006c568       ?Get_player_Food@T_Scenario@@QAEHH@Z 0046d568 f tscenaro.obj
 0001:0006c5ab       ?Get_player_Stone@T_Scenario@@QAEHH@Z 0046d5ab f tscenaro.obj
 0001:0006c5ee       ?Get_player_Info@T_Scenario@@QAEPAUPlayer_Start_Info@@H@Z 0046d5ee f tscenaro.obj
 0001:0006c631       ?Get_Multi_Conquest@T_Scenario@@QAEHXZ 0046d631 f tscenaro.obj
 0001:0006c650       ?Get_Multi_Ruins@T_Scenario@@QAEHXZ 0046d650 f tscenaro.obj
 0001:0006c66f       ?Get_Multi_Artifacts@T_Scenario@@QAEHXZ 0046d66f f tscenaro.obj
 0001:0006c68e       ?Get_Multi_Discoveries@T_Scenario@@QAEHXZ 0046d68e f tscenaro.obj
 0001:0006c6ad       ?Get_Multi_Exploration@T_Scenario@@QAEHXZ 0046d6ad f tscenaro.obj
 0001:0006c6cc       ?Get_Multi_Gold@T_Scenario@@QAEHXZ 0046d6cc f tscenaro.obj
 0001:0006c6eb       ?GetSPRectangle@T_Scenario@@QAEXHPAM000@Z 0046d6eb f tscenaro.obj
 0001:0006c7bf       ?GetSPObjectType@T_Scenario@@QAEHH@Z 0046d7bf f tscenaro.obj
 0001:0006c801       ?GetSPPlayerID@T_Scenario@@QAEHH@Z 0046d801 f tscenaro.obj
 0001:0006c843       ?GetSPAllFlag@T_Scenario@@QAEHH@Z 0046d843 f tscenaro.obj
 0001:0006c885       ?GetSPAttribType@T_Scenario@@QAEHH@Z 0046d885 f tscenaro.obj
 0001:0006c8c7       ?GetSPAmount@T_Scenario@@QAEHH@Z 0046d8c7 f tscenaro.obj
 0001:0006c909       ?GetSPVictoryType@T_Scenario@@QAEHH@Z 0046d909 f tscenaro.obj
 0001:0006c94b       ?GetSPDestObjectID@T_Scenario@@QAEPAVRGE_Static_Object@@H@Z 0046d94b f tscenaro.obj
 0001:0006c98d       ?GetSPObject@T_Scenario@@QAEPAVRGE_Static_Object@@H@Z 0046d98d f tscenaro.obj
 0001:0006c9cf       ?GetPlayerAlliedVictory@T_Scenario@@QAEHH@Z 0046d9cf f tscenaro.obj
 0001:0006c9f4       ?GetDisabledTechnology@T_Scenario@@QAEHHH@Z 0046d9f4 f tscenaro.obj
 0001:0006ca25       ?GetTechTree@T_Scenario@@QAEHXZ 0046da25 f tscenaro.obj
 0001:0006ca44       ?GetPlayerAge@T_Scenario@@QAEHH@Z 0046da44 f tscenaro.obj
 0001:0006ca69       ??0T_Scenario@@QAE@HPAVRGE_Game_World@@@Z 0046da69 f tscenaro.obj
 0001:0006ce41       ?update@T_Scenario@@QAEXXZ 0046de41 f tscenaro.obj
 0001:0006ce62       ?save@T_Scenario@@UAEXH@Z  0046de62 f tscenaro.obj
 0001:0006d0a1       ?SaveAttributesIntoPlayers@T_Scenario@@AAEXXZ 0046e0a1 f tscenaro.obj
 0001:0006d20d       ?Save_victory_conditions_into_players@T_Scenario@@QAEXH@Z 0046e20d f tscenaro.obj
 0001:0006de3b       ?rehook@T_Scenario@@UAEXXZ 0046ee3b f tscenaro.obj
 0001:0006df8b       ?get_object_pointer@T_Scenario@@EAEPAVRGE_Static_Object@@H@Z 0046ef8b f tscenaro.obj
 0001:0006e001       ?get_object_ID@T_Scenario@@AAEHPAVRGE_Static_Object@@@Z 0046f001 f tscenaro.obj
 0001:0006e01f       ?WriteDisabledTechnologiesToMainSystem@T_Scenario@@AAEXXZ 0046f01f f tscenaro.obj
 0001:0006e252       ?any_sp_victory@T_Scenario@@QAEHXZ 0046f252 f tscenaro.obj
 0001:0006e2e4       ?set_player_tech@T_Scenario@@QAEXPAVTRIBE_Player@@@Z 0046f2e4 f tscenaro.obj
 0001:0006e4d0       ?get_error_code@RGE_Scenario_Header@@QAEHXZ 0046f4d0 f tscenaro.obj
 0001:0006e4f0       ??_GT_Scenario@@UAEPAXI@Z  0046f4f0 f tscenaro.obj
 0001:0006e4f0       ??_ET_Scenario@@UAEPAXI@Z  0046f4f0 f tscenaro.obj
 0001:0006e530       ??1T_Scenario@@UAE@XZ      0046f530 f tscenaro.obj
 0001:0006e590       ??0RGE_Animated_Object@@QAE@PAVRGE_Master_Animated_Object@@PAVRGE_Player@@MMMH@Z 0046f590 f ani_obj.obj
 0001:0006e63d       ??0RGE_Animated_Object@@QAE@HPAVRGE_Game_World@@H@Z 0046f63d f ani_obj.obj
 0001:0006e6d2       ?setup@RGE_Animated_Object@@MAEHPAVRGE_Master_Animated_Object@@PAVRGE_Player@@MMM@Z 0046f6d2 f ani_obj.obj
 0001:0006e726       ?setup@RGE_Animated_Object@@MAEHHPAVRGE_Game_World@@@Z 0046f726 f ani_obj.obj
 0001:0006e771       ?update@RGE_Animated_Object@@UAEEXZ 0046f771 f ani_obj.obj
 0001:0006e85c       ?save@RGE_Animated_Object@@UAEXH@Z 0046f85c f ani_obj.obj
 0001:0006e897       ?transform@RGE_Animated_Object@@UAEXPAVRGE_Master_Static_Object@@@Z 0046f897 f ani_obj.obj
 0001:0006e8bb       ?set_being_worked_on@RGE_Animated_Object@@UAEXPAVRGE_Action_Object@@FE@Z 0046f8bb f ani_obj.obj
 0001:0006e8e7       ?release_being_worked_on@RGE_Animated_Object@@UAEXPAVRGE_Static_Object@@@Z 0046f8e7 f ani_obj.obj
 0001:0006e930       ?do_command@RGE_Static_Object@@UAEXPAV1@MMM@Z 0046f930 f ani_obj.obj
 0001:0006e950       ?move_to@RGE_Static_Object@@UAEXPAV1@MMM@Z 0046f950 f ani_obj.obj
 0001:0006e970       ?work@RGE_Static_Object@@UAEXPAV1@MMM@Z 0046f970 f ani_obj.obj
 0001:0006e990       ?stop@RGE_Static_Object@@UAEXXZ 0046f990 f ani_obj.obj
 0001:0006e9b0       ?play_command_sound@RGE_Static_Object@@UAEXXZ 0046f9b0 f ani_obj.obj
 0001:0006e9d0       ?get_target_obj@RGE_Static_Object@@UAEPAV1@XZ 0046f9d0 f ani_obj.obj
 0001:0006e9f0       ?maximumSpeed@RGE_Static_Object@@UAEMXZ 0046f9f0 f ani_obj.obj
 0001:0006ea10       ?facetToNextWaypoint@RGE_Static_Object@@UBEEXZ 0046fa10 f ani_obj.obj
 0001:0006ea30       ??_ERGE_Animated_Object@@UAEPAXI@Z 0046fa30 f ani_obj.obj
 0001:0006ea30       ??_GRGE_Animated_Object@@UAEPAXI@Z 0046fa30 f ani_obj.obj
 0001:0006ea70       ??1RGE_Animated_Object@@UAE@XZ 0046fa70 f ani_obj.obj
 0001:0006ead0       ??0RGE_Dialog_List@@QAE@PAD@Z 0046fad0 f rdlg_lst.obj
 0001:0006eb45       ?setup@RGE_Dialog_List@@QAEHPAVTScreenPanel@@HPAD@Z 0046fb45 f rdlg_lst.obj
 0001:0006ee1c       ??1RGE_Dialog_List@@UAE@XZ 0046fe1c f rdlg_lst.obj
 0001:0006ef37       ?get_list_id@RGE_Dialog_List@@UAEFXZ 0046ff37 f rdlg_lst.obj
 0001:0006ef91       ?create_list@RGE_Dialog_List@@MAEHXZ 0046ff91 f rdlg_lst.obj
 0001:0006eff2       ?create_object_list@RGE_Dialog_List@@IAEHXZ 0046fff2 f rdlg_lst.obj
 0001:0006f1e2       ?create_terrain_list@RGE_Dialog_List@@IAEHXZ 004701e2 f rdlg_lst.obj
 0001:0006f4ac       ?rdlg_list_compare@@YAHPBX0@Z 004704ac f rdlg_lst.obj
 0001:0006f4cc       ?sort_list@RGE_Dialog_List@@IAEXXZ 004704cc f rdlg_lst.obj
 0001:0006f506       ?calc_list_line@RGE_Dialog_List@@IAEXXZ 00470506 f rdlg_lst.obj
 0001:0006f5cc       ?get_cur_id@RGE_Dialog_List@@MAEFXZ 004705cc f rdlg_lst.obj
 0001:0006f640       ??_GRGE_Dialog_List@@UAEPAXI@Z 00470640 f rdlg_lst.obj
 0001:0006f640       ??_ERGE_Dialog_List@@UAEPAXI@Z 00470640 f rdlg_lst.obj
 0001:0006f680       ??0TShape@@QAE@XZ          00470680 f Shape.obj
 0001:0006f6e5       ??0TShape@@QAE@PADJ@Z      004706e5 f Shape.obj
 0001:0006fa4c       ??1TShape@@QAE@XZ          00470a4c f Shape.obj
 0001:0006fb22       ?Check_shape@TShape@@AAEEJPAD@Z 00470b22 f Shape.obj
 0001:0006fcc9       ?is_loaded@TShape@@QAEHXZ  00470cc9 f Shape.obj
 0001:0006fd04       ?shape_bounds@TShape@@QAEEJAAF0@Z 00470d04 f Shape.obj
 0001:0006fdc5       ?shape_count@TShape@@QAEJXZ 00470dc5 f Shape.obj
 0001:0006fe21       ?shape_minmax@TShape@@QAEEAAJ000J@Z 00470e21 f Shape.obj
 0001:0006ff46       ?shape_check@TShape@@QAEEJJJ@Z 00470f46 f Shape.obj
 0001:000704d0       ?shape_draw@TShape@@QAEEPAVTDrawArea@@JJJEPAE@Z 004714d0 f Shape.obj
 0001:00070a0d       ?shape_draw_unclipped@TShape@@AAEEPAVTDrawArea@@JJJ@Z 00471a0d f Shape.obj
 0001:00070c85       ?shape_color_trans_unclipped@TShape@@AAEEPAVTDrawArea@@JJJPAE@Z 00471c85 f Shape.obj
 0001:00070e34       ?shape_shadow_unclipped@TShape@@AAEEPAVTDrawArea@@JJPAE@Z 00471e34 f Shape.obj
 0001:00070ff4       ?shape_draw_clipped@TShape@@AAEEPAVTDrawArea@@JJJJJJ@Z 00471ff4 f Shape.obj
 0001:00071523       ?shape_color_trans_clipped@TShape@@AAEEPAVTDrawArea@@JJJJJJJPAE@Z 00472523 f Shape.obj
 0001:00071adc       ?shape_shadow_clipped@TShape@@AAEEPAVTDrawArea@@JJJJJJPAE@Z 00472adc f Shape.obj
 0001:00072082       ?shape_mirror@TShape@@QAEEPAVTDrawArea@@JJJEPAE@Z 00473082 f Shape.obj
 0001:000725bb       ?shape_mirror_unclipped@TShape@@AAEEPAVTDrawArea@@JJ@Z 004735bb f Shape.obj
 0001:00072767       ?shape_mirror_color_trans_unclipped@TShape@@AAEEPAVTDrawArea@@JJJPAE@Z 00473767 f Shape.obj
 0001:00072917       ?shape_mirror_shadow_unclipped@TShape@@AAEEPAVTDrawArea@@JJPAE@Z 00473917 f Shape.obj
 0001:00072ad1       ?shape_mirror_clipped@TShape@@AAEEPAVTDrawArea@@JJJJJJ@Z 00473ad1 f Shape.obj
 0001:00073088       ?shape_mirror_color_trans_clipped@TShape@@AAEEPAVTDrawArea@@JJJJJJJPAE@Z 00474088 f Shape.obj
 0001:0007367f       ?shape_mirror_shadow_clipped@TShape@@AAEEPAVTDrawArea@@JJJJJJPAE@Z 0047467f f Shape.obj
 0001:00073c59       ?shape_dither@TShape@@QAEEPAVTDrawArea@@JJJJJ@Z 00474c59 f Shape.obj
 0001:00073e60       ?shape_dithered_unclipped@TShape@@AAEEPAVTDrawArea@@JJJJ@Z 00474e60 f Shape.obj
 0001:0007410b       ?shape_dithered_clipped@TShape@@AAEEPAVTDrawArea@@JJJJJJJJ@Z 0047510b f Shape.obj
 0001:00074930       ?ListHeadBase@TSpan_List_Manager@@QAEPAEXZ 00475930 f Shape.obj
 0001:00074950       ?ListTailBase@TSpan_List_Manager@@QAEPAEXZ 00475950 f Shape.obj
 0001:00074970       ?GetSpanNumLines@TSpan_List_Manager@@QAEHXZ 00475970 f Shape.obj
 0001:00074990       ??0RGE_Master_Combat_Object@@QAE@PAV0@H@Z 00475990 f m_co_obj.obj
 0001:00074a1d       ??0RGE_Master_Combat_Object@@QAE@HPAPAVRGE_Sprite@@PAPAVRGE_Sound@@H@Z 00475a1d f m_co_obj.obj
 0001:00074aba       ??0RGE_Master_Combat_Object@@QAE@PAU_iobuf@@PAPAVRGE_Sprite@@PAPAVRGE_Sound@@FH@Z 00475aba f m_co_obj.obj
 0001:00074b5f       ?setup@RGE_Master_Combat_Object@@IAEHPAV1@@Z 00475b5f f m_co_obj.obj
 0001:00074dcd       ?setup@RGE_Master_Combat_Object@@IAEHHPAPAVRGE_Sprite@@PAPAVRGE_Sound@@@Z 00475dcd f m_co_obj.obj
 0001:0007515b       ?setup@RGE_Master_Combat_Object@@IAEHPAU_iobuf@@PAPAVRGE_Sprite@@PAPAVRGE_Sound@@F@Z 0047615b f m_co_obj.obj
 0001:000753fd       ??1RGE_Master_Combat_Object@@UAE@XZ 004763fd f m_co_obj.obj
 0001:000754c3       ?make_new_obj@RGE_Master_Combat_Object@@UAEPAVRGE_Static_Object@@PAVRGE_Player@@MMM@Z 004764c3 f m_co_obj.obj
 0001:0007556f       ?make_new_master@RGE_Master_Combat_Object@@UAEPAVRGE_Master_Static_Object@@XZ 0047656f f m_co_obj.obj
 0001:00075609       ?copy_obj@RGE_Master_Combat_Object@@UAEXPAVRGE_Master_Static_Object@@@Z 00476609 f m_co_obj.obj
 0001:0007588d       ?modify@RGE_Master_Combat_Object@@UAEXME@Z 0047688d f m_co_obj.obj
 0001:00075a66       ?modify_delta@RGE_Master_Combat_Object@@UAEXME@Z 00476a66 f m_co_obj.obj
 0001:00075cce       ?modify_percent@RGE_Master_Combat_Object@@UAEXME@Z 00476cce f m_co_obj.obj
 0001:00075e3c       ?save@RGE_Master_Combat_Object@@UAEXH@Z 00476e3c f m_co_obj.obj
 0001:00076080       ??_ERGE_Master_Combat_Object@@UAEPAXI@Z 00477080 f m_co_obj.obj
 0001:00076080       ??_GRGE_Master_Combat_Object@@UAEPAXI@Z 00477080 f m_co_obj.obj
 0001:000760c0       ??0RGE_Panel_Time@@QAE@PAVTDrawArea@@PAVTPanel@@PAX@Z 004770c0 f rpnl_tim.obj
 0001:00076193       ?draw@RGE_Panel_Time@@UAEXXZ 00477193 f rpnl_tim.obj
 0001:00076513       ?handle_idle@RGE_Panel_Time@@UAEJXZ 00477513 f rpnl_tim.obj
 0001:00076600       ??_GRGE_Panel_Time@@UAEPAXI@Z 00477600 f rpnl_tim.obj
 0001:00076600       ??_ERGE_Panel_Time@@UAEPAXI@Z 00477600 f rpnl_tim.obj
 0001:00076640       ??1RGE_Panel_Time@@UAE@XZ  00477640 f rpnl_tim.obj
 0001:000766a0       ??0TribeLoadSavedGameScreen@@QAE@XZ 004776a0 f scr_load.obj
 0001:00076f20       ??1TribeLoadSavedGameScreen@@UAE@XZ 00477f20 f scr_load.obj
 0001:00077096       ?fillList@TribeLoadSavedGameScreen@@IAEXXZ 00478096 f scr_load.obj
 0001:00077322       ?action@TribeLoadSavedGameScreen@@MAEJPAVTPanel@@JKK@Z 00478322 f scr_load.obj
 0001:000775d0       ??_GTribeLoadSavedGameScreen@@UAEPAXI@Z 004785d0 f scr_load.obj
 0001:000775d0       ??_ETribeLoadSavedGameScreen@@UAEPAXI@Z 004785d0 f scr_load.obj
 0001:00077610       ??0TDialogPanel@@QAE@PAD@Z 00478610 f pnl_dlg.obj
 0001:000776d3       ?setup@TDialogPanel@@UAEHPAVTDrawArea@@PAVTPanel@@JJE@Z 004786d3 f pnl_dlg.obj
 0001:000777e9       ??1TDialogPanel@@UAE@XZ    004787e9 f pnl_dlg.obj
 0001:00077891       ?draw@TDialogPanel@@UAEXXZ 00478891 f pnl_dlg.obj
 0001:00077950       ??_ETDialogPanel@@UAEPAXI@Z 00478950 f pnl_dlg.obj
 0001:00077950       ??_GTDialogPanel@@UAEPAXI@Z 00478950 f pnl_dlg.obj
 0001:00077990       ??0ResearchAIModule@@QAE@PAXH@Z 00478990 f airchmod.obj
 0001:00077a86       ??1ResearchAIModule@@UAE@XZ 00478a86 f airchmod.obj
 0001:00077b22       ?setMainDecisionAI@ResearchAIModule@@QAEXPAVMainDecisionAIModule@@@Z 00478b22 f airchmod.obj
 0001:00077b46       ?resourceCost@ResearchAIModule@@QAEPAVResourceItem@@H@Z 00478b46 f airchmod.obj
 0001:00077b86       ?buildable@ResearchAIModule@@UAEHPAVBuildItem@@@Z 00478b86 f airchmod.obj
 0001:00077ba3       ?research@ResearchAIModule@@UAEXPAVBuildItem@@@Z 00478ba3 f airchmod.obj
 0001:00077bbb       ?loadTechnologyTree@ResearchAIModule@@QAEHPAD@Z 00478bbb f airchmod.obj
 0001:00077ebc       ?numberTechnologyItems@ResearchAIModule@@QBEHXZ 00478ebc f airchmod.obj
 0001:00077edb       ?technologyTreeName@ResearchAIModule@@QAEPADXZ 00478edb f airchmod.obj
 0001:00077ef9       ?removeOldTechTree@ResearchAIModule@@IAEXXZ 00478ef9 f airchmod.obj
 0001:00077f93       ?item@ResearchAIModule@@IAEPAVTechnologyItem@@H@Z 00478f93 f airchmod.obj
 0001:00078000       ??_GResearchAIModule@@UAEPAXI@Z 00479000 f airchmod.obj
 0001:00078000       ??_EResearchAIModule@@UAEPAXI@Z 00479000 f airchmod.obj
 0001:00078040       ??0TAi@@QAE@XZ             00479040 f Ai.obj
 0001:00078159       ??0TAi@@QAE@HPAVTRIBE_Player@@@Z 00479159 f Ai.obj
 0001:00078244       ??0TAi@@QAE@PAV0@PAVTRIBE_Player@@@Z 00479244 f Ai.obj
 0001:000783fb       ??0TAi@@QAE@PAU_iobuf@@@Z  004793fb f Ai.obj
 0001:00078834       ??1TAi@@QAE@XZ             00479834 f Ai.obj
 0001:00078943       ?init@TAi@@QAEXPAVTRIBE_Player@@@Z 00479943 f Ai.obj
 0001:00078d5d       ?save@TAi@@QAEXH@Z         00479d5d f Ai.obj
 0001:00078dec       ?think_ai@TAi@@QAEXM@Z     00479dec f Ai.obj
 0001:00078f6a       ?think_abount_objs@TAi@@AAEXXZ 00479f6a f Ai.obj
 0001:0007951b       ?think_about_research@TAi@@AAEXXZ 0047a51b f Ai.obj
 0001:00079531       ?think_about_men_working@TAi@@AAEXXZ 0047a531 f Ai.obj
 0001:00079547       ?think_about_buildings_working@TAi@@AAEXXZ 0047a547 f Ai.obj
 0001:0007955d       ?think_about_naval_troops@TAi@@AAEXXZ 0047a55d f Ai.obj
 0001:00079573       ?think_about_troops@TAi@@AAEXXZ 0047a573 f Ai.obj
 0001:00079589       ?think_about_orders@TAi@@AAEXXZ 0047a589 f Ai.obj
 0001:00079912       ?do_building_placement@TAi@@AAEEFMMAAM0@Z 0047a912 f Ai.obj
 0001:0007992c       ?do_orders@TAi@@AAEXXZ     0047a92c f Ai.obj
 0001:00079942       ?add_order@TAi@@AAEXEPAVRGE_Static_Object@@FM@Z 0047a942 f Ai.obj
 0001:000799d2       ?sub_order@TAi@@AAEXPAUAi_Order@@@Z 0047a9d2 f Ai.obj
 0001:00079a42       ?sort_orders@TAi@@AAEXXZ   0047aa42 f Ai.obj
 0001:00079b9e       ?delete_orders@TAi@@AAEXXZ 0047ab9e f Ai.obj
 0001:00079c08       ?print_info@TAi@@AAEXXZ    0047ac08 f Ai.obj
 0001:00079e49       ?print_info2@TAi@@AAEXF@Z  0047ae49 f Ai.obj
 0001:0007a0a4       ?print_info3@TAi@@AAEXF@Z  0047b0a4 f Ai.obj
 0001:0007a2d0       ??0RGE_Action_Explore@@QAE@HPAVRGE_Action_Object@@@Z 0047b2d0 f act_expl.obj
 0001:0007a354       ??0RGE_Action_Explore@@QAE@PAVRGE_Action_Object@@PAVRGE_Task@@MMM@Z 0047b354 f act_expl.obj
 0001:0007a3f8       ?first_in_stack@RGE_Action_Explore@@UAEXE@Z 0047b3f8 f act_expl.obj
 0001:0007a446       ?set_state@RGE_Action_Explore@@MAEXE@Z 0047b446 f act_expl.obj
 0001:0007a6b6       ?update@RGE_Action_Explore@@UAEEXZ 0047b6b6 f act_expl.obj
 0001:0007a7fc       ?work@RGE_Action_Explore@@UAEHPAVRGE_Static_Object@@MMM@Z 0047b7fc f act_expl.obj
 0001:0007a890       ??_GRGE_Action_Explore@@UAEPAXI@Z 0047b890 f act_expl.obj
 0001:0007a890       ??_ERGE_Action_Explore@@UAEPAXI@Z 0047b890 f act_expl.obj
 0001:0007a8d0       ??1RGE_Action_Explore@@UAE@XZ 0047b8d0 f act_expl.obj
 0001:0007a930       ??0RGE_Communications_Synchronize@@QAE@PAVTCommunications_Handler@@@Z 0047b930 f com_sync.obj
 0001:0007a9b5       ??1RGE_Communications_Synchronize@@QAE@XZ 0047b9b5 f com_sync.obj
 0001:0007a9cb       ?Flush@RGE_Communications_Synchronize@@QAEXXZ 0047b9cb f com_sync.obj
 0001:0007aa43       ?Add@RGE_Communications_Synchronize@@QAEHIKKK@Z 0047ba43 f com_sync.obj
 0001:0007aafa       ?ValidateChecksums@RGE_Communications_Synchronize@@IAEHIKKK@Z 0047bafa f com_sync.obj
 0001:0007abe6       ?DoChecksum@RGE_Communications_Synchronize@@QAEKXZ 0047bbe6 f com_sync.obj
 0001:0007ad21       ?SetLastWorldRandom@RGE_Communications_Synchronize@@QAEXK@Z 0047bd21 f com_sync.obj
 0001:0007ad42       ?LogChecksums@RGE_Communications_Synchronize@@IAEXIKK@Z 0047bd42 f com_sync.obj
 0001:0007ae19       ?EnableSyncChecking@RGE_Communications_Synchronize@@QAEXH@Z 0047be19 f com_sync.obj
 0001:0007ae3a       ?SetStopOnFail@RGE_Communications_Synchronize@@QAEXH@Z 0047be3a f com_sync.obj
 0001:0007ae5b       ?SetDialogOnFail@RGE_Communications_Synchronize@@QAEXH@Z 0047be5b f com_sync.obj
 0001:0007ae7c       ?SendChatMsgsAtChecksum@RGE_Communications_Synchronize@@QAEXH@Z 0047be7c f com_sync.obj
 0001:0007aea0       ??0RGE_TimeSinceLastCall@@QAE@XZ 0047bea0 f RGE_TSLC.obj
 0001:0007af4f       ??1RGE_TimeSinceLastCall@@QAE@XZ 0047bf4f f RGE_TSLC.obj
 0001:0007af65       ?GetAvg@RGE_TimeSinceLastCall@@QAEKH@Z 0047bf65 f RGE_TSLC.obj
 0001:0007b00c       ?Get@RGE_TimeSinceLastCall@@QAEKXZ 0047c00c f RGE_TSLC.obj
 0001:0007b031       ?Set@RGE_TimeSinceLastCall@@QAEKXZ 0047c031 f RGE_TSLC.obj
 0001:0007b120       ?GetAvgInfo@RGE_TimeSinceLastCall@@QAEPADH@Z 0047c120 f RGE_TSLC.obj
 0001:0007b163       ?GetHiLoMaxInfo@RGE_TimeSinceLastCall@@QAEPADH@Z 0047c163 f RGE_TSLC.obj
 0001:0007b1cb       ?GetHiLoInfo@RGE_TimeSinceLastCall@@QAEPADH@Z 0047c1cb f RGE_TSLC.obj
 0001:0007b21f       ?CPS@RGE_TimeSinceLastCall@@QAEKXZ 0047c21f f RGE_TSLC.obj
 0001:0007b255       ?GetFirstCall@RGE_TimeSinceLastCall@@QAEKXZ 0047c255 f RGE_TSLC.obj
 0001:0007b274       ?GetElapsedFirstCall@RGE_TimeSinceLastCall@@QAEPADXZ 0047c274 f RGE_TSLC.obj
 0001:0007b346       ?Test@RGE_TimeSinceLastCall@@QAEXXZ 0047c346 f RGE_TSLC.obj
 0001:0007b390       ?GetHiLo@RGE_TimeSinceLastCall@@QAEHPAK00H@Z 0047c390 f RGE_TSLC.obj
 0001:0007b4a0       ??0TRIBE_Tech@@QAE@HPAVTRIBE_World@@@Z 0047c4a0 f tech.obj
 0001:0007b7b2       ??0TRIBE_Tech@@QAE@PAD@Z   0047c7b2 f tech.obj
 0001:0007bb2c       ??1TRIBE_Tech@@QAE@XZ      0047cb2c f tech.obj
 0001:0007bbc3       ?do_tech@TRIBE_Tech@@QAEEFPAVRGE_Player@@@Z 0047cbc3 f tech.obj
 0001:0007bc31       ?save@TRIBE_Tech@@QAEXH@Z  0047cc31 f tech.obj
 0001:0007bf0b       ??0TRIBE_Player_Tech@@QAE@HPAVTRIBE_Tech@@PAVRGE_Player@@E@Z 0047cf0b f tech.obj
 0001:0007c042       ??0TRIBE_Player_Tech@@QAE@PAVTRIBE_Tech@@PAVRGE_Player@@E@Z 0047d042 f tech.obj
 0001:0007c0b8       ??1TRIBE_Player_Tech@@QAE@XZ 0047d0b8 f tech.obj
 0001:0007c0f1       ?do_tech@TRIBE_Player_Tech@@QAEEF@Z 0047d0f1 f tech.obj
 0001:0007c16e       ?research@TRIBE_Player_Tech@@QAEEFM@Z 0047d16e f tech.obj
 0001:0007c20c       ?tech_cost@TRIBE_Player_Tech@@QAEXFAAF00000@Z 0047d20c f tech.obj
 0001:0007c5cf       ?check_tech_cost@TRIBE_Player_Tech@@QAEEFPAF@Z 0047d5cf f tech.obj
 0001:0007c753       ?start_research@TRIBE_Player_Tech@@QAEEFEPAF@Z 0047d753 f tech.obj
 0001:0007c8b5       ?cancel_research@TRIBE_Player_Tech@@QAEEF@Z 0047d8b5 f tech.obj
 0001:0007c9b4       ?check_for_new_tech@TRIBE_Player_Tech@@QAEEXZ 0047d9b4 f tech.obj
 0001:0007cb3b       ?save@TRIBE_Player_Tech@@QAEXH@Z 0047db3b f tech.obj
 0001:0007cbc8       ?get_progress@TRIBE_Player_Tech@@QAEFF@Z 0047dbc8 f tech.obj
 0001:0007cc66       ?get_name@TRIBE_Player_Tech@@QAEPADF@Z 0047dc66 f tech.obj
 0001:0007cc97       ?get_button_location@TRIBE_Player_Tech@@QAEEF@Z 0047dc97 f tech.obj
 0001:0007ccc9       ?rev_tech@TRIBE_Player_Tech@@QAEEF@Z 0047dcc9 f tech.obj
 0001:0007cd69       ?disable@TRIBE_Player_Tech@@QAEXF@Z 0047dd69 f tech.obj
 0001:0007cd91       ?enable@TRIBE_Player_Tech@@QAEXF@Z 0047dd91 f tech.obj
 0001:0007cdc0       ??0RGE_Active_Sprite@@QAE@PAVRGE_Sprite@@@Z 0047ddc0 f asprite.obj
 0001:0007ce08       ??0RGE_Active_Sprite@@QAE@HPAPAVRGE_Sprite@@@Z 0047de08 f asprite.obj
 0001:0007ce9a       ??1RGE_Active_Sprite@@UAE@XZ 0047de9a f asprite.obj
 0001:0007ceb9       ?set_offset@RGE_Active_Sprite@@UAEXJJ@Z 0047deb9 f asprite.obj
 0001:0007cee3       ?save@RGE_Active_Sprite@@UAEXH@Z 0047dee3 f asprite.obj
 0001:0007cf78       ?update@RGE_Active_Sprite@@UAEXMM@Z 0047df78 f asprite.obj
 0001:0007cf90       ?draw@RGE_Active_Sprite@@UAEXFJJPAVRGE_Color_Table@@PAVTDrawArea@@@Z 0047df90 f asprite.obj
 0001:0007cfd6       ?normal_draw@RGE_Active_Sprite@@UAEXFJJPAVRGE_Color_Table@@PAVTDrawArea@@@Z 0047dfd6 f asprite.obj
 0001:0007d01c       ?shadow_draw@RGE_Active_Sprite@@UAEXFJJPAVRGE_Color_Table@@PAVTDrawArea@@E@Z 0047e01c f asprite.obj
 0001:0007d066       ?what_frame@RGE_Active_Sprite@@UAEFXZ 0047e066 f asprite.obj
 0001:0007d07f       ?set_frame@RGE_Active_Sprite@@UAEXF@Z 0047e07f f asprite.obj
 0001:0007d097       ?is_animating@RGE_Active_Sprite@@UAEEXZ 0047e097 f asprite.obj
 0001:0007d0af       ?frame_passed@RGE_Active_Sprite@@UAEEF@Z 0047e0af f asprite.obj
 0001:0007d0c9       ?looped@RGE_Active_Sprite@@UAEEXZ 0047e0c9 f asprite.obj
 0001:0007d0e1       ?get_facetindex@RGE_Active_Sprite@@UAEFF@Z 0047e0e1 f asprite.obj
 0001:0007d11a       ?get_frame@RGE_Active_Sprite@@UAEEAAF000J@Z 0047e11a f asprite.obj
 0001:0007d153       ?get_lowest_draw_level@RGE_Active_Sprite@@QAEEXZ 0047e153 f asprite.obj
 0001:0007d18d       ?setToFirstFrame@RGE_Active_Sprite@@UAEXXZ 0047e18d f asprite.obj
 0001:0007d1a3       ??0RGE_Active_Animated_Sprite@@QAE@PAVRGE_Sprite@@@Z 0047e1a3 f asprite.obj
 0001:0007d342       ??0RGE_Active_Animated_Sprite@@QAE@HPAPAVRGE_Sprite@@@Z 0047e342 f asprite.obj
 0001:0007d455       ??1RGE_Active_Animated_Sprite@@UAE@XZ 0047e455 f asprite.obj
 0001:0007d4bd       ?save@RGE_Active_Animated_Sprite@@UAEXH@Z 0047e4bd f asprite.obj
 0001:0007d574       ?update@RGE_Active_Animated_Sprite@@UAEXMM@Z 0047e574 f asprite.obj
 0001:0007d850       ?draw@RGE_Active_Animated_Sprite@@UAEXFJJPAVRGE_Color_Table@@PAVTDrawArea@@@Z 0047e850 f asprite.obj
 0001:0007d8c6       ?normal_draw@RGE_Active_Animated_Sprite@@UAEXFJJPAVRGE_Color_Table@@PAVTDrawArea@@@Z 0047e8c6 f asprite.obj
 0001:0007d93c       ?shadow_draw@RGE_Active_Animated_Sprite@@UAEXFJJPAVRGE_Color_Table@@PAVTDrawArea@@E@Z 0047e93c f asprite.obj
 0001:0007d980       ?what_frame@RGE_Active_Animated_Sprite@@UAEFXZ 0047e980 f asprite.obj
 0001:0007d99d       ?is_animating@RGE_Active_Animated_Sprite@@UAEEXZ 0047e99d f asprite.obj
 0001:0007d9e0       ?set_frame@RGE_Active_Animated_Sprite@@UAEXF@Z 0047e9e0 f asprite.obj
 0001:0007da03       ?frame_passed@RGE_Active_Animated_Sprite@@UAEEF@Z 0047ea03 f asprite.obj
 0001:0007da6a       ?looped@RGE_Active_Animated_Sprite@@UAEEXZ 0047ea6a f asprite.obj
 0001:0007da86       ?get_facetindex@RGE_Active_Animated_Sprite@@UAEFF@Z 0047ea86 f asprite.obj
 0001:0007dac5       ?get_frame@RGE_Active_Animated_Sprite@@UAEEAAF000J@Z 0047eac5 f asprite.obj
 0001:0007db04       ?setToFirstFrame@RGE_Active_Animated_Sprite@@UAEXXZ 0047eb04 f asprite.obj
 0001:0007db40       ??_ERGE_Active_Sprite@@UAEPAXI@Z 0047eb40 f asprite.obj
 0001:0007db40       ??_GRGE_Active_Sprite@@UAEPAXI@Z 0047eb40 f asprite.obj
 0001:0007db80       ??_GRGE_Active_Animated_Sprite@@UAEPAXI@Z 0047eb80 f asprite.obj
 0001:0007db80       ??_ERGE_Active_Animated_Sprite@@UAEPAXI@Z 0047eb80 f asprite.obj
 0001:0007dbc0       ??0MainDecisionAIModule@@QAE@PAXHPAVRGE_Player@@@Z 0047ebc0 f aimdmod.obj
 0001:0007dc9f       ??1MainDecisionAIModule@@UAE@XZ 0047ec9f f aimdmod.obj
 0001:0007dd85       ?setLogHistory@MainDecisionAIModule@@UAEXH@Z 0047ed85 f aimdmod.obj
 0001:0007dd9d       ?processMessage@MainDecisionAIModule@@UAEHPAVAIModuleMessage@@@Z 0047ed9d f aimdmod.obj
 0001:0007ddb7       ?update@MainDecisionAIModule@@UAEHH@Z 0047edb7 f aimdmod.obj
 0001:0007ddd4       ?addObject@MainDecisionAIModule@@UAEHPAVBaseObject@@@Z 0047edd4 f aimdmod.obj
 0001:0007de40       ?removeObject@MainDecisionAIModule@@UAEPAVBaseObject@@H@Z 0047ee40 f aimdmod.obj
 0001:0007dec7       ?numberObjects@MainDecisionAIModule@@QAEHXZ 0047eec7 f aimdmod.obj
 0001:0007dee6       ?numberObjectsWithTask@MainDecisionAIModule@@QAEHH@Z 0047eee6 f aimdmod.obj
 0001:0007df47       ?numberObjectsWithGroup@MainDecisionAIModule@@QAEHH@Z 0047ef47 f aimdmod.obj
 0001:0007dfab       ?numberObjectsWithTaskAndTarget@MainDecisionAIModule@@QAEHHH@Z 0047efab f aimdmod.obj
 0001:0007e01d       ?numberObjectsWithTargetType@MainDecisionAIModule@@QAEHH@Z 0047f01d f aimdmod.obj
 0001:0007e07e       ?numberObjectsWithTaskAndTargetType@MainDecisionAIModule@@QAEHHH@Z 0047f07e f aimdmod.obj
 0001:0007e0f0       ?object@MainDecisionAIModule@@QAEPAVBaseObject@@H@Z 0047f0f0 f aimdmod.obj
 0001:0007e150       ?object@MainDecisionAIModule@@QAEPAVBaseObject@@HHHHHHHHH@Z 0047f150 f aimdmod.obj
 0001:0007e288       ?object@MainDecisionAIModule@@QAEPAVBaseObject@@HHHHHHHHHMM@Z 0047f288 f aimdmod.obj
 0001:0007e455       ?object@MainDecisionAIModule@@QAEPAVBaseObject@@HHHHHHHHHPAV?$ManagedArray@H@@H0H@Z 0047f455 f aimdmod.obj
 0001:0007e5d5       ?object@MainDecisionAIModule@@QAEPAVBaseObject@@HHHHHHHHHMMPAV?$ManagedArray@H@@H0H@Z 0047f5d5 f aimdmod.obj
 0001:0007e7ea       ?objectGroupThatCanPerformTask@MainDecisionAIModule@@UAEHH@Z 0047f7ea f aimdmod.obj
 0001:0007e81c       ?canPerformTask@MainDecisionAIModule@@UAEHPAVBaseObject@@H@Z 0047f81c f aimdmod.obj
 0001:0007e836       ?setTaskDone@MainDecisionAIModule@@QAEHHHMM@Z 0047f836 f aimdmod.obj
 0001:0007e900       ?numberBusyObjects@MainDecisionAIModule@@QBEHXZ 0047f900 f aimdmod.obj
 0001:0007e960       ??_GMainDecisionAIModule@@UAEPAXI@Z 0047f960 f aimdmod.obj
 0001:0007e960       ??_EMainDecisionAIModule@@UAEPAXI@Z 0047f960 f aimdmod.obj
 0001:0007e9a0       ??0TRIBE_Combat_Object@@QAE@PAVTRIBE_Master_Combat_Object@@PAVRGE_Player@@MMMH@Z 0047f9a0 f t_c_obj.obj
 0001:0007ea4d       ??0TRIBE_Combat_Object@@QAE@HPAVRGE_Game_World@@H@Z 0047fa4d f t_c_obj.obj
 0001:0007eae2       ??1TRIBE_Combat_Object@@UAE@XZ 0047fae2 f t_c_obj.obj
 0001:0007eb87       ?setup@TRIBE_Combat_Object@@MAEHPAVTRIBE_Master_Combat_Object@@PAVRGE_Player@@MMM@Z 0047fb87 f t_c_obj.obj
 0001:0007ebdf       ?setup@TRIBE_Combat_Object@@MAEHHPAVRGE_Game_World@@@Z 0047fbdf f t_c_obj.obj
 0001:0007edcf       ?create_action_list@TRIBE_Combat_Object@@UAEPAVRGE_Action_List@@XZ 0047fdcf f t_c_obj.obj
 0001:0007ee64       ?update@TRIBE_Combat_Object@@UAEEXZ 0047fe64 f t_c_obj.obj
 0001:0007ee88       ?save@TRIBE_Combat_Object@@UAEXH@Z 0047fe88 f t_c_obj.obj
 0001:0007ef44       ?modify@TRIBE_Combat_Object@@UAEXME@Z 0047ff44 f t_c_obj.obj
 0001:0007ef6c       ?transform@TRIBE_Combat_Object@@QAEXPAVTRIBE_Master_Combat_Object@@@Z 0047ff6c f t_c_obj.obj
 0001:0007ef90       ?set_object_state@TRIBE_Combat_Object@@UAEXE@Z 0047ff90 f t_c_obj.obj
 0001:0007f009       ?damage@TRIBE_Combat_Object@@UAEXHPAURGE_Armor_Weapon_Info@@MPAVRGE_Player@@PAVRGE_Static_Object@@@Z 00480009 f t_c_obj.obj
 0001:0007f082       ?change_ownership@TRIBE_Combat_Object@@MAEXPAVRGE_Player@@@Z 00480082 f t_c_obj.obj
 0001:0007f1a3       ?calc_attack_modifier@TRIBE_Combat_Object@@UAEMPAVRGE_Static_Object@@@Z 004801a3 f t_c_obj.obj
 0001:0007f236       ?do_attack@TRIBE_Combat_Object@@UAEEPAVRGE_Static_Object@@PAVRGE_Combat_Object@@MMM@Z 00480236 f t_c_obj.obj
 0001:0007f2e1       ?can_attack@TRIBE_Combat_Object@@UAEEXZ 004802e1 f t_c_obj.obj
 0001:0007f2ff       ?reposition_artifact@TRIBE_Combat_Object@@QAEXXZ 004802ff f t_c_obj.obj
 0001:0007f778       ?can_debark@TRIBE_Combat_Object@@QAEHXZ 00480778 f t_c_obj.obj
 0001:0007f7ca       ?hunt@TRIBE_Combat_Object@@UAEHHH@Z 004807ca f t_c_obj.obj
 0001:0007fa13       ?convert@TRIBE_Combat_Object@@UAEHHH@Z 00480a13 f t_c_obj.obj
 0001:0007fc5c       ?heal@TRIBE_Combat_Object@@UAEHHH@Z 00480c5c f t_c_obj.obj
 0001:0007fea5       ?repair@TRIBE_Combat_Object@@UAEHHH@Z 00480ea5 f t_c_obj.obj
 0001:000800ee       ?build@TRIBE_Combat_Object@@UAEHHH@Z 004810ee f t_c_obj.obj
 0001:00080337       ?trade@TRIBE_Combat_Object@@UAEHHH@Z 00481337 f t_c_obj.obj
 0001:00080580       ?initUnitAI@TRIBE_Combat_Object@@MAEXXZ 00481580 f t_c_obj.obj
 0001:00080b4c       ?lines_intersect@@YAHMMMMMMMM@Z 00481b4c f t_c_obj.obj
 0001:00080b61       ?higher_than_target@TRIBE_Combat_Object@@UAEHPAVRGE_Static_Object@@@Z 00481b61 f t_c_obj.obj
 0001:00080f30       ??_ETRIBE_Combat_Object@@UAEPAXI@Z 00481f30 f t_c_obj.obj
 0001:00080f30       ??_GTRIBE_Combat_Object@@UAEPAXI@Z 00481f30 f t_c_obj.obj
 0001:00080f70       ?fabs@@YAMM@Z              00481f70 f t_c_obj.obj
 0001:00080f90       _fabsf                     00481f90 f t_c_obj.obj
 0001:00080fc0       ??0ResourceAIModule@@QAE@PAXHHHHH@Z 00481fc0 f airesmod.obj
 0001:00081174       ??1ResourceAIModule@@UAE@XZ 00482174 f airesmod.obj
 0001:000812bc       ?processMessage@ResourceAIModule@@UAEHPAVAIModuleMessage@@@Z 004822bc f airesmod.obj
 0001:000812d6       ?update@ResourceAIModule@@UAEHH@Z 004822d6 f airesmod.obj
 0001:000812f0       ?setCallbackMessage@ResourceAIModule@@UAEXPAVAIModuleMessage@@@Z 004822f0 f airesmod.obj
 0001:00081308       ?setMainDecisionAI@ResourceAIModule@@QAEXPAVMainDecisionAIModule@@@Z 00482308 f airesmod.obj
 0001:0008132c       ?numberResources@ResourceAIModule@@QBEHXZ 0048232c f airesmod.obj
 0001:0008134b       ?resource@ResourceAIModule@@QBEHH@Z 0048234b f airesmod.obj
 0001:00081398       ?resourcesAvailable@ResourceAIModule@@QAEHPAVResourceItem@@@Z 00482398 f airesmod.obj
 0001:00081431       ?unavailableResource@ResourceAIModule@@QAEHPAVResourceItem@@@Z 00482431 f airesmod.obj
 0001:000814ce       ?minValueOfResource@ResourceAIModule@@QBEHH@Z 004824ce f airesmod.obj
 0001:0008151b       ?maxValueOfResource@ResourceAIModule@@QBEHH@Z 0048251b f airesmod.obj
 0001:00081568       ?setResource@ResourceAIModule@@QAEXHH@Z 00482568 f airesmod.obj
 0001:000815ec       ?setResources@ResourceAIModule@@QAEXPAVResourceItem@@@Z 004825ec f airesmod.obj
 0001:0008166d       ?incrementResource@ResourceAIModule@@QAEXHH@Z 0048266d f airesmod.obj
 0001:000816fb       ?incrementResources@ResourceAIModule@@QAEXPAVResourceItem@@@Z 004826fb f airesmod.obj
 0001:0008177c       ?decrementResource@ResourceAIModule@@QAEXHH@Z 0048277c f airesmod.obj
 0001:0008180e       ?decrementResources@ResourceAIModule@@QAEXPAVResourceItem@@@Z 0048280e f airesmod.obj
 0001:0008188f       ?setResourceMin@ResourceAIModule@@QAEXHH@Z 0048288f f airesmod.obj
 0001:000818d5       ?setResourceMax@ResourceAIModule@@QAEXHH@Z 004828d5 f airesmod.obj
 0001:0008191b       ?filterOutMessage@ResourceAIModule@@MAEHPAVAIModuleMessage@@@Z 0048291b f airesmod.obj
 0001:0008193f       ?addResourceType@ResourceAIModule@@QAEXHH@Z 0048293f f airesmod.obj
 0001:00081a2a       ?isResourceType@ResourceAIModule@@QAEHHH@Z 00482a2a f airesmod.obj
 0001:00081b1f       ?numberResourceTypes@ResourceAIModule@@QAEHH@Z 00482b1f f airesmod.obj
 0001:00081b46       ?lowestResourceType@ResourceAIModule@@QBEHXZ 00482b46 f airesmod.obj
 0001:00081b70       ??_GResourceAIModule@@UAEPAXI@Z 00482b70 f airesmod.obj
 0001:00081b70       ??_EResourceAIModule@@UAEPAXI@Z 00482b70 f airesmod.obj
 0001:00081bb0       ??0TradeAIModule@@QAE@PAXH@Z 00482bb0 f aitrdmod.obj
 0001:00081c40       ??1TradeAIModule@@UAE@XZ   00482c40 f aitrdmod.obj
 0001:00081ca8       ?setMainDecisionAI@TradeAIModule@@QAEXPAVMainDecisionAIModule@@@Z 00482ca8 f aitrdmod.obj
 0001:00081cd0       ??_GTradeAIModule@@UAEPAXI@Z 00482cd0 f aitrdmod.obj
 0001:00081cd0       ??_ETradeAIModule@@UAEPAXI@Z 00482cd0 f aitrdmod.obj
 0001:00081d10       ??0RGE_Static_Object@@QAE@PAVRGE_Master_Static_Object@@PAVRGE_Player@@MMMH@Z 00482d10 f stat_obj.obj
 0001:00081d90       ?getSpeed@RGE_Static_Object@@UBEMXZ 00482d90 f stat_obj.obj
 0001:00081da0       ??_ERGE_Static_Object@@UAEPAXI@Z 00482da0 f stat_obj.obj
 0001:00081da0       ??_GRGE_Static_Object@@UAEPAXI@Z 00482da0 f stat_obj.obj
 0001:00081dc0       ??0RGE_Static_Object@@QAE@HPAVRGE_Game_World@@H@Z 00482dc0 f stat_obj.obj
 0001:00081e20       ??1RGE_Static_Object@@UAE@XZ 00482e20 f stat_obj.obj
 0001:00081f80       ?setup@RGE_Static_Object@@MAEHPAVRGE_Master_Static_Object@@PAVRGE_Player@@MMM@Z 00482f80 f stat_obj.obj
 0001:00082110       ?setup@RGE_Static_Object@@MAEHHPAVRGE_Game_World@@@Z 00483110 f stat_obj.obj
 0001:00082340       ?create_object_list@RGE_Static_Object@@MAEPAVRGE_Object_List@@XZ 00483340 f stat_obj.obj
 0001:000823b0       ?create_sprite_list@RGE_Static_Object@@MAEPAVRGE_Active_Sprite_List@@XZ 004833b0 f stat_obj.obj
 0001:00082420       ?get_starting_attribute@RGE_Static_Object@@QAEXXZ 00483420 f stat_obj.obj
 0001:00082460       ?give_attribute_to_owner@RGE_Static_Object@@QAEXXZ 00483460 f stat_obj.obj
 0001:000824b0       ?take_attribute_from_owner@RGE_Static_Object@@QAEXXZ 004834b0 f stat_obj.obj
 0001:00082500       ?draw@RGE_Static_Object@@UAEXPAVTDrawArea@@FF@Z 00483500 f stat_obj.obj
 0001:000825a0       ?shadow_draw@RGE_Static_Object@@UAEXPAVTDrawArea@@FFE@Z 004835a0 f stat_obj.obj
 0001:00082600       ?normal_draw@RGE_Static_Object@@UAEXPAVTDrawArea@@FF@Z 00483600 f stat_obj.obj
 0001:000826a0       ?draw_front_frame@RGE_Static_Object@@UAEXPAVTDrawArea@@FF@Z 004836a0 f stat_obj.obj
 0001:00082740       ?draw_back_frame@RGE_Static_Object@@UAEXPAVTDrawArea@@FF@Z 00483740 f stat_obj.obj
 0001:000827c0       ?get_point@RGE_Static_Object@@QAEXAAF0MMMMMFF@Z 004837c0 f stat_obj.obj
 0001:00082810       ?draw_frame_3d_square_back@RGE_Static_Object@@QAEXPAVTDrawArea@@FF@Z 00483810 f stat_obj.obj
 0001:00082a00       ?draw_frame_3d_square_front@RGE_Static_Object@@QAEXPAVTDrawArea@@FF@Z 00483a00 f stat_obj.obj
 0001:00082cb0       ?draw_frame_3d_cube_back@RGE_Static_Object@@QAEXPAVTDrawArea@@FF@Z 00483cb0 f stat_obj.obj
 0001:00083100       ?draw_frame_3d_cube_front@RGE_Static_Object@@QAEXPAVTDrawArea@@FF@Z 00484100 f stat_obj.obj
 0001:00083b90       ?draw_frame@RGE_Static_Object@@UAEXPAVTDrawArea@@FF@Z 00484b90 f stat_obj.obj
 0001:00083cc0       ?update@RGE_Static_Object@@UAEEXZ 00484cc0 f stat_obj.obj
 0001:00083e30       ?check_damage_sprites@RGE_Static_Object@@UAEXXZ 00484e30 f stat_obj.obj
 0001:00084050       ?spawn_death_obj@RGE_Static_Object@@UAEPAV1@XZ 00485050 f stat_obj.obj
 0001:00084090       ?rehook@RGE_Static_Object@@UAEXXZ 00485090 f stat_obj.obj
 0001:000840c0       ?get_object_pointer@RGE_Static_Object@@QAEPAV1@J@Z 004850c0 f stat_obj.obj
 0001:00084130       ?get_sprite_pointer@RGE_Static_Object@@QAEPAVRGE_Sprite@@F@Z 00485130 f stat_obj.obj
 0001:00084160       ?save@RGE_Static_Object@@UAEXH@Z 00485160 f stat_obj.obj
 0001:00084320       ?teleport@RGE_Static_Object@@UAEMMMM@Z 00485320 f stat_obj.obj
 0001:00084870       ?new_sprite@RGE_Static_Object@@UAEXPAVRGE_Sprite@@@Z 00485870 f stat_obj.obj
 0001:000848b0       ?add_overlay_sprite@RGE_Static_Object@@UAEXPAVRGE_Sprite@@E@Z 004858b0 f stat_obj.obj
 0001:000848d0       ?remove_overlay_sprite@RGE_Static_Object@@UAEXPAVRGE_Sprite@@@Z 004858d0 f stat_obj.obj
 0001:000848e0       ?change_ownership@RGE_Static_Object@@UAEXPAVRGE_Player@@@Z 004858e0 f stat_obj.obj
 0001:000849a0       ?modify@RGE_Static_Object@@UAEXME@Z 004859a0 f stat_obj.obj
 0001:000849e0       ?modify_delta@RGE_Static_Object@@UAEXME@Z 004859e0 f stat_obj.obj
 0001:00084a30       ?modify_percent@RGE_Static_Object@@UAEXME@Z 00485a30 f stat_obj.obj
 0001:00084a70       ?transform@RGE_Static_Object@@UAEXPAVRGE_Master_Static_Object@@@Z 00485a70 f stat_obj.obj
 0001:00084ad0       ?copy_obj@RGE_Static_Object@@UAEXPAVRGE_Master_Static_Object@@@Z 00485ad0 f stat_obj.obj
 0001:00084b50       ?destroy_obj@RGE_Static_Object@@UAEXXZ 00485b50 f stat_obj.obj
 0001:00084b60       ?die_die_die@RGE_Static_Object@@QAEXXZ 00485b60 f stat_obj.obj
 0001:00084b70       ?set_object_state@RGE_Static_Object@@UAEXE@Z 00485b70 f stat_obj.obj
 0001:00084bb0       ?check_object_bounds@RGE_Static_Object@@QAEPAV1@XZ 00485bb0 f stat_obj.obj
 0001:00084da0       ?get_terrain_speed@RGE_Static_Object@@QAEME@Z 00485da0 f stat_obj.obj
 0001:00084dd0       ?is_moving@RGE_Static_Object@@UAEEXZ 00485dd0 f stat_obj.obj
 0001:00084de0       ?is_dying@RGE_Static_Object@@QAEEXZ 00485de0 f stat_obj.obj
 0001:00084e00       ?get_frame@RGE_Static_Object@@QAEHAAF000@Z 00485e00 f stat_obj.obj
 0001:00084e50       ?more_room@RGE_Static_Object@@QAEEXZ 00485e50 f stat_obj.obj
 0001:00084e70       ?enter_obj@RGE_Static_Object@@QAEXPAV1@@Z 00485e70 f stat_obj.obj
 0001:00084ec0       ?exit_obj@RGE_Static_Object@@QAEXXZ 00485ec0 f stat_obj.obj
 0001:00084ee0       ?explore_terrain@RGE_Static_Object@@UAEHPAVRGE_Player@@EE@Z 00485ee0 f stat_obj.obj
 0001:000853a0       ?damage@RGE_Static_Object@@UAEXHPAURGE_Armor_Weapon_Info@@MPAVRGE_Player@@PAV1@@Z 004863a0 f stat_obj.obj
 0001:000853f0       ?calculateDamage@RGE_Static_Object@@UAEMHPAURGE_Armor_Weapon_Info@@MPAVRGE_Player@@PAV1@@Z 004863f0 f stat_obj.obj
 0001:00085440       ?rotate@RGE_Static_Object@@UAEXJ@Z 00486440 f stat_obj.obj
 0001:00085470       ?set_attribute@RGE_Static_Object@@UAEXFM@Z 00486470 f stat_obj.obj
 0001:00085490       ?set_attribute_amount@RGE_Static_Object@@UAEXMEE@Z 00486490 f stat_obj.obj
 0001:000854e0       ?heal@RGE_Static_Object@@UAEEM@Z 004864e0 f stat_obj.obj
 0001:00085530       ?notify_of_relation@RGE_Static_Object@@UAEXJE@Z 00486530 f stat_obj.obj
 0001:00085540       ?set_being_worked_on@RGE_Static_Object@@UAEXPAVRGE_Action_Object@@FE@Z 00486540 f stat_obj.obj
 0001:00085560       ?release_being_worked_on@RGE_Static_Object@@UAEXPAV1@@Z 00486560 f stat_obj.obj
 0001:00085590       ?search_for_object_group@RGE_Static_Object@@QAEPAV1@FEEM@Z 00486590 f stat_obj.obj
 0001:00085730       ?search_for_object_id@RGE_Static_Object@@QAEPAV1@FEEM@Z 00486730 f stat_obj.obj
 0001:00085890       ?search_for_tile_type@RGE_Static_Object@@QAEPAURGE_Tile@@FPAF0M@Z 00486890 f stat_obj.obj
 0001:00085930       ?search_for_explore@RGE_Static_Object@@QAEEPAF0FF@Z 00486930 f stat_obj.obj
 0001:000859a0       ?search_for_enemy@RGE_Static_Object@@QAEPAV1@FFM@Z 004869a0 f stat_obj.obj
 0001:00085ab0       ?search_map@RGE_Static_Object@@QAEPAXPAF0P6APAXPAURGE_Tile@@FFPAV1@PAVRGE_Master_Static_Object@@@ZFFEMFF@Z 00486ab0 f stat_obj.obj
 0001:000861b0       ?inRange@RGE_Static_Object@@QAEHPAV1@M@Z 004871b0 f stat_obj.obj
 0001:00086290       ?distance_to_object@RGE_Static_Object@@QAEMPAV1@@Z 00487290 f stat_obj.obj
 0001:00086350       ?distance_to_position@RGE_Static_Object@@QAEMMMM@Z 00487350 f stat_obj.obj
 0001:00086400       ?hit_test@RGE_Static_Object@@QAEEFFFFF@Z 00487400 f stat_obj.obj
 0001:00086510       ?box_hit_test@RGE_Static_Object@@QAEEFFFFFF@Z 00487510 f stat_obj.obj
 0001:000866e0       ?set_location@RGE_Static_Object@@QAEXMMM@Z 004876e0 f stat_obj.obj
 0001:00086700       ?new_angle@RGE_Static_Object@@UAEXM@Z 00487700 f stat_obj.obj
 0001:00086710       ?drop_held_objects@RGE_Static_Object@@QAEEXZ 00487710 f stat_obj.obj
 0001:00086790       ?find_drop_location@RGE_Static_Object@@QAEEAAM0PAVRGE_Master_Static_Object@@@Z 00487790 f stat_obj.obj
 0001:00086950       ??0RGE_Check_List@@QAE@XZ  00487950 f stat_obj.obj
 0001:00086960       ??1RGE_Check_List@@QAE@XZ  00487960 f stat_obj.obj
 0001:00086990       ?add_node@RGE_Check_List@@QAEXPAVRGE_Static_Object@@MME@Z 00487990 f stat_obj.obj
 0001:000869d0       ?make_object_bounds_list@RGE_Static_Object@@QAEPAVRGE_Check_List@@M@Z 004879d0 f stat_obj.obj
 0001:00086cd0       ?passableTile@RGE_Static_Object@@UAEHMM@Z 00487cd0 f stat_obj.obj
 0001:00086ef0       ?boundToFacet@RGE_Static_Object@@QAEHMMH@Z 00487ef0 f stat_obj.obj
 0001:00086fc0       ?numberFacets@RGE_Static_Object@@QAEHXZ 00487fc0 f stat_obj.obj
 0001:00086fd0       ?underAttack@RGE_Static_Object@@UBEEXZ 00487fd0 f stat_obj.obj
 0001:00086fe0       ?setUnderAttack@RGE_Static_Object@@UAEXE@Z 00487fe0 f stat_obj.obj
 0001:00086ff0       ?addToSecondaryTiles@RGE_Static_Object@@QAEXXZ 00487ff0 f stat_obj.obj
 0001:000871b0       ?removeFromSecondaryTiles@RGE_Static_Object@@QAEXXZ 004881b0 f stat_obj.obj
 0001:000871e0       ?objectCollisionList@RGE_Static_Object@@QAEPAVRGE_Check_List@@M@Z 004881e0 f stat_obj.obj
 0001:000874b0       ?logMessage@RGE_Static_Object@@UAAXPADZZ 004884b0 f stat_obj.obj
 0001:00087510       ?logDebug@RGE_Static_Object@@UAAXPADZZ 00488510 f stat_obj.obj
 0001:00087520       ?logging@RGE_Static_Object@@QBEHXZ 00488520 f stat_obj.obj
 0001:00087530       ?setLogging@RGE_Static_Object@@QAEXH@Z 00488530 f stat_obj.obj
 0001:00087540       ?unitAI@RGE_Static_Object@@QAEPAVUnitAIModule@@XZ 00488540 f stat_obj.obj
 0001:00087550       ?notify@RGE_Static_Object@@UAEXHHHJJJ@Z 00488550 f stat_obj.obj
 0001:00087560       ?attack@RGE_Static_Object@@UAEHHH@Z 00488560 f stat_obj.obj
 0001:00087570       ?moveTo@RGE_Static_Object@@UAEHHH@Z 00488570 f stat_obj.obj
 0001:00087580       ?moveTo@RGE_Static_Object@@UAEHHMH@Z 00488580 f stat_obj.obj
 0001:00087590       ?moveTo@RGE_Static_Object@@UAEHMMMH@Z 00488590 f stat_obj.obj
 0001:000875a0       ?moveAwayFrom@RGE_Static_Object@@UAEHHH@Z 004885a0 f stat_obj.obj
 0001:000875b0       ?hunt@RGE_Static_Object@@UAEHHH@Z 004885b0 f stat_obj.obj
 0001:000875c0       ?gather@RGE_Static_Object@@UAEHHH@Z 004885c0 f stat_obj.obj
 0001:000875d0       ?convert@RGE_Static_Object@@UAEHHH@Z 004885d0 f stat_obj.obj
 0001:000875e0       ?heal@RGE_Static_Object@@UAEHHH@Z 004885e0 f stat_obj.obj
 0001:000875f0       ?repair@RGE_Static_Object@@UAEHHH@Z 004885f0 f stat_obj.obj
 0001:00087600       ?build@RGE_Static_Object@@UAEHHH@Z 00488600 f stat_obj.obj
 0001:00087610       ?trade@RGE_Static_Object@@UAEHHH@Z 00488610 f stat_obj.obj
 0001:00087620       ?explore@RGE_Static_Object@@UAEHHHH@Z 00488620 f stat_obj.obj
 0001:00087630       ?enter@RGE_Static_Object@@UAEHHH@Z 00488630 f stat_obj.obj
 0001:00087640       ?transport@RGE_Static_Object@@UAEHMMMH@Z 00488640 f stat_obj.obj
 0001:00087650       ?stopAction@RGE_Static_Object@@UAEHXZ 00488650 f stat_obj.obj
 0001:00087660       ??0TRIBE_Action_Hunt@@QAE@HPAVRGE_Action_Object@@@Z 00488660 f tact_hnt.obj
 0001:000876f9       ??0TRIBE_Action_Hunt@@QAE@PAVRGE_Action_Object@@PAVRGE_Task@@PAVRGE_Static_Object@@@Z 004886f9 f tact_hnt.obj
 0001:000877dd       ??0TRIBE_Action_Hunt@@QAE@PAVRGE_Action_Object@@PAVRGE_Task@@MMM@Z 004887dd f tact_hnt.obj
 0001:0008788b       ?save@TRIBE_Action_Hunt@@UAEXH@Z 0048888b f tact_hnt.obj
 0001:000878c4       ?first_in_stack@TRIBE_Action_Hunt@@UAEXE@Z 004888c4 f tact_hnt.obj
 0001:00087961       ?set_state@TRIBE_Action_Hunt@@MAEXE@Z 00488961 f tact_hnt.obj
 0001:00088003       ?update@TRIBE_Action_Hunt@@UAEEXZ 00489003 f tact_hnt.obj
 0001:0008875e       ?get_move_sprite@TRIBE_Action_Hunt@@IAEPAVRGE_Sprite@@XZ 0048975e f tact_hnt.obj
 0001:000887e5       ?get_wait_sprite@TRIBE_Action_Hunt@@IAEPAVRGE_Sprite@@XZ 004897e5 f tact_hnt.obj
 0001:0008886f       ?stop@TRIBE_Action_Hunt@@UAEHXZ 0048986f f tact_hnt.obj
 0001:00088897       ?move_to@TRIBE_Action_Hunt@@UAEHPAVRGE_Static_Object@@MMM@Z 00489897 f tact_hnt.obj
 0001:000889b1       ?work@TRIBE_Action_Hunt@@UAEHPAVRGE_Static_Object@@MMM@Z 004899b1 f tact_hnt.obj
 0001:00088ad0       ??_ETRIBE_Action_Hunt@@UAEPAXI@Z 00489ad0 f tact_hnt.obj
 0001:00088ad0       ??_GTRIBE_Action_Hunt@@UAEPAXI@Z 00489ad0 f tact_hnt.obj
 0001:00088b10       ??1TRIBE_Action_Hunt@@UAE@XZ 00489b10 f tact_hnt.obj
 0001:00088b70       ?SetPredatorStatus@TribeLandMaker@@QAEXH@Z 00489b70 f trib_set.obj
 0001:00088ba8       ?SetAnimalsOnFlag@TribeLandMaker@@QAEXH@Z 00489ba8 f trib_set.obj
 0001:00088be0       ??0TribeLandMaker@@QAE@PAVRGE_Map@@@Z 00489be0 f trib_set.obj
 0001:00088c5d       ??1TribeLandMaker@@QAE@XZ  00489c5d f trib_set.obj
 0001:00088cc5       ?SetPercentageLand@TribeLandMaker@@UAEXH@Z 00489cc5 f trib_set.obj
 0001:00088d7f       ?PlaceLand@TribeLandMaker@@UAEXPAURECTANGLE@@HH@Z 00489d7f f trib_set.obj
 0001:0008902a       ?WriteCharArrayIntoRGE_mapTribe@TribeLandMaker@@IAEXPAURECTANGLE@@@Z 0048a02a f trib_set.obj
 0001:00089215       ?SetWaterOfRaisedNeighborToDessert@TribeLandMaker@@IAEXHPAURECTANGLE@@@Z 0048a215 f trib_set.obj
 0001:00089289       ?RaiseRectOfWaterNeighboringElevatedTiles@TribeLandMaker@@IAEXHHHH@Z 0048a289 f trib_set.obj
 0001:000893c1       ?ChangeRaisedWaterToDessert@TribeLandMaker@@IAEXHPAURECTANGLE@@@Z 0048a3c1 f trib_set.obj
 0001:000894d6       ?FillRectElevation@TribeLandMaker@@MAEXHPAURECTANGLE@@@Z 0048a4d6 f trib_set.obj
 0001:00089624       ?DoIHaveANeighborOfDifferentElevationOfType@TribeLandMaker@@IAEHHHH@Z 0048a624 f trib_set.obj
 0001:00089797       ?VerifyWaterNotPlacedOnElevation@TribeLandMaker@@IAEXPAURECTANGLE@@@Z 0048a797 f trib_set.obj
 0001:00089910       ?MakeRandomStartingLocations@ControlerOfLandscape@@MAEXHH@Z 0048a910 f trib_set.obj
 0001:00089940       ?LoadDataFile@ControlerOfLandscape@@MAEXH@Z 0048a940 f trib_set.obj
 0001:00089960       ?GetObjectTally@ControlerOfLandscape@@UAEHXZ 0048a960 f trib_set.obj
 0001:00089990       ?GetObjectTally@ObjectPlacer@@QAEHXZ 0048a990 f trib_set.obj
 0001:000899b0       ?GetPlayerStart@ControlerOfLandscape@@UAEXPAH0H@Z 0048a9b0 f trib_set.obj
 0001:000899f0       ?draw_object@TRIBE_Diamond_Map_View@@MAEXFFEFPAVRGE_Static_Object@@@Z 0048a9f0 f tvw_dmap.obj
 0001:00089aaf       ?draw_objects@TRIBE_Diamond_Map_View@@MAEXXZ 0048aaaf f tvw_dmap.obj
 0001:00089ad0       ??0TRegistry@@QAE@PBD@Z    0048aad0 f registry.obj
 0001:00089b55       ??1TRegistry@@QAE@XZ       0048ab55 f registry.obj
 0001:00089bb0       ?RegSet@TRegistry@@QAEHPBDPAEK@Z 0048abb0 f registry.obj
 0001:00089c03       ?RegSetInt@TRegistry@@QAEHPBDH@Z 0048ac03 f registry.obj
 0001:00089c54       ?RegSetAscii@TRegistry@@QAEHPBDPAEK@Z 0048ac54 f registry.obj
 0001:00089ca7       ?RegGetAscii@TRegistry@@QAEPADPBD@Z 0048aca7 f registry.obj
 0001:00089d0e       ?RegGet@TRegistry@@QAEJPBDPAEPAK@Z 0048ad0e f registry.obj
 0001:00089d4b       ?RegGetInt@TRegistry@@QAEHPBD@Z 0048ad4b f registry.obj
 0001:00089dc0       ??0STRATOS_Action_Gather@@QAE@HPAVRGE_Action_Object@@@Z 0048adc0 f s_act_ga.obj
 0001:0008a018       ??0STRATOS_Action_Gather@@QAE@PAVRGE_Action_Object@@PAVRGE_Task@@PAVRGE_Static_Object@@@Z 0048b018 f s_act_ga.obj
 0001:0008a0ad       ??0STRATOS_Action_Gather@@QAE@PAVRGE_Action_Object@@PAVRGE_Task@@MMM@Z 0048b0ad f s_act_ga.obj
 0001:0008a151       ?first_in_stack@STRATOS_Action_Gather@@UAEXE@Z 0048b151 f s_act_ga.obj
 0001:0008a1f4       ?set_state@STRATOS_Action_Gather@@MAEXE@Z 0048b1f4 f s_act_ga.obj
 0001:0008a684       ?update@STRATOS_Action_Gather@@UAEEXZ 0048b684 f s_act_ga.obj
 0001:0008abb6       ?get_move_sprite@STRATOS_Action_Gather@@IAEPAVRGE_Sprite@@XZ 0048bbb6 f s_act_ga.obj
 0001:0008ac3d       ?get_wait_sprite@STRATOS_Action_Gather@@IAEPAVRGE_Sprite@@XZ 0048bc3d f s_act_ga.obj
 0001:0008acc7       ?stop@STRATOS_Action_Gather@@UAEHXZ 0048bcc7 f s_act_ga.obj
 0001:0008acef       ?move_to@STRATOS_Action_Gather@@UAEHPAVRGE_Static_Object@@MMM@Z 0048bcef f s_act_ga.obj
 0001:0008ada8       ?work@STRATOS_Action_Gather@@UAEHPAVRGE_Static_Object@@MMM@Z 0048bda8 f s_act_ga.obj
 0001:0008ae20       ??_GSTRATOS_Action_Gather@@UAEPAXI@Z 0048be20 f s_act_ga.obj
 0001:0008ae20       ??_ESTRATOS_Action_Gather@@UAEPAXI@Z 0048be20 f s_act_ga.obj
 0001:0008ae60       ??1STRATOS_Action_Gather@@UAE@XZ 0048be60 f s_act_ga.obj
 0001:0008aec0       ?load@TRIBE_Object_List@@MAEXEHPAVRGE_Game_World@@@Z 0048bec0 f tobj_lst.obj
 0001:0008b000       ??0RGE_Action_Transport@@QAE@HPAVRGE_Action_Object@@@Z 0048c000 f act_tran.obj
 0001:0008b084       ??0RGE_Action_Transport@@QAE@PAVRGE_Action_Object@@PAVRGE_Task@@MMM@Z 0048c084 f act_tran.obj
 0001:0008b128       ?first_in_stack@RGE_Action_Transport@@UAEXE@Z 0048c128 f act_tran.obj
 0001:0008b1ac       ?set_state@RGE_Action_Transport@@MAEXE@Z 0048c1ac f act_tran.obj
 0001:0008b394       ?update@RGE_Action_Transport@@UAEEXZ 0048c394 f act_tran.obj
 0001:0008b5df       ?stop@RGE_Action_Transport@@UAEHXZ 0048c5df f act_tran.obj
 0001:0008b607       ?move_to@RGE_Action_Transport@@UAEHPAVRGE_Static_Object@@MMM@Z 0048c607 f act_tran.obj
 0001:0008b64c       ?work@RGE_Action_Transport@@UAEHPAVRGE_Static_Object@@MMM@Z 0048c64c f act_tran.obj
 0001:0008b6cb       ?next_to_drop_off_terrain@RGE_Action_Transport@@UAEHXZ 0048c6cb f act_tran.obj
 0001:0008b8b0       ??_ERGE_Action_Transport@@UAEPAXI@Z 0048c8b0 f act_tran.obj
 0001:0008b8b0       ??_GRGE_Action_Transport@@UAEPAXI@Z 0048c8b0 f act_tran.obj
 0001:0008b8f0       ??1RGE_Action_Transport@@UAE@XZ 0048c8f0 f act_tran.obj
 0001:0008b950       _ShowErrMsg                0048c950 f Dsutil.obj
 0001:0008b95b       _DSLoadSoundBuffer         0048c95b f Dsutil.obj
 0001:0008ba26       _DSReloadSoundBuffer       0048ca26 f Dsutil.obj
 0001:0008ba9a       _DSGetWaveResource         0048ca9a f Dsutil.obj
 0001:0008bb2b       _SndObjCreate              0048cb2b f Dsutil.obj
 0001:0008bc5c       _SndObjDestroy             0048cc5c f Dsutil.obj
 0001:0008bcda       _SndObjGetFreeBuffer       0048ccda f Dsutil.obj
 0001:0008be25       _SndObjPlay                0048ce25 f Dsutil.obj
 0001:0008beb2       _SndObjStop                0048ceb2 f Dsutil.obj
 0001:0008bf34       _DSFillSoundBuffer         0048cf34 f Dsutil.obj
 0001:0008bfee       _DSParseWaveResource       0048cfee f Dsutil.obj
 0001:0008c1d5       _WaveOpenFile              0048d1d5 f Dsutil.obj
 0001:0008c429       _WaveStartDataRead         0048d429 f Dsutil.obj
 0001:0008c4b2       _WaveReadFile              0048d4b2 f Dsutil.obj
 0001:0008c60e       _WaveCloseReadFile         0048d60e f Dsutil.obj
 0001:0008c664       _WaveCreateFile            0048d664 f Dsutil.obj
 0001:0008c84c       _WaveStartDataWrite        0048d84c f Dsutil.obj
 0001:0008c8c9       _WaveWriteFile             0048d8c9 f Dsutil.obj
 0001:0008c968       _WaveCloseWriteFile        0048d968 f Dsutil.obj
 0001:0008cb07       _WaveCopyUselessChunks     0048db07 f Dsutil.obj
 0001:0008cc9e       _riffCopyChunk             0048dc9e f Dsutil.obj
 0001:0008cdd6       _WaveLoadFile              0048ddd6 f Dsutil.obj
 0001:0008cf1c       _WaveSaveFile              0048df1c f Dsutil.obj
 0001:0008cfe6       _ds_stream_init            0048dfe6 f Dsutil.obj
 0001:0008d059       _ds_stream_exit            0048e059 f Dsutil.obj
 0001:0008d0a7       _ds_stream_file            0048e0a7 f Dsutil.obj
 0001:0008d4d6       _ds_stream_volume          0048e4d6 f Dsutil.obj
 0001:0008d52f       _ds_stream_pause           0048e52f f Dsutil.obj
 0001:0008d54e       _ds_stream_resume          0048e54e f Dsutil.obj
 0001:0008d56d       _ds_stream_stop            0048e56d f Dsutil.obj
 0001:0008d669       _ds_stream_messages        0048e669 f Dsutil.obj
 0001:0008d730       _ds_stream_time_func@20    0048e730 f Dsutil.obj
 0001:0008dea0       ??0TRIBE_Screen_Sed_Open@@QAE@XZ 0048eea0 f scr_sedo.obj
 0001:0008e720       ??1TRIBE_Screen_Sed_Open@@UAE@XZ 0048f720 f scr_sedo.obj
 0001:0008e896       ?fillList@TRIBE_Screen_Sed_Open@@IAEXXZ 0048f896 f scr_sedo.obj
 0001:0008eb13       ?action@TRIBE_Screen_Sed_Open@@MAEJPAVTPanel@@JKK@Z 0048fb13 f scr_sedo.obj
 0001:0008ed70       ??_GTRIBE_Screen_Sed_Open@@UAEPAXI@Z 0048fd70 f scr_sedo.obj
 0001:0008ed70       ??_ETRIBE_Screen_Sed_Open@@UAEPAXI@Z 0048fd70 f scr_sedo.obj
 0001:0008edb0       ??0ConstructionAIModule@@QAE@PAXH@Z 0048fdb0 f aiconmod.obj
 0001:0008ef15       ??1ConstructionAIModule@@UAE@XZ 0048ff15 f aiconmod.obj
 0001:0008efcd       ?loadConstructionPlan@ConstructionAIModule@@UAEHPADHHMMM@Z 0048ffcd f aiconmod.obj
 0001:0008f3c7       ?constructionPlanName@ConstructionAIModule@@QAEPADXZ 004903c7 f aiconmod.obj
 0001:0008f3e5       ?setReferencePoint@ConstructionAIModule@@QAEXHHMMM@Z 004903e5 f aiconmod.obj
 0001:0008f692       ?xReferencePoint@ConstructionAIModule@@QAEMXZ 00490692 f aiconmod.obj
 0001:0008f6b1       ?yReferencePoint@ConstructionAIModule@@QAEMXZ 004906b1 f aiconmod.obj
 0001:0008f6d0       ?placeStructure@ConstructionAIModule@@UAEPAVConstructionItem@@PAVBuildItem@@@Z 004906d0 f aiconmod.obj
 0001:0008f6ea       ?lastPlacementReturnCode@ConstructionAIModule@@QAE?AW4PlacementResult@1@XZ 004906ea f aiconmod.obj
 0001:0008f709       ?setBuilt@ConstructionAIModule@@UAEXPAVConstructionItem@@H@Z 00490709 f aiconmod.obj
 0001:0008f77f       ?unplaceStructure@ConstructionAIModule@@UAEHPAVConstructionItem@@H@Z 0049077f f aiconmod.obj
 0001:0008f82c       ?unplaceStructure@ConstructionAIModule@@UAEHMMH@Z 0049082c f aiconmod.obj
 0001:0008f8ed       ?decrementBuildAttempts@ConstructionAIModule@@UAEXMMH@Z 004908ed f aiconmod.obj
 0001:0008f94a       ?incrementBuildAttempts@ConstructionAIModule@@UAEXMMH@Z 0049094a f aiconmod.obj
 0001:0008f9a7       ?lot@ConstructionAIModule@@QAEPAVConstructionItem@@MM@Z 004909a7 f aiconmod.obj
 0001:0008fa2a       ?randomLot@ConstructionAIModule@@QAEPAVConstructionItem@@MM@Z 00490a2a f aiconmod.obj
 0001:0008fa44       ?removeOldLots@ConstructionAIModule@@IAEXXZ 00490a44 f aiconmod.obj
 0001:0008fae0       ??_GConstructionAIModule@@UAEPAXI@Z 00490ae0 f aiconmod.obj
 0001:0008fae0       ??_EConstructionAIModule@@UAEPAXI@Z 00490ae0 f aiconmod.obj
 0001:0008fb20       ??0TRIBE_World@@QAE@XZ     00490b20 f tworld.obj
 0001:0008fbb5       ??1TRIBE_World@@UAE@XZ     00490bb5 f tworld.obj
 0001:0008fd07       ?data_load_players_type@TRIBE_World@@UAEXFFPAU_iobuf@@@Z 00490d07 f tworld.obj
 0001:0008fde2       ?data_load_ai@TRIBE_World@@QAEEPAD@Z 00490de2 f tworld.obj
 0001:0008ff4a       ?data_load_map@TRIBE_World@@UAEXPAD000FFFPAPAVRGE_Sound@@0@Z 00490f4a f tworld.obj
 0001:0009000e       ?data_load_world@TRIBE_World@@UAEEPAU_iobuf@@@Z 0049100e f tworld.obj
 0001:000900db       ?init_player_type@TRIBE_World@@UAEEHFE@Z 004910db f tworld.obj
 0001:000901f0       ?map_init@TRIBE_World@@UAEXHPAVTSound_Driver@@@Z 004911f0 f tworld.obj
 0001:00090292       ?command_init@TRIBE_World@@UAEXHPAVTCommunications_Handler@@@Z 00491292 f tworld.obj
 0001:0009032c       ?scenario_init@TRIBE_World@@UAEXHPAVRGE_Game_World@@@Z 0049132c f tworld.obj
 0001:000903c9       ?scenario_init@TRIBE_World@@UAEXPAVRGE_Game_World@@@Z 004913c9 f tworld.obj
 0001:00090462       ?effects_init@TRIBE_World@@UAEXH@Z 00491462 f tworld.obj
 0001:000904f8       ?world_init@TRIBE_World@@UAEXHPAVTSound_Driver@@PAVTCommunications_Handler@@@Z 004914f8 f tworld.obj
 0001:000906cc       ?init@TRIBE_World@@UAEEPADPAVTSound_Driver@@PAVTCommunications_Handler@@@Z 004916cc f tworld.obj
 0001:000906fe       ?base_save@TRIBE_World@@UAEXH@Z 004916fe f tworld.obj
 0001:000907db       ?load_player@TRIBE_World@@UAEXHEF@Z 004917db f tworld.obj
 0001:00090a1b       ?setup_gaia@TRIBE_World@@UAEXXZ 00491a1b f tworld.obj
 0001:00090ad3       ?setup_players@TRIBE_World@@UAEXAAURGE_Player_Info@@@Z 00491ad3 f tworld.obj
 0001:00090d66       ?check_destructables@TRIBE_World@@QAEXFFMM@Z 00491d66 f tworld.obj
 0001:00090fe5       ?scenario_make_player@TRIBE_World@@UAEXFEEEPAD@Z 00491fe5 f tworld.obj
 0001:000911cd       ?new_game@TRIBE_World@@UAEEAAURGE_Player_Info@@H@Z 004921cd f tworld.obj
 0001:000915c0       ?get_achievement@TRIBE_World@@QAEJEPAPAD@Z 004925c0 f tworld.obj
 0001:00091640       ??_GTRIBE_World@@UAEPAXI@Z 00492640 f tworld.obj
 0001:00091640       ??_ETRIBE_World@@UAEPAXI@Z 00492640 f tworld.obj
 0001:00091680       ??_GTRIBE_Tech@@QAEPAXI@Z  00492680 f tworld.obj
 0001:000916c0       ?PlaceObject@ControlerOfLandscape@@QAEXHH@Z 004926c0 f tworld.obj
 0001:00091700       ??0TRIBE_Screen_Main_Menu@@QAE@XZ 00492700 f Scr_main.obj
 0001:00091d42       ??1TRIBE_Screen_Main_Menu@@UAE@XZ 00492d42 f Scr_main.obj
 0001:00091ec4       ?key_down_action@TRIBE_Screen_Main_Menu@@MAEJJFHHH@Z 00492ec4 f Scr_main.obj
 0001:00091fc5       ?action@TRIBE_Screen_Main_Menu@@MAEJPAVTPanel@@JKK@Z 00492fc5 f Scr_main.obj
 0001:00092250       ??_ETRIBE_Screen_Main_Menu@@UAEPAXI@Z 00493250 f Scr_main.obj
 0001:00092250       ??_GTRIBE_Screen_Main_Menu@@UAEPAXI@Z 00493250 f Scr_main.obj
 0001:00092290       ??0TRIBE_Action_List@@QAE@PAVRGE_Action_Object@@@Z 00493290 f tact_lst.obj
 0001:00092305       ?create_action@TRIBE_Action_List@@UAEPAVRGE_Action@@HF@Z 00493305 f tact_lst.obj
 0001:000929c4       ?create_task_action@TRIBE_Action_List@@UAEPAVRGE_Action@@PAVRGE_Task@@PAVRGE_Static_Object@@MMM@Z 004939c4 f tact_lst.obj
 0001:000934a9       ?get_action_name@TRIBE_Action_List@@UAEXPAD@Z 004944a9 f tact_lst.obj
 0001:00093650       ??0TribeResourceAIModule@@QAE@PAXHHHHH@Z 00494650 f tairesmd.obj
 0001:00093774       ??1TribeResourceAIModule@@UAE@XZ 00494774 f tairesmd.obj
 0001:00093862       ?setMainDecisionAI@TribeResourceAIModule@@QAEXPAVTribeMainDecisionAIModule@@@Z 00494862 f tairesmd.obj
 0001:00093886       ?numberResources@TribeResourceAIModule@@QBEHXZ 00494886 f tairesmd.obj
 0001:000938a5       ?resource@TribeResourceAIModule@@QBEHH@Z 004948a5 f tairesmd.obj
 0001:00093900       ?resourcesAvailable@TribeResourceAIModule@@QAEHPAVResourceItem@@@Z 00494900 f tairesmd.obj
 0001:000939ad       ?unavailableResource@TribeResourceAIModule@@QAEHPAVResourceItem@@@Z 004949ad f tairesmd.obj
 0001:00093a5e       ?setResource@TribeResourceAIModule@@QAEXHH@Z 00494a5e f tairesmd.obj
 0001:00093a76       ?setResources@TribeResourceAIModule@@QAEXPAVResourceItem@@@Z 00494a76 f tairesmd.obj
 0001:00093a8e       ?incrementResource@TribeResourceAIModule@@QAEXHH@Z 00494a8e f tairesmd.obj
 0001:00093aa6       ?incrementResources@TribeResourceAIModule@@QAEXPAVResourceItem@@@Z 00494aa6 f tairesmd.obj
 0001:00093abe       ?decrementResource@TribeResourceAIModule@@QAEXHH@Z 00494abe f tairesmd.obj
 0001:00093ad6       ?decrementResources@TribeResourceAIModule@@QAEXPAVResourceItem@@@Z 00494ad6 f tairesmd.obj
 0001:00093aee       ?addResourceType@TribeResourceAIModule@@QAEXHH@Z 00494aee f tairesmd.obj
 0001:00093bd9       ?isResourceType@TribeResourceAIModule@@QAEHHH@Z 00494bd9 f tairesmd.obj
 0001:00093c47       ?numberResourceTypes@TribeResourceAIModule@@QAEHH@Z 00494c47 f tairesmd.obj
 0001:00093c70       ??_GTribeResourceAIModule@@UAEPAXI@Z 00494c70 f tairesmd.obj
 0001:00093c70       ??_ETribeResourceAIModule@@UAEPAXI@Z 00494c70 f tairesmd.obj
 0001:00093cb0       ??0RGE_Map_View@@QAE@XZ    00494cb0 f vw_map.obj
 0001:00093d7c       ?mouse_left_down_action@RGE_Map_View@@UAEJJJHH@Z 00494d7c f vw_map.obj
 0001:00093dce       ?mouse_left_move_action@RGE_Map_View@@UAEJJJHH@Z 00494dce f vw_map.obj
 0001:00093ee4       ?mouse_left_up_action@RGE_Map_View@@UAEJJJHH@Z 00494ee4 f vw_map.obj
 0001:0009405c       ?mouse_right_down_action@RGE_Map_View@@UAEJJJHH@Z 0049505c f vw_map.obj
 0001:000940ea       ?mouse_right_move_action@RGE_Map_View@@UAEJJJHH@Z 004950ea f vw_map.obj
 0001:00094199       ?mouse_right_up_action@RGE_Map_View@@UAEJJJHH@Z 00495199 f vw_map.obj
 0001:00094288       ?start_scroll_view@RGE_Map_View@@UAEHEJJHH@Z 00495288 f vw_map.obj
 0001:000942fe       ?handle_scroll_view@RGE_Map_View@@UAEHJJ@Z 004952fe f vw_map.obj
 0001:00094368       ?draw@RGE_Map_View@@UAEXXZ 00495368 f vw_map.obj
 0001:00094522       ?calc_view_rect@RGE_Map_View@@IAEXXZ 00495522 f vw_map.obj
 0001:000946b5       ?adjust_view_rect@RGE_Map_View@@IAEXXZ 004956b5 f vw_map.obj
 0001:000949bd       ?draw_view_rect@RGE_Map_View@@IAEXXZ 004959bd f vw_map.obj
 0001:00094a0b       ?command_make_do@RGE_Map_View@@UAEHJJ@Z 00495a0b f vw_map.obj
 0001:00094a80       ?command_make_move@RGE_Map_View@@UAEHJJ@Z 00495a80 f vw_map.obj
 0001:00094b09       ?command_make_work@RGE_Map_View@@UAEHJJ@Z 00495b09 f vw_map.obj
 0001:00094ba0       ??_ERGE_Map_View@@UAEPAXI@Z 00495ba0 f vw_map.obj
 0001:00094ba0       ??_GRGE_Map_View@@UAEPAXI@Z 00495ba0 f vw_map.obj
 0001:00094be0       ??1RGE_Map_View@@UAE@XZ    00495be0 f vw_map.obj
 0001:00094c40       ?get_interface_style@RGE_Base_Game@@QAEFXZ 00495c40 f vw_map.obj
 0001:00094c70       ?add_to_timing@RGE_Base_Game@@QAEXHK@Z 00495c70 f vw_map.obj
 0001:00094ca0       ??0TTextPanel@@QAE@XZ      00495ca0 f Pnl_txt.obj
 0001:00094ed8       ??1TTextPanel@@UAE@XZ      00495ed8 f Pnl_txt.obj
 0001:00094f48       ?setup@TTextPanel@@QAEJPAVTDrawArea@@PAVTPanel@@JJJJPAXJJPADHEHEF3@Z 00495f48 f Pnl_txt.obj
 0001:00095003       ?setup@TTextPanel@@QAEJPAVTDrawArea@@PAVTPanel@@JJJJPAXJJPADHEHEFJ@Z 00496003 f Pnl_txt.obj
 0001:0009512a       ?setup@TTextPanel@@QAEJPAVTDrawArea@@PAVTPanel@@JJJJPAXJJPADHEHEFPAPADF@Z 0049612a f Pnl_txt.obj
 0001:000951e9       ?set_rect@TTextPanel@@UAEXJJJJ@Z 004961e9 f Pnl_txt.obj
 0001:0009530a       ?set_scrollbar@TTextPanel@@QAEXPAVTScrollBarPanel@@H@Z 0049630a f Pnl_txt.obj
 0001:00095388       ?set_text@TTextPanel@@UAEXPAD@Z 00496388 f Pnl_txt.obj
 0001:00095959       ?set_text@TTextPanel@@UAEXJ@Z 00496959 f Pnl_txt.obj
 0001:000959d4       ?set_text@TTextPanel@@UAEXPAPADF@Z 004969d4 f Pnl_txt.obj
 0001:00095a5f       ?set_font@TTextPanel@@QAEXPAXJJ@Z 00496a5f f Pnl_txt.obj
 0001:00095ab2       ?set_alignment@TTextPanel@@QAEXW4Alignment@1@0@Z 00496ab2 f Pnl_txt.obj
 0001:00095aef       ?set_word_wrap@TTextPanel@@QAEXH@Z 00496aef f Pnl_txt.obj
 0001:00095b20       ?set_style@TTextPanel@@QAEXW4Style@1@@Z 00496b20 f Pnl_txt.obj
 0001:00095b51       ?set_text_color@TTextPanel@@QAEXKK@Z 00496b51 f Pnl_txt.obj
 0001:00095b8e       ?set_highlight_text_color@TTextPanel@@QAEXKK@Z 00496b8e f Pnl_txt.obj
 0001:00095bcb       ?set_back_pic@TTextPanel@@QAEXPAD@Z 00496bcb f Pnl_txt.obj
 0001:00095d00       ?set_outline@TTextPanel@@QAEXHE@Z 00496d00 f Pnl_txt.obj
 0001:00095d3d       ?set_active@TTextPanel@@UAEXH@Z 00496d3d f Pnl_txt.obj
 0001:00095dcd       ?calc_draw_info@TTextPanel@@QAEXH@Z 00496dcd f Pnl_txt.obj
 0001:00096101       ?scroll@TTextPanel@@QAEXEFH@Z 00497101 f Pnl_txt.obj
 0001:0009623f       ?key_down_action@TTextPanel@@UAEJJFHHH@Z 0049723f f Pnl_txt.obj
 0001:00096445       ?action@TTextPanel@@UAEJPAVTPanel@@JKK@Z 00497445 f Pnl_txt.obj
 0001:00096549       ?draw@TTextPanel@@UAEXXZ   00497549 f Pnl_txt.obj
 0001:00096943       ?draw_line@TTextPanel@@QAEXPAXFFKK@Z 00497943 f Pnl_txt.obj
 0001:00096c07       ?calc_line_pos@TTextPanel@@QAEXPAXFFPAUtagRECT@@PAJ@Z 00497c07 f Pnl_txt.obj
 0001:00096eda       ?mouse_left_down_action@TTextPanel@@UAEJJJHH@Z 00497eda f Pnl_txt.obj
 0001:00096f1f       ?numberLines@TTextPanel@@QBEHXZ 00497f1f f Pnl_txt.obj
 0001:00096f3f       ?numberDrawLines@TTextPanel@@QBEHXZ 00497f3f f Pnl_txt.obj
 0001:00096f5f       ?currentLineNumber@TTextPanel@@QBEHXZ 00497f5f f Pnl_txt.obj
 0001:00096f7f       ?setCurrentLineNumber@TTextPanel@@QAEXH@Z 00497f7f f Pnl_txt.obj
 0001:00096fa3       ?currentLine@TTextPanel@@QAEPADXZ 00497fa3 f Pnl_txt.obj
 0001:00096fc1       ?set_line@TTextPanel@@QAEXJ@Z 00497fc1 f Pnl_txt.obj
 0001:00096ff0       ?append_line@TTextPanel@@QAEHPADJ@Z 00497ff0 f Pnl_txt.obj
 0001:00097023       ?append_line@TTextPanel@@QAEHPAD0J@Z 00498023 f Pnl_txt.obj
 0001:0009705a       ?append_line@TTextPanel@@QAEHJJ@Z 0049805a f Pnl_txt.obj
 0001:0009708d       ?append_line@TTextPanel@@QAEHJJJ@Z 0049808d f Pnl_txt.obj
 0001:000970c4       ?insert_line@TTextPanel@@QAEHJPADJ@Z 004980c4 f Pnl_txt.obj
 0001:000970f2       ?insert_line@TTextPanel@@QAEHJPAD0J@Z 004980f2 f Pnl_txt.obj
 0001:00097463       ?insert_line@TTextPanel@@QAEHJJJ@Z 00498463 f Pnl_txt.obj
 0001:000974d9       ?insert_line@TTextPanel@@QAEHJJJJ@Z 004984d9 f Pnl_txt.obj
 0001:00097597       ?change_line@TTextPanel@@QAEHJPAD0J@Z 00498597 f Pnl_txt.obj
 0001:00097619       ?change_line@TTextPanel@@QAEHJJJJ@Z 00498619 f Pnl_txt.obj
 0001:0009769b       ?delete_line@TTextPanel@@QAEHJ@Z 0049869b f Pnl_txt.obj
 0001:00097821       ?get_line@TTextPanel@@QAEJXZ 00498821 f Pnl_txt.obj
 0001:00097841       ?get_line@TTextPanel@@QAEJJ@Z 00498841 f Pnl_txt.obj
 0001:000978a8       ?get_line@TTextPanel@@QAEJPAD@Z 004988a8 f Pnl_txt.obj
 0001:0009791a       ?get_text@TTextPanel@@QAEPADXZ 0049891a f Pnl_txt.obj
 0001:00097943       ?get_text@TTextPanel@@QAEPADJ@Z 00498943 f Pnl_txt.obj
 0001:000979b0       ?get_text2@TTextPanel@@QAEPADXZ 004989b0 f Pnl_txt.obj
 0001:000979d9       ?get_text2@TTextPanel@@QAEPADJ@Z 004989d9 f Pnl_txt.obj
 0001:00097a47       ?get_id@TTextPanel@@QAEJXZ 00498a47 f Pnl_txt.obj
 0001:00097a70       ?get_id@TTextPanel@@QAEJJ@Z 00498a70 f Pnl_txt.obj
 0001:00097ad7       ?empty_list@TTextPanel@@QAEXXZ 00498ad7 f Pnl_txt.obj
 0001:00097af5       ?free_text@TTextPanel@@QAEXXZ 00498af5 f Pnl_txt.obj
 0001:00097bb7       ?set_second_column_pos@TTextPanel@@QAEXJ@Z 00498bb7 f Pnl_txt.obj
 0001:00097bf0       ??_GTTextPanel@@UAEPAXI@Z  00498bf0 f Pnl_txt.obj
 0001:00097bf0       ??_ETTextPanel@@UAEPAXI@Z  00498bf0 f Pnl_txt.obj
 0001:00097c30       ??0EmotionalAIModule@@QAE@PAXH@Z 00498c30 f aiemomod.obj
 0001:00097d73       ??1EmotionalAIModule@@UAE@XZ 00498d73 f aiemomod.obj
 0001:00097ddb       ?setMainDecisionAI@EmotionalAIModule@@QAEXPAVMainDecisionAIModule@@@Z 00498ddb f aiemomod.obj
 0001:00097dff       ?stateName@EmotionalAIModule@@QAEPADH@Z 00498dff f aiemomod.obj
 0001:00097e47       ?state@EmotionalAIModule@@QBEHH@Z 00498e47 f aiemomod.obj
 0001:00097e8a       ?setState@EmotionalAIModule@@QAEXHH@Z 00498e8a f aiemomod.obj
 0001:00097ec6       ?incrementState@EmotionalAIModule@@QAEXHH@Z 00498ec6 f aiemomod.obj
 0001:00097f02       ?decrementState@EmotionalAIModule@@QAEXHH@Z 00498f02 f aiemomod.obj
 0001:00097f42       ?overallState@EmotionalAIModule@@QBEHXZ 00498f42 f aiemomod.obj
 0001:00097fb8       ?setOverallState@EmotionalAIModule@@QAEXH@Z 00498fb8 f aiemomod.obj
 0001:00098200       ??_EEmotionalAIModule@@UAEPAXI@Z 00499200 f aiemomod.obj
 0001:00098200       ??_GEmotionalAIModule@@UAEPAXI@Z 00499200 f aiemomod.obj
 0001:00098240       ??0RGE_Master_Moving_Object@@QAE@PAV0@H@Z 00499240 f m_mo_obj.obj
 0001:000982cd       ??0RGE_Master_Moving_Object@@QAE@HPAPAVRGE_Sprite@@PAPAVRGE_Sound@@H@Z 004992cd f m_mo_obj.obj
 0001:0009836a       ??0RGE_Master_Moving_Object@@QAE@PAU_iobuf@@PAPAVRGE_Sprite@@PAPAVRGE_Sound@@FH@Z 0049936a f m_mo_obj.obj
 0001:0009840f       ?setup@RGE_Master_Moving_Object@@IAEHPAV1@@Z 0049940f f m_mo_obj.obj
 0001:000984d1       ?setup@RGE_Master_Moving_Object@@IAEHHPAPAVRGE_Sprite@@PAPAVRGE_Sound@@@Z 004994d1 f m_mo_obj.obj
 0001:00098619       ?setup@RGE_Master_Moving_Object@@IAEHPAU_iobuf@@PAPAVRGE_Sprite@@PAPAVRGE_Sound@@F@Z 00499619 f m_mo_obj.obj
 0001:00098742       ??1RGE_Master_Moving_Object@@UAE@XZ 00499742 f m_mo_obj.obj
 0001:000987aa       ?make_new_obj@RGE_Master_Moving_Object@@UAEPAVRGE_Static_Object@@PAVRGE_Player@@MMM@Z 004997aa f m_mo_obj.obj
 0001:00098856       ?make_new_master@RGE_Master_Moving_Object@@UAEPAVRGE_Master_Static_Object@@XZ 00499856 f m_mo_obj.obj
 0001:000988f0       ?copy_obj@RGE_Master_Moving_Object@@UAEXPAVRGE_Master_Static_Object@@@Z 004998f0 f m_mo_obj.obj
 0001:000989ac       ?modify@RGE_Master_Moving_Object@@UAEXME@Z 004999ac f m_mo_obj.obj
 0001:00098a0b       ?modify_delta@RGE_Master_Moving_Object@@UAEXME@Z 00499a0b f m_mo_obj.obj
 0001:00098a73       ?modify_percent@RGE_Master_Moving_Object@@UAEXME@Z 00499a73 f m_mo_obj.obj
 0001:00098adb       ?save@RGE_Master_Moving_Object@@UAEXH@Z 00499adb f m_mo_obj.obj
 0001:00098c10       ??_GRGE_Master_Moving_Object@@UAEPAXI@Z 00499c10 f m_mo_obj.obj
 0001:00098c10       ??_ERGE_Master_Moving_Object@@UAEPAXI@Z 00499c10 f m_mo_obj.obj
 0001:00098c50       ??0TribeConfigDialog@@QAE@W4Mode@0@PAVTPanel@@@Z 00499c50 f dlg_conf.obj
 0001:00099ef7       ??1TribeConfigDialog@@UAE@XZ 0049aef7 f dlg_conf.obj
 0001:0009a17b       ?action@TribeConfigDialog@@MAEJPAVTPanel@@JKK@Z 0049b17b f dlg_conf.obj
 0001:0009a2ae       ?draw@TribeConfigDialog@@UAEXXZ 0049b2ae f dlg_conf.obj
 0001:0009a3c0       ??_GTribeConfigDialog@@UAEPAXI@Z 0049b3c0 f dlg_conf.obj
 0001:0009a3c0       ??_ETribeConfigDialog@@UAEPAXI@Z 0049b3c0 f dlg_conf.obj
 0001:0009a400       ??0TInputPanel@@QAE@XZ     0049b400 f Pnl_inp.obj
 0001:0009a50b       ??1TInputPanel@@UAE@XZ     0049b50b f Pnl_inp.obj
 0001:0009a5ae       ?setup@TInputPanel@@QAEJPAVTDrawArea@@PAVTPanel@@JJJJPAXJJPADHEHEEFPAVTDigital@@3W4FormatType@1@@Z 0049b5ae f Pnl_inp.obj
 0001:0009a73c       ?set_focus@TInputPanel@@UAEXH@Z 0049b73c f Pnl_inp.obj
 0001:0009a789       ?handle_idle@TInputPanel@@UAEJXZ 0049b789 f Pnl_inp.obj
 0001:0009a823       ?char_action@TInputPanel@@UAEJJF@Z 0049b823 f Pnl_inp.obj
 0001:0009ab4d       ?key_down_action@TInputPanel@@UAEJJFHHH@Z 0049bb4d f Pnl_inp.obj
 0001:0009b433       ?draw@TInputPanel@@UAEXXZ  0049c433 f Pnl_inp.obj
 0001:0009b5f3       ?set_text@TInputPanel@@UAEXPAD@Z 0049c5f3 f Pnl_inp.obj
 0001:0009b6de       ?set_text@TInputPanel@@UAEXPAPADF@Z 0049c6de f Pnl_inp.obj
 0001:0009b6f6       ?get_input_buffer@TInputPanel@@QAEPADXZ 0049c6f6 f Pnl_inp.obj
 0001:0009b715       ?append_character@TInputPanel@@IAEHJ@Z 0049c715 f Pnl_inp.obj
 0001:0009b74d       ?insert_character@TInputPanel@@IAEHJ@Z 0049c74d f Pnl_inp.obj
 0001:0009b879       ?delete_character@TInputPanel@@IAEHXZ 0049c879 f Pnl_inp.obj
 0001:0009b956       ?backspace_character@TInputPanel@@IAEHXZ 0049c956 f Pnl_inp.obj
 0001:0009b99c       ?reformat@TInputPanel@@IAEXXZ 0049c99c f Pnl_inp.obj
 0001:0009ba5b       ?calc_input_pos@TInputPanel@@IAEXXZ 0049ca5b f Pnl_inp.obj
 0001:0009bb6d       ?calc_cur_line_col@TInputPanel@@IAEXXZ 0049cb6d f Pnl_inp.obj
 0001:0009bcb0       ??_ETInputPanel@@UAEPAXI@Z 0049ccb0 f Pnl_inp.obj
 0001:0009bcb0       ??_GTInputPanel@@UAEPAXI@Z 0049ccb0 f Pnl_inp.obj
 0001:0009bcf0       ?rge_fake_open@@YAHHH@Z    0049ccf0 f rge_fio.obj
 0001:0009bd63       ?rge_open@@YAHPADH@Z       0049cd63 f rge_fio.obj
 0001:0009be12       ?rge_open@@YAHPADHH@Z      0049ce12 f rge_fio.obj
 0001:0009bec5       ?rge_fake_close@@YAHH@Z    0049cec5 f rge_fio.obj
 0001:0009bf6a       ?rge_close@@YAHH@Z         0049cf6a f rge_fio.obj
 0001:0009c05d       ?rge_read_uncompressed@@YAXHPAXH@Z 0049d05d f rge_fio.obj
 0001:0009c0cc       ?rge_write_uncompressed@@YAXHPAXH@Z 0049d0cc f rge_fio.obj
 0001:0009c12f       ?rge_read@@YAXHPAXH@Z      0049d12f f rge_fio.obj
 0001:0009c368       ?rge_buffer_full@@YAHPAEH@Z 0049d368 f rge_fio.obj
 0001:0009c38e       ?rge_write@@YAXHPAXH@Z     0049d38e f rge_fio.obj
 0001:0009c460       ??0TRIBE_Screen_Game@@QAE@XZ 0049d460 f scr_game.obj
 0001:0009e7bf       ??1TRIBE_Screen_Game@@UAE@XZ 0049f7bf f scr_game.obj
 0001:0009f2b9       ?set_redraw@TRIBE_Screen_Game@@UAEXW4RedrawMode@TPanel@@@Z 004a02b9 f scr_game.obj
 0001:0009f2dd       ?handle_size@TRIBE_Screen_Game@@UAEJJJ@Z 004a02dd f scr_game.obj
 0001:000a0557       ?handle_paint@TRIBE_Screen_Game@@UAEJXZ 004a1557 f scr_game.obj
 0001:000a0768       ?handle_idle@TRIBE_Screen_Game@@UAEJXZ 004a1768 f scr_game.obj
 0001:000a079e       ?handle_game_update@TRIBE_Screen_Game@@QAEXXZ 004a179e f scr_game.obj
 0001:000a09b9       ?wnd_proc@TRIBE_Screen_Game@@UAEJPAXIIJ@Z 004a19b9 f scr_game.obj
 0001:000a09e9       ?handle_mouse_down@TRIBE_Screen_Game@@UAEJEJJHH@Z 004a19e9 f scr_game.obj
 0001:000a0a71       ?handle_user_command@TRIBE_Screen_Game@@UAEJIJ@Z 004a1a71 f scr_game.obj
 0001:000a0a99       ?handle_pause@TRIBE_Screen_Game@@QAEXXZ 004a1a99 f scr_game.obj
 0001:000a0b10       ?handle_resume@TRIBE_Screen_Game@@QAEXXZ 004a1b10 f scr_game.obj
 0001:000a0b87       ?handleChatReceived@TRIBE_Screen_Game@@QAEXXZ 004a1b87 f scr_game.obj
 0001:000a0be2       ?key_down_action@TRIBE_Screen_Game@@UAEJJFHHH@Z 004a1be2 f scr_game.obj
 0001:000a1306       ?action@TRIBE_Screen_Game@@UAEJPAVTPanel@@JKK@Z 004a2306 f scr_game.obj
 0001:000a1411       ?do_button_action@TRIBE_Screen_Game@@IAEXHH@Z 004a2411 f scr_game.obj
 0001:000a1591       ?game_mode_changed@TRIBE_Screen_Game@@QAEXHH@Z 004a2591 f scr_game.obj
 0001:000a15e7       ?player_changed@TRIBE_Screen_Game@@QAEXHH@Z 004a25e7 f scr_game.obj
 0001:000a1cbb       ?object_changed@TRIBE_Screen_Game@@IAEXXZ 004a2cbb f scr_game.obj
 0001:000a1dac       ?age_changed@TRIBE_Screen_Game@@IAEXXZ 004a2dac f scr_game.obj
 0001:000a1e4c       ?show_timings@TRIBE_Screen_Game@@QAEXPAD0@Z 004a2e4c f scr_game.obj
 0001:000a1e94       ?show_comm@TRIBE_Screen_Game@@QAEXPAD00000@Z 004a2e94 f scr_game.obj
 0001:000a1f3c       ?show_ai@TRIBE_Screen_Game@@QAEXPAD00000@Z 004a2f3c f scr_game.obj
 0001:000a1fe4       ?show_message@TRIBE_Screen_Game@@QAEXW4MessageType@TMessagePanel@@PADEE@Z 004a2fe4 f scr_game.obj
 0001:000a201a       ?reset_buttons@TRIBE_Screen_Game@@QAEXXZ 004a301a f scr_game.obj
 0001:000a2044       ?setup_buttons@TRIBE_Screen_Game@@QAEXXZ 004a3044 f scr_game.obj
 0001:000a33d2       ?calc_text_msg@TRIBE_Screen_Game@@IAEPADPADPAUItem_Avail@@JJ0@Z 004a43d2 f scr_game.obj
 0001:000a3714       ?calc_button_loc@TRIBE_Screen_Game@@IAEFE@Z 004a4714 f scr_game.obj
 0001:000a37e5       ?set_button@TRIBE_Screen_Game@@IAEXPAVTShape@@FFJJJPAEPAD2@Z 004a47e5 f scr_game.obj
 0001:000a3a34       ?draw@TRIBE_Screen_Game@@UAEXXZ 004a4a34 f scr_game.obj
 0001:000a3bd1       ?handle_anim_pal@TRIBE_Screen_Game@@IAEXXZ 004a4bd1 f scr_game.obj
 0001:000a3e28       ?handle_terrain_sound@TRIBE_Screen_Game@@IAEXXZ 004a4e28 f scr_game.obj
 0001:000a404c       ?handle_mouse_pointing_at@TRIBE_Screen_Game@@IAEXXZ 004a504c f scr_game.obj
 0001:000a4254       ?command_add_attribute@TRIBE_Screen_Game@@IAEXH@Z 004a5254 f scr_game.obj
 0001:000a42bf       ?command_ai_info@TRIBE_Screen_Game@@IAEXXZ 004a52bf f scr_game.obj
 0001:000a4375       ?command_build@TRIBE_Screen_Game@@IAEXXZ 004a5375 f scr_game.obj
 0001:000a43cb       ?command_building@TRIBE_Screen_Game@@IAEXH@Z 004a53cb f scr_game.obj
 0001:000a4485       ?command_cancel@TRIBE_Screen_Game@@IAEXXZ 004a5485 f scr_game.obj
 0001:000a44e7       ?command_chat@TRIBE_Screen_Game@@IAEXXZ 004a54e7 f scr_game.obj
 0001:000a459b       ?command_quick_chat@TRIBE_Screen_Game@@IAEXXZ 004a559b f scr_game.obj
 0001:000a4631       ?command_comm_info@TRIBE_Screen_Game@@IAEXXZ 004a5631 f scr_game.obj
 0001:000a46e7       ?command_diplomacy@TRIBE_Screen_Game@@IAEXXZ 004a56e7 f scr_game.obj
 0001:000a47b4       ?command_fog_of_war@TRIBE_Screen_Game@@IAEXXZ 004a57b4 f scr_game.obj
 0001:000a481d       ?command_fps@TRIBE_Screen_Game@@IAEXXZ 004a581d f scr_game.obj
 0001:000a489b       ?command_game_speed@TRIBE_Screen_Game@@IAEXH@Z 004a589b f scr_game.obj
 0001:000a492c       ?command_group@TRIBE_Screen_Game@@IAEXXZ 004a592c f scr_game.obj
 0001:000a496c       ?command_menu@TRIBE_Screen_Game@@IAEXXZ 004a596c f scr_game.obj
 0001:000a4a46       ?command_more@TRIBE_Screen_Game@@IAEXXZ 004a5a46 f scr_game.obj
 0001:000a4b1b       ?command_move@TRIBE_Screen_Game@@IAEXXZ 004a5b1b f scr_game.obj
 0001:000a4b5d       ?command_outline@TRIBE_Screen_Game@@IAEXXZ 004a5b5d f scr_game.obj
 0001:000a4be1       ?command_pause@TRIBE_Screen_Game@@IAEXXZ 004a5be1 f scr_game.obj
 0001:000a4c02       ?command_player@TRIBE_Screen_Game@@IAEXH@Z 004a5c02 f scr_game.obj
 0001:000a4c53       ?command_quick_build@TRIBE_Screen_Game@@IAEXXZ 004a5c53 f scr_game.obj
 0001:000a4ca0       ?command_quit@TRIBE_Screen_Game@@IAEXXZ 004a5ca0 f scr_game.obj
 0001:000a4cc1       ?command_research@TRIBE_Screen_Game@@IAEXH@Z 004a5cc1 f scr_game.obj
 0001:000a4d69       ?command_save_game@TRIBE_Screen_Game@@IAEXXZ 004a5d69 f scr_game.obj
 0001:000a4e33       ?command_save_scenario@TRIBE_Screen_Game@@IAEXXZ 004a5e33 f scr_game.obj
 0001:000a4efd       ?command_stop@TRIBE_Screen_Game@@IAEXXZ 004a5efd f scr_game.obj
 0001:000a4f4a       ?command_tool_box@TRIBE_Screen_Game@@IAEXXZ 004a5f4a f scr_game.obj
 0001:000a4ffa       ?command_trade@TRIBE_Screen_Game@@IAEXXZ 004a5ffa f scr_game.obj
 0001:000a50d7       ?command_trade_with@TRIBE_Screen_Game@@IAEXH@Z 004a60d7 f scr_game.obj
 0001:000a5162       ?command_train@TRIBE_Screen_Game@@IAEXH@Z 004a6162 f scr_game.obj
 0001:000a521e       ?command_ungroup@TRIBE_Screen_Game@@IAEXXZ 004a621e f scr_game.obj
 0001:000a5270       ?command_unload@TRIBE_Screen_Game@@IAEXXZ 004a6270 f scr_game.obj
 0001:000a52c9       ?command_unselect@TRIBE_Screen_Game@@IAEXXZ 004a62c9 f scr_game.obj
 0001:000a531b       ?command_view_tribe@TRIBE_Screen_Game@@IAEXXZ 004a631b f scr_game.obj
 0001:000a53b4       ?command_visibility@TRIBE_Screen_Game@@IAEXXZ 004a63b4 f scr_game.obj
 0001:000a5436       ?command_work@TRIBE_Screen_Game@@IAEXXZ 004a6436 f scr_game.obj
 0001:000a5478       ?command_formation@TRIBE_Screen_Game@@IAEXH@Z 004a6478 f scr_game.obj
 0001:000a54d0       ?set_tribe_button_type@TRIBE_Panel_Button@@QAEXE@Z 004a64d0 f scr_game.obj
 0001:000a5500       ?set_map_view@RGE_Main_View@@QAEXPAVTPanel@@@Z 004a6500 f scr_game.obj
 0001:000a5530       ?set_main_view@RGE_Diamond_Map@@QAEXPAVRGE_View@@@Z 004a6530 f scr_game.obj
 0001:000a5560       ?get_update_interval@RGE_Base_Game@@QAEKXZ 004a6560 f scr_game.obj
 0001:000a5590       ?get_fast_view@RGE_Base_Game@@QAEHXZ 004a6590 f scr_game.obj
 0001:000a55c0       ??_GTRIBE_Screen_Game@@UAEPAXI@Z 004a65c0 f scr_game.obj
 0001:000a55c0       ??_ETRIBE_Screen_Game@@UAEPAXI@Z 004a65c0 f scr_game.obj
 0001:000a5600       ??0TRIBE_Main_View@@QAE@XZ 004a6600 f scr_game.obj
 0001:000a5670       ??0TRIBE_Diamond_Map_View@@QAE@XZ 004a6670 f scr_game.obj
 0001:000a56e0       ??_ETRIBE_Main_View@@UAEPAXI@Z 004a66e0 f scr_game.obj
 0001:000a56e0       ??_GTRIBE_Main_View@@UAEPAXI@Z 004a66e0 f scr_game.obj
 0001:000a5720       ??1RGE_Main_View@@UAE@XZ   004a6720 f scr_game.obj
 0001:000a5780       ??_ETRIBE_Diamond_Map_View@@UAEPAXI@Z 004a6780 f scr_game.obj
 0001:000a5780       ??_GTRIBE_Diamond_Map_View@@UAEPAXI@Z 004a6780 f scr_game.obj
 0001:000a57c0       ??1RGE_Diamond_Map_View@@UAE@XZ 004a67c0 f scr_game.obj
 0001:000a5820       ??1TRIBE_Main_View@@UAE@XZ 004a6820 f scr_game.obj
 0001:000a5880       ??1TRIBE_Diamond_Map_View@@UAE@XZ 004a6880 f scr_game.obj
 0001:000a58e0       ?increment_world_update_count@RGE_Base_Game@@QAEXXZ 004a68e0 f scr_game.obj
 0001:000a5900       ?set_outline_type@RGE_Base_Game@@QAEXE@Z 004a6900 f scr_game.obj
 0001:000a5930       ?get_outline_type@RGE_Base_Game@@QAEEXZ 004a6930 f scr_game.obj
 0001:000a5950       ?set_show_object_id@TRIBE_Game@@QAEXH@Z 004a6950 f scr_game.obj
 0001:000a5980       ?set_border_pic@TRIBE_Panel_Button@@QAEXPAVTShape@@@Z 004a6980 f scr_game.obj
 0001:000a59b0       ?set_hotkey@TButtonPanel@@QAEXJ@Z 004a69b0 f scr_game.obj
 0001:000a59e0       ?set_border_frame@TRIBE_Panel_Button@@QAEXH@Z 004a69e0 f scr_game.obj
 0001:000a5a10       ?set_color_table@TRIBE_Panel_Button@@QAEXPAE@Z 004a6a10 f scr_game.obj
 0001:000a5a40       ?get_use_sound@RGE_Base_Game@@QAEHXZ 004a6a40 f scr_game.obj
 0001:000a5a70       ?get_text_msg@TRIBE_Panel_Button@@QAEPADXZ 004a6a70 f scr_game.obj
 0001:000a5a90       ?get_window@RGE_Base_Game@@QAEPAXXZ 004a6a90 f scr_game.obj
 0001:000a5ab0       ?set_show_timings@RGE_Base_Game@@QAEXH@Z 004a6ab0 f scr_game.obj
 0001:000a5ae0       ?set_show_comm@RGE_Base_Game@@QAEXH@Z 004a6ae0 f scr_game.obj
 0001:000a5b10       ?set_show_ai@RGE_Base_Game@@QAEXH@Z 004a6b10 f scr_game.obj
 0001:000a5b40       ?get_show_ai@RGE_Base_Game@@QAEHXZ 004a6b40 f scr_game.obj
 0001:000a5b60       ?set_master_obj_id@RGE_Base_Game@@QAEXF@Z 004a6b60 f scr_game.obj
 0001:000a5b90       ?get_show_comm@RGE_Base_Game@@QAEHXZ 004a6b90 f scr_game.obj
 0001:000a5bb0       ?get_show_timings@RGE_Base_Game@@QAEHXZ 004a6bb0 f scr_game.obj
 0001:000a5bd0       ??0TRIBE_Screen_Sed@@QAE@PADH@Z 004a6bd0 f scr_sed.obj
 0001:000a62f1       ?set_panel_info@TRIBE_Screen_Sed@@IAEXXZ 004a72f1 f scr_sed.obj
 0001:000a63c7       ?set_string@TRIBE_Screen_Sed@@IAEXPADJH@Z 004a73c7 f scr_sed.obj
 0001:000a640f       ?create_button@TRIBE_Screen_Sed@@IAEHPAVTPanel@@PAPAVTButtonPanel@@JH@Z 004a740f f scr_sed.obj
 0001:000a64e2       ?create_button@TRIBE_Screen_Sed@@IAEHPAVTPanel@@PAPAVTButtonPanel@@PAD222@Z 004a74e2 f scr_sed.obj
 0001:000a66c1       ?create_text@TRIBE_Screen_Sed@@IAEHPAVTPanel@@PAPAVTTextPanel@@J@Z 004a76c1 f scr_sed.obj
 0001:000a6719       ?create_text@TRIBE_Screen_Sed@@IAEHPAVTPanel@@PAPAVTTextPanel@@PAD@Z 004a7719 f scr_sed.obj
 0001:000a687f       ?create_input@TRIBE_Screen_Sed@@IAEHPAVTPanel@@PAPAVTInputPanel@@PADFW4FormatType@3@@Z 004a787f f scr_sed.obj
 0001:000a69e7       ?create_drop_down@TRIBE_Screen_Sed@@IAEHPAVTPanel@@PAPAVTDropDownPanel@@@Z 004a79e7 f scr_sed.obj
 0001:000a7f23       ?SetupListOfTerrain@TRIBE_Screen_Sed@@IAEHPAPAD@Z 004a8f23 f scr_sed.obj
 0001:000a7fef       ?create_list@TRIBE_Screen_Sed@@IAEHPAVTPanel@@PAPAVTListPanel@@PAPAVTScrollBarPanel@@@Z 004a8fef f scr_sed.obj
 0001:000a84ee       ??1TRIBE_Screen_Sed@@UAE@XZ 004a94ee f scr_sed.obj
 0001:000a8fa1       ?set_scenario_mode@TRIBE_Screen_Sed@@QAEXW4ScenarioMode@1@@Z 004a9fa1 f scr_sed.obj
 0001:000a9e1a       ?set_map_type@TRIBE_Screen_Sed@@IAEXW4MapType@1@H@Z 004aae1a f scr_sed.obj
 0001:000aa0ee       ?set_brush_size@TRIBE_Screen_Sed@@IAEXW4BrushSize@1@@Z 004ab0ee f scr_sed.obj
 0001:000aa1cb       ?set_paint_type@TRIBE_Screen_Sed@@IAEXW4PaintType@1@H@Z 004ab1cb f scr_sed.obj
 0001:000aa5b8       ?set_terrain@TRIBE_Screen_Sed@@IAEXF@Z 004ab5b8 f scr_sed.obj
 0001:000aa69d       ?set_elevation@TRIBE_Screen_Sed@@IAEXF@Z 004ab69d f scr_sed.obj
 0001:000aa6da       ?set_player@TRIBE_Screen_Sed@@IAEXFH@Z 004ab6da f scr_sed.obj
 0001:000aabb9       ?set_player_active@TRIBE_Screen_Sed@@IAEXFH@Z 004abbb9 f scr_sed.obj
 0001:000aac46       ?TRIBE_Screen_Sed_unit_list_compare@@YAHPBX0@Z 004abc46 f scr_sed.obj
 0001:000aac66       ?set_unit_player@TRIBE_Screen_Sed@@IAEXF@Z 004abc66 f scr_sed.obj
 0001:000ab169       ?set_unit@TRIBE_Screen_Sed@@IAEXF@Z 004ac169 f scr_sed.obj
 0001:000ab1df       ?set_message_type@TRIBE_Screen_Sed@@IAEXW4MessageType@1@H@Z 004ac1df f scr_sed.obj
 0001:000ab22b       ?handle_size@TRIBE_Screen_Sed@@UAEJJJ@Z 004ac22b f scr_sed.obj
 0001:000ab26d       ?handle_idle@TRIBE_Screen_Sed@@UAEJXZ 004ac26d f scr_sed.obj
 0001:000ab32e       ?key_down_action@TRIBE_Screen_Sed@@UAEJJFHHH@Z 004ac32e f scr_sed.obj
 0001:000ab4e8       ?action@TRIBE_Screen_Sed@@UAEJPAVTPanel@@JKK@Z 004ac4e8 f scr_sed.obj
 0001:000aca48       ?draw@TRIBE_Screen_Sed@@UAEXXZ 004ada48 f scr_sed.obj
 0001:000acb0d       ?command_cancel@TRIBE_Screen_Sed@@QAEXXZ 004adb0d f scr_sed.obj
 0001:000acb47       ?command_menu@TRIBE_Screen_Sed@@QAEHXZ 004adb47 f scr_sed.obj
 0001:000acc30       ?command_new@TRIBE_Screen_Sed@@QAEXXZ 004adc30 f scr_sed.obj
 0001:000acc46       ?command_new_map@TRIBE_Screen_Sed@@QAEHPADHHHHH@Z 004adc46 f scr_sed.obj
 0001:000acfe9       ?command_open@TRIBE_Screen_Sed@@QAEXXZ 004adfe9 f scr_sed.obj
 0001:000acfff       ?command_outline@TRIBE_Screen_Sed@@QAEXXZ 004adfff f scr_sed.obj
 0001:000ad083       ?command_player@TRIBE_Screen_Sed@@QAEXH@Z 004ae083 f scr_sed.obj
 0001:000ad0af       ?command_quit@TRIBE_Screen_Sed@@QAEXXZ 004ae0af f scr_sed.obj
 0001:000ad0f2       ?command_save@TRIBE_Screen_Sed@@QAEXXZ 004ae0f2 f scr_sed.obj
 0001:000ad224       ?command_save_as@TRIBE_Screen_Sed@@QAEXXZ 004ae224 f scr_sed.obj
 0001:000ad3d0       ?set_fill_in_background@TPanel@@QAEXE@Z 004ae3d0 f scr_sed.obj
 0001:000ad400       ??_ETRIBE_Screen_Sed@@UAEPAXI@Z 004ae400 f scr_sed.obj
 0001:000ad400       ??_GTRIBE_Screen_Sed@@UAEPAXI@Z 004ae400 f scr_sed.obj
 0001:000ad440       ?set_visibility@RGE_View@@QAEXH@Z 004ae440 f scr_sed.obj
 0001:000ad460       ?set_fog_mode@RGE_View@@QAEXE@Z 004ae460 f scr_sed.obj
 0001:000ad480       ?set_visibility@RGE_Diamond_Map@@QAEXH@Z 004ae480 f scr_sed.obj
 0001:000ad4a0       ?set_draw_reverse@TButtonPanel@@QAEXH@Z 004ae4a0 f scr_sed.obj
 0001:000ad4d0       ?set_brush_size@RGE_Base_Game@@QAEXF@Z 004ae4d0 f scr_sed.obj
 0001:000ad500       ?set_terrain_id@RGE_Base_Game@@QAEXF@Z 004ae500 f scr_sed.obj
 0001:000ad530       ?set_elevation_height@RGE_Base_Game@@QAEXF@Z 004ae530 f scr_sed.obj
 0001:000ad560       ?get_sound_system@RGE_Base_Game@@QAEPAVTSound_Driver@@XZ 004ae560 f scr_sed.obj
 0001:000ad580       ??0TCommunications_Sessions@@QAE@PAVTCommunications_Handler@@@Z 004ae580 f com_sess.obj
 0001:000ad633       ??1TCommunications_Sessions@@QAE@XZ 004ae633 f com_sess.obj
 0001:000ad65c       ?EraseInformation@TCommunications_Sessions@@AAEXXZ 004ae65c f com_sess.obj
 0001:000ad6a4       ?GetSessionCount@TCommunications_Sessions@@QAEHXZ 004ae6a4 f com_sess.obj
 0001:000ad6d8       ?GetSessionName@TCommunications_Sessions@@QAEPADH@Z 004ae6d8 f com_sess.obj
 0001:000ad751       ?GetSessionMaxPlayers@TCommunications_Sessions@@QAEKH@Z 004ae751 f com_sess.obj
 0001:000ad79f       ?GetSessionCurrentPlayers@TCommunications_Sessions@@QAEKH@Z 004ae79f f com_sess.obj
 0001:000ad7ed       ?GetSessionGUID@TCommunications_Sessions@@QAEPAU_GUID@@H@Z 004ae7ed f com_sess.obj
 0001:000ad875       ?IncSessionCount@TCommunications_Sessions@@QAEHXZ 004ae875 f com_sess.obj
 0001:000ad8ae       ?AddSession@TCommunications_Sessions@@QAEHU_GUID@@0KKPAD1KKKK@Z 004ae8ae f com_sess.obj
 0001:000ada65       ?Refresh@TCommunications_Sessions@@QAEHXZ 004aea65 f com_sess.obj
 0001:000adb02       ?EnumSessionCallback@@YGHPAUDPSESSIONDESC2@@PAKKPAX@Z 004aeb02 f com_sess.obj
 0001:000adbb7       ?IsEqualGuid@TCommunications_Sessions@@QAEHPAU_GUID@@0@Z 004aebb7 f com_sess.obj
 0001:000adc30       ?convert_us@@YAXPAD@Z      004aec30 f mystring.obj
 0001:000adc70       ?unconvert_us@@YAXPAD@Z    004aec70 f mystring.obj
 0001:000adcb0       ?addstring@@YAXPAPADPAD1@Z 004aecb0 f mystring.obj
 0001:000add49       ?getstring@@YAXPAPADPAD@Z  004aed49 f mystring.obj
 0001:000addb0       ??0RGE_Game_World@@QAE@XZ  004aedb0 f World.obj
 0001:000ae02a       ??1RGE_Game_World@@UAE@XZ  004af02a f World.obj
 0001:000ae46b       ?pause@RGE_Game_World@@UAEXE@Z 004af46b f World.obj
 0001:000ae4c5       ?set_map_visible@RGE_Game_World@@QAEXE@Z 004af4c5 f World.obj
 0001:000ae4f9       ?set_map_fog@RGE_Game_World@@QAEXE@Z 004af4f9 f World.obj
 0001:000ae52d       ?data_load_sounds@RGE_Game_World@@MAEEPAD@Z 004af52d f World.obj
 0001:000ae692       ?data_load_terrain_tables@RGE_Game_World@@MAEEPAD@Z 004af692 f World.obj
 0001:000ae854       ?data_load_color_tables@RGE_Game_World@@MAEEPAD@Z 004af854 f World.obj
 0001:000ae9bc       ?data_load_sprites@RGE_Game_World@@MAEEPAD@Z 004af9bc f World.obj
 0001:000aeb2b       ?data_load_players_type@RGE_Game_World@@MAEXFFPAU_iobuf@@@Z 004afb2b f World.obj
 0001:000aec13       ?data_load_players@RGE_Game_World@@MAEEPAD@Z 004afc13 f World.obj
 0001:000aed09       ?data_load_objects@RGE_Game_World@@MAEEPAD@Z 004afd09 f World.obj
 0001:000aee79       ?data_load_effects@RGE_Game_World@@MAEXPAD@Z 004afe79 f World.obj
 0001:000aef0f       ?data_load_map@RGE_Game_World@@MAEXPAD000FFFPAPAVRGE_Sound@@0@Z 004aff0f f World.obj
 0001:000aefd3       ?data_load_world@RGE_Game_World@@MAEEPAU_iobuf@@@Z 004affd3 f World.obj
 0001:000af144       ?data_load@RGE_Game_World@@UAEEPAD0@Z 004b0144 f World.obj
 0001:000af1b4       ?init_player_type@RGE_Game_World@@MAEEHFE@Z 004b01b4 f World.obj
 0001:000af2d1       ?init_player@RGE_Game_World@@MAEEH@Z 004b02d1 f World.obj
 0001:000af377       ?terrain_tables_init@RGE_Game_World@@MAEXH@Z 004b0377 f World.obj
 0001:000af486       ?color_table_init@RGE_Game_World@@MAEXH@Z 004b0486 f World.obj
 0001:000af585       ?init_sounds@RGE_Game_World@@MAEXHPAVTSound_Driver@@@Z 004b0585 f World.obj
 0001:000af679       ?init_sprites@RGE_Game_World@@MAEXH@Z 004b0679 f World.obj
 0001:000af7b0       ?scenario_init@RGE_Game_World@@MAEXHPAV1@@Z 004b07b0 f World.obj
 0001:000af84d       ?scenario_init@RGE_Game_World@@MAEXPAV1@@Z 004b084d f World.obj
 0001:000af8e6       ?map_init@RGE_Game_World@@MAEXHPAVTSound_Driver@@@Z 004b08e6 f World.obj
 0001:000af988       ?effects_init@RGE_Game_World@@MAEXH@Z 004b0988 f World.obj
 0001:000afa1e       ?master_player_init@RGE_Game_World@@MAEXH@Z 004b0a1e f World.obj
 0001:000afa45       ?command_init@RGE_Game_World@@MAEXHPAVTCommunications_Handler@@@Z 004b0a45 f World.obj
 0001:000afadf       ?world_init@RGE_Game_World@@MAEXHPAVTSound_Driver@@PAVTCommunications_Handler@@@Z 004b0adf f World.obj
 0001:000afb7b       ?init@RGE_Game_World@@UAEEPADPAVTSound_Driver@@PAVTCommunications_Handler@@@Z 004b0b7b f World.obj
 0001:000afc33       ?turn_sound_off@RGE_Game_World@@UAEXXZ 004b0c33 f World.obj
 0001:000afc7e       ?reset_communications@RGE_Game_World@@QAEXPAVTCommunications_Handler@@@Z 004b0c7e f World.obj
 0001:000afca5       ?del_game_info@RGE_Game_World@@UAEXXZ 004b0ca5 f World.obj
 0001:000afe9c       ?load_player@RGE_Game_World@@MAEXHEF@Z 004b0e9c f World.obj
 0001:000affb3       ?load_world@RGE_Game_World@@UAEEH@Z 004b0fb3 f World.obj
 0001:000b0209       ?load_game@RGE_Game_World@@UAEEPAD@Z 004b1209 f World.obj
 0001:000b029f       ?set_game_speed@RGE_Game_World@@QAEXM@Z 004b129f f World.obj
 0001:000b02c0       ?setup_gaia@RGE_Game_World@@MAEXXZ 004b12c0 f World.obj
 0001:000b037a       ?setup_players@RGE_Game_World@@MAEXAAURGE_Player_Info@@@Z 004b137a f World.obj
 0001:000b0497       ?setup_player_colors@RGE_Game_World@@MAEXAAURGE_Player_Info@@@Z 004b1497 f World.obj
 0001:000b068c       ?new_game@RGE_Game_World@@UAEEAAURGE_Player_Info@@H@Z 004b168c f World.obj
 0001:000b099a       ?new_scenario@RGE_Game_World@@UAEEAAURGE_Player_Info@@H@Z 004b199a f World.obj
 0001:000b0cb8       ?new_random_game@RGE_Game_World@@MAEEAAURGE_Player_Info@@@Z 004b1cb8 f World.obj
 0001:000b0e42       ?update_sounds@RGE_Game_World@@QAEXK@Z 004b1e42 f World.obj
 0001:000b0e95       ?update@RGE_Game_World@@UAEEXZ 004b1e95 f World.obj
 0001:000b10d1       ?get_game_state@RGE_Game_World@@UAEEXZ 004b20d1 f World.obj
 0001:000b10ed       ?check_game_state@RGE_Game_World@@UAEEXZ 004b20ed f World.obj
 0001:000b136b       ?save@RGE_Game_World@@MAEXH@Z 004b236b f World.obj
 0001:000b1593       ?save_game@RGE_Game_World@@UAEEPAD@Z 004b2593 f World.obj
 0001:000b1605       ?base_save@RGE_Game_World@@UAEXH@Z 004b2605 f World.obj
 0001:000b185f       ?base_save@RGE_Game_World@@UAEXPAD@Z 004b285f f World.obj
 0001:000b18b8       ?save_scenario@RGE_Game_World@@UAEEPAD@Z 004b28b8 f World.obj
 0001:000b1c9c       ?load_scenario@RGE_Game_World@@MAEEPADAAURGE_Player_Info@@@Z 004b2c9c f World.obj
 0001:000b1ec3       ?load_scenario@RGE_Game_World@@MAEEAAURGE_Player_Info@@@Z 004b2ec3 f World.obj
 0001:000b206e       ?scenario_make_player@RGE_Game_World@@MAEXFEEEPAD@Z 004b306e f World.obj
 0001:000b2177       ?scenario_make_map@RGE_Game_World@@MAEXH@Z 004b3177 f World.obj
 0001:000b21a0       ?load_scenario1@RGE_Game_World@@MAEXHAAURGE_Player_Info@@@Z 004b31a0 f World.obj
 0001:000b2621       ?load_scenario2@RGE_Game_World@@MAEXHAAURGE_Player_Info@@@Z 004b3621 f World.obj
 0001:000b2aa1       ?load_scenario3@RGE_Game_World@@MAEXHAAURGE_Player_Info@@@Z 004b3aa1 f World.obj
 0001:000b3011       ?get_scenario_info@RGE_Game_World@@UAEPAVRGE_Scenario@@PAD@Z 004b4011 f World.obj
 0001:000b302b       ?maxNumberObjects@RGE_Game_World@@QAEHXZ 004b402b f World.obj
 0001:000b304a       ?numberObjects@RGE_Game_World@@QAEHXZ 004b404a f World.obj
 0001:000b3066       ?object@RGE_Game_World@@QAEPAVRGE_Static_Object@@H@Z 004b4066 f World.obj
 0001:000b30ad       ?addObject@RGE_Game_World@@UAEHPAVRGE_Static_Object@@@Z 004b40ad f World.obj
 0001:000b31ba       ?removeObject@RGE_Game_World@@UAEHH@Z 004b41ba f World.obj
 0001:000b320a       ?initializeObjectMap@RGE_Game_World@@QAEXXZ 004b420a f World.obj
 0001:000b3256       ?initializePathingMap@RGE_Game_World@@QAEXPAVRGE_Static_Object@@@Z 004b4256 f World.obj
 0001:000b33bd       ?initializeZoomMap@RGE_Game_World@@QAEXPAVRGE_Static_Object@@H@Z 004b43bd f World.obj
 0001:000b35e0       ??_GRGE_Game_World@@UAEPAXI@Z 004b45e0 f World.obj
 0001:000b35e0       ??_ERGE_Game_World@@UAEPAXI@Z 004b45e0 f World.obj
 0001:000b3620       ??_GRGE_Sprite@@QAEPAXI@Z  004b4620 f World.obj
 0001:000b3660       ??_GRGE_Sound@@QAEPAXI@Z   004b4660 f World.obj
 0001:000b36a0       ??0TListDialog@@QAE@PAD@Z  004b46a0 f dlg_list.obj
 0001:000b3789       ??1TListDialog@@UAE@XZ     004b4789 f dlg_list.obj
 0001:000b399f       ?setup@TListDialog@@QAEJPAVTDrawArea@@PAVTPanel@@JJJJPADJJJJPAXJJJJJJJ3JJ2HEHEPAPADFFJ2222JJJJJJJ3JJPAVTDigital@@5@Z 004b499f f dlg_list.obj
 0001:000b4171       ?setup@TListDialog@@QAEJPAVTDrawArea@@PAVTPanel@@JJJJPADJJJJPAXJJ2JJJJ3JJ2HEHEPAPADFFJ2222JJJJJJJ3JJPAVTDigital@@5@Z 004b5171 f dlg_list.obj
 0001:000b4804       ?key_down_action@TListDialog@@UAEJJFHHH@Z 004b5804 f dlg_list.obj
 0001:000b485d       ?action@TListDialog@@UAEJPAVTPanel@@JKK@Z 004b585d f dlg_list.obj
 0001:000b49f2       ?draw@TListDialog@@UAEXXZ  004b59f2 f dlg_list.obj
 0001:000b4aa0       ?get_list_id@TListDialog@@UAEFXZ 004b5aa0 f dlg_list.obj
 0001:000b4ac0       ??_GTListDialog@@UAEPAXI@Z 004b5ac0 f dlg_list.obj
 0001:000b4ac0       ??_ETListDialog@@UAEPAXI@Z 004b5ac0 f dlg_list.obj
 0001:000b4b00       ??0RGE_Player@@QAE@HPAVRGE_Game_World@@E@Z 004b5b00 f player.obj
 0001:000b4db8       ??0RGE_Player@@QAE@PAVRGE_Game_World@@PAVRGE_Master_Player@@EPADEE@Z 004b5db8 f player.obj
 0001:000b5229       ??1RGE_Player@@UAE@XZ      004b6229 f player.obj
 0001:000b54ab       ?aiStatus@RGE_Player@@UAEPADH@Z 004b64ab f player.obj
 0001:000b54c5       ?computerPlayer@RGE_Player@@QBEHXZ 004b64c5 f player.obj
 0001:000b54e1       ?isEnemy@RGE_Player@@UAEHH@Z 004b64e1 f player.obj
 0001:000b5587       ?isAlly@RGE_Player@@UAEHH@Z 004b6587 f player.obj
 0001:000b562e       ?isNeutral@RGE_Player@@UAEHH@Z 004b662e f player.obj
 0001:000b571b       ?setDiplomaticStance@RGE_Player@@UAEXHH@Z 004b671b f player.obj
 0001:000b575f       ?loadAIInformation@RGE_Player@@UAEXPAD0H@Z 004b675f f player.obj
 0001:000b5777       ?sendUnitAIOrder@RGE_Player@@UAEXHHHHHMMMHH@Z 004b6777 f player.obj
 0001:000b57c9       ?processAIOrder@RGE_Player@@UAEXHHHHHMMMHH@Z 004b67c9 f player.obj
 0001:000b584d       ?make_scenario_obj@RGE_Player@@UAEXMMMFEM@Z 004b684d f player.obj
 0001:000b58f6       ?scenario_save@RGE_Player@@UAEXH@Z 004b68f6 f player.obj
 0001:000b5a2d       ?scenario_load@RGE_Player@@UAEXHPAJM@Z 004b6a2d f player.obj
 0001:000b5c9f       ?load@RGE_Player@@UAEXH@Z  004b6c9f f player.obj
 0001:000b5fb9       ?load_master_object@RGE_Player@@QAEXHFEPAPAVRGE_Sprite@@PAPAVRGE_Sound@@@Z 004b6fb9 f player.obj
 0001:000b62fa       ?load_info@RGE_Player@@QAEXH@Z 004b72fa f player.obj
 0001:000b63a1       ?get_checksum@RGE_Player@@QAEJXZ 004b73a1 f player.obj
 0001:000b63d5       ?create_checksum@RGE_Player@@QAEJXZ 004b73d5 f player.obj
 0001:000b64a9       ?new_attribute_num@RGE_Player@@QAEXFM@Z 004b74a9 f player.obj
 0001:000b64f0       ?add_attribute_num@RGE_Player@@UAEXFM@Z 004b74f0 f player.obj
 0001:000b6544       ?make_available@RGE_Player@@QAEXFE@Z 004b7544 f player.obj
 0001:000b6586       ?update@RGE_Player@@UAEXXZ 004b7586 f player.obj
 0001:000b65d5       ?save@RGE_Player@@UAEXH@Z  004b75d5 f player.obj
 0001:000b6788       ?save2@RGE_Player@@UAEXH@Z 004b7788 f player.obj
 0001:000b68cc       ?save_info@RGE_Player@@UAEXH@Z 004b78cc f player.obj
 0001:000b68f9       ?set_map_loc@RGE_Player@@QAEXFF@Z 004b78f9 f player.obj
 0001:000b6927       ?set_view_loc@RGE_Player@@QAEXMM@Z 004b7927 f player.obj
 0001:000b6a15       ?random_start@RGE_Player@@UAEXXZ 004b7a15 f player.obj
 0001:000b6a2b       ?destroy_objects@RGE_Player@@QAEXXZ 004b7a2b f player.obj
 0001:000b6a79       ?set_color_table@RGE_Player@@QAEXE@Z 004b7a79 f player.obj
 0001:000b6aa8       ?victory_if_game_on@RGE_Player@@QAEXXZ 004b7aa8 f player.obj
 0001:000b6ad5       ?loss_if_game_on@RGE_Player@@QAEXXZ 004b7ad5 f player.obj
 0001:000b6b02       ?check_victory_conditions@RGE_Player@@QAEEXZ 004b7b02 f player.obj
 0001:000b6b3b       ?check_ally_group@RGE_Player@@QAEEAAJ@Z 004b7b3b f player.obj
 0001:000b6c2c       ?check_victory@RGE_Player@@QAEEXZ 004b7c2c f player.obj
 0001:000b6d9c       ?modify_tobj@RGE_Player@@QAEXFFME@Z 004b7d9c f player.obj
 0001:000b6f5b       ?modify_tobj_delta@RGE_Player@@QAEXFFME@Z 004b7f5b f player.obj
 0001:000b711a       ?modify_tobj_percent@RGE_Player@@QAEXFFME@Z 004b811a f player.obj
 0001:000b72d9       ?copy_obj@RGE_Player@@QAEXFF@Z 004b82d9 f player.obj
 0001:000b73b6       ?set_allied_victory@RGE_Player@@QAEXE@Z 004b83b6 f player.obj
 0001:000b73d7       ?get_allied_victory@RGE_Player@@QAEEXZ 004b83d7 f player.obj
 0001:000b73f3       ?relation@RGE_Player@@QAEEJ@Z 004b83f3 f player.obj
 0001:000b7417       ?set_relation@RGE_Player@@QAEXJE@Z 004b8417 f player.obj
 0001:000b747e       ?make_new_object@RGE_Player@@UAEPAVRGE_Static_Object@@JMMMH@Z 004b847e f player.obj
 0001:000b74ec       ?reset_selected@RGE_Player@@QAEXXZ 004b84ec f player.obj
 0001:000b75b7       ?select_object@RGE_Player@@QAEHPAVRGE_Static_Object@@@Z 004b85b7 f player.obj
 0001:000b7668       ?select_one_object@RGE_Player@@QAEHPAVRGE_Static_Object@@H@Z 004b8668 f player.obj
 0001:000b7797       ?unselect_object@RGE_Player@@QAEXXZ 004b8797 f player.obj
 0001:000b7846       ?unselect_one_object@RGE_Player@@QAEXPAVRGE_Static_Object@@@Z 004b8846 f player.obj
 0001:000b78ed       ?unselect_one_object@RGE_Player@@QAEXF@Z 004b88ed f player.obj
 0001:000b79be       ?own_selected@RGE_Player@@QAEHXZ 004b89be f player.obj
 0001:000b7a4a       ?is_category_selected@RGE_Player@@QAEHF@Z 004b8a4a f player.obj
 0001:000b7adf       ?is_group_selected@RGE_Player@@QAEHF@Z 004b8adf f player.obj
 0001:000b7b74       ?unit_level_selected@RGE_Player@@QAEEXZ 004b8b74 f player.obj
 0001:000b7c31       ?get_select_level@RGE_Player@@QAEEXZ 004b8c31 f player.obj
 0001:000b7cf7       ?get_selected_objects_to_command@RGE_Player@@QAEEPAPAPAVRGE_Static_Object@@PAFFFFF@Z 004b8cf7 f player.obj
 0001:000b7eca       ?update_selected@RGE_Player@@QAEXXZ 004b8eca f player.obj
 0001:000b7f75       ?select_area@RGE_Player@@QAEXFFFF@Z 004b8f75 f player.obj
 0001:000b7fb9       ?unselect_area@RGE_Player@@QAEXXZ 004b8fb9 f player.obj
 0001:000b7ff3       ?group_objects@RGE_Player@@QAEHXZ 004b8ff3 f player.obj
 0001:000b8259       ?ungroup_objects@RGE_Player@@QAEXXZ 004b9259 f player.obj
 0001:000b82d4       ?command_make_move@RGE_Player@@UAEEPAVRGE_Static_Object@@MM@Z 004b92d4 f player.obj
 0001:000b8359       ?command_make_work@RGE_Player@@UAEEPAVRGE_Static_Object@@MM@Z 004b9359 f player.obj
 0001:000b844d       ?command_make_do@RGE_Player@@UAEEPAVRGE_Static_Object@@MM@Z 004b944d f player.obj
 0001:000b84d2       ?command_stop@RGE_Player@@UAEEXZ 004b94d2 f player.obj
 0001:000b8549       ?command_place_object@RGE_Player@@UAEEFMMM@Z 004b9549 f player.obj
 0001:000b85b1       ?command_add_attribute@RGE_Player@@UAEEHM@Z 004b95b1 f player.obj
 0001:000b860e       ?command_give_attribute@RGE_Player@@UAEEHHM@Z 004b960e f player.obj
 0001:000b8689       ?command_formation@RGE_Player@@UAEEH@Z 004b9689 f player.obj
 0001:000b8722       ?command_create_group@RGE_Player@@UAEEXZ 004b9722 f player.obj
 0001:000b87a2       ?command_destroy_group@RGE_Player@@UAEEXZ 004b97a2 f player.obj
 0001:000b883f       ?addObject@RGE_Player@@UAEXPAVRGE_Static_Object@@@Z 004b983f f player.obj
 0001:000b8866       ?removeObject@RGE_Player@@UAEXPAVRGE_Static_Object@@@Z 004b9866 f player.obj
 0001:000b888d       ?logMessage@RGE_Player@@UAAXPADZZ 004b988d f player.obj
 0001:000b889d       ?notify@RGE_Player@@UAEXHHHJJJ@Z 004b989d f player.obj
 0001:000b88b5       ?group@RGE_Player@@QAEPAVUnitAIGroup@@H@Z 004b98b5 f player.obj
 0001:000b891d       ?createGroup@RGE_Player@@UAEXPAHH@Z 004b991d f player.obj
 0001:000b8b11       ?uncreateGroup@RGE_Player@@UAEXH@Z 004b9b11 f player.obj
 0001:000b8c1e       ?numberGroups@RGE_Player@@QAEHXZ 004b9c1e f player.obj
 0001:000b8c3a       ?set_map_visible@RGE_Player@@QAEXXZ 004b9c3a f player.obj
 0001:000b8c5d       ?remake_visible_map@RGE_Player@@QAEXXZ 004b9c5d f player.obj
 0001:000b8d32       ?add_node@RGE_Tile_List@@QAEXFF@Z 004b9d32 f player.obj
 0001:000b8d88       ?del_list@RGE_Tile_List@@QAEXXZ 004b9d88 f player.obj
 0001:000b8dd5       ??0RGE_Tile_List@@QAE@XZ   004b9dd5 f player.obj
 0001:000b8df7       ??1RGE_Tile_List@@QAE@XZ   004b9df7 f player.obj
 0001:000b8e20       ??_GRGE_Player@@UAEPAXI@Z  004b9e20 f player.obj
 0001:000b8e20       ??_ERGE_Player@@UAEPAXI@Z  004b9e20 f player.obj
 0001:000b8e60       ??_GRGE_Object_List@@QAEPAXI@Z 004b9e60 f player.obj
 0001:000b8ea0       ??_GRGE_Victory_Conditions@@QAEPAXI@Z 004b9ea0 f player.obj
 0001:000b8ee0       ?get_inside_obj@RGE_Static_Object@@QAEPAV1@XZ 004b9ee0 f player.obj
 0001:000b8f00       ?compareFilenameStrings@@YAHPBX0@Z 004b9f00 f file_stf.obj
 0001:000b8f20       ?driveAsLetter@@YADH@Z     004b9f20 f file_stf.obj
 0001:000b8f36       ?driveAsInt@@YAHD@Z        004b9f36 f file_stf.obj
 0001:000b8f4d       ??0DriveInformation@@QAE@XZ 004b9f4d f file_stf.obj
 0001:000b8f9e       ?initialDrive@DriveInformation@@QBEHXZ 004b9f9e f file_stf.obj
 0001:000b8fb9       ?initialDriveAsLetter@DriveInformation@@QBEDXZ 004b9fb9 f file_stf.obj
 0001:000b8fd7       ?initialDirectory@DriveInformation@@QAEPADXZ 004b9fd7 f file_stf.obj
 0001:000b8ff3       ?currentDrive@DriveInformation@@QBEHXZ 004b9ff3 f file_stf.obj
 0001:000b9012       ?currentDriveAsLetter@DriveInformation@@QBEDXZ 004ba012 f file_stf.obj
 0001:000b9034       ?currentDirectory@DriveInformation@@QAEPADXZ 004ba034 f file_stf.obj
 0001:000b9052       ?numberDrives@DriveInformation@@QBEHXZ 004ba052 f file_stf.obj
 0001:000b9071       ?validDrive@DriveInformation@@QBEHH@Z 004ba071 f file_stf.obj
 0001:000b9096       ?checkDrives@DriveInformation@@QAEXXZ 004ba096 f file_stf.obj
 0001:000b912d       ?numberOfFilesWithFilename@DriveInformation@@QAEHPAD@Z 004ba12d f file_stf.obj
 0001:000b91a9       ?numberOfFilesWithAttribute@DriveInformation@@QAEHH@Z 004ba1a9 f file_stf.obj
 0001:000b9235       ?numberOfFilesWithFilenameOrAttribute@DriveInformation@@QAEHPADH@Z 004ba235 f file_stf.obj
 0001:000b92dc       ?resetCurrentDriveAndDirectory@DriveInformation@@QAEHXZ 004ba2dc f file_stf.obj
 0001:000b9311       ?resetCurrentDrive@DriveInformation@@QAEHXZ 004ba311 f file_stf.obj
 0001:000b9335       ?resetCurrentDirectory@DriveInformation@@QAEHXZ 004ba335 f file_stf.obj
 0001:000b935a       ?changeDrive@DriveInformation@@QAEHH@Z 004ba35a f file_stf.obj
 0001:000b939e       ?changeDirectory@DriveInformation@@QAEHPAD@Z 004ba39e f file_stf.obj
 0001:000b93de       ?updateDirectory@DriveInformation@@IAEXXZ 004ba3de f file_stf.obj
 0001:000b9480       ??0TEasy_Panel@@QAE@PAD@Z  004ba480 f Panel_ez.obj
 0001:000b94fd       ??0TEasy_Panel@@QAE@PAD0@Z 004ba4fd f Panel_ez.obj
 0001:000b9773       ??0TEasy_Panel@@QAE@XZ     004ba773 f Panel_ez.obj
 0001:000b97e2       ?init_vars@TEasy_Panel@@IAEXXZ 004ba7e2 f Panel_ez.obj
 0001:000b98b6       ??1TEasy_Panel@@UAE@XZ     004ba8b6 f Panel_ez.obj
 0001:000b9993       ?draw_setup@TEasy_Panel@@UAEXH@Z 004ba993 f Panel_ez.obj
 0001:000b9a38       ?set_ideal_size@TEasy_Panel@@MAEXJJ@Z 004baa38 f Panel_ez.obj
 0001:000b9a68       ?set_background@TEasy_Panel@@QAEHPADJ@Z 004baa68 f Panel_ez.obj
 0001:000b9c13       ?set_palette@TEasy_Panel@@QAEHPAD@Z 004bac13 f Panel_ez.obj
 0001:000b9d10       ?set_use_bevels@TEasy_Panel@@QAEXH@Z 004bad10 f Panel_ez.obj
 0001:000b9d34       ?set_background_pos@TEasy_Panel@@QAEXH@Z 004bad34 f Panel_ez.obj
 0001:000b9d58       ?set_bevel_colors@TEasy_Panel@@QAEXEEEEEE@Z 004bad58 f Panel_ez.obj
 0001:000b9db8       ?set_text_colors@TEasy_Panel@@QAEXKK@Z 004badb8 f Panel_ez.obj
 0001:000b9de8       ?set_focus_colors@TEasy_Panel@@QAEXKK@Z 004bade8 f Panel_ez.obj
 0001:000b9e18       ?get_background@TEasy_Panel@@QAEPAVTShape@@XZ 004bae18 f Panel_ez.obj
 0001:000b9e37       ?get_palette@TEasy_Panel@@QAEPAXXZ 004bae37 f Panel_ez.obj
 0001:000b9e56       ?get_use_bevels@TEasy_Panel@@QAEHXZ 004bae56 f Panel_ez.obj
 0001:000b9e75       ?get_background_pos@TEasy_Panel@@QAEHXZ 004bae75 f Panel_ez.obj
 0001:000b9e94       ?get_bevel_colors@TEasy_Panel@@QAEXAAE00000@Z 004bae94 f Panel_ez.obj
 0001:000b9f00       ?get_text_colors@TEasy_Panel@@QAEXAAK0@Z 004baf00 f Panel_ez.obj
 0001:000b9f34       ?get_focus_colors@TEasy_Panel@@QAEXAAK0@Z 004baf34 f Panel_ez.obj
 0001:000b9f68       ?GetDLLString@TEasy_Panel@@MAEHHPADH@Z 004baf68 f Panel_ez.obj
 0001:000b9fbc       ?GetDLLString@TEasy_Panel@@MAEPADH@Z 004bafbc f Panel_ez.obj
 0001:000ba00c       ?create_button@TEasy_Panel@@MAEHPAVTPanel@@PAPAVTButtonPanel@@JJJJJJJJ@Z 004bb00c f Panel_ez.obj
 0001:000ba0c7       ?create_button@TEasy_Panel@@MAEHPAVTPanel@@PAPAVTButtonPanel@@PAD2JJJJJJ@Z 004bb0c7 f Panel_ez.obj
 0001:000ba2f5       ?create_text@TEasy_Panel@@MAEHPAVTPanel@@PAPAVTTextPanel@@HJJJJJHHH@Z 004bb2f5 f Panel_ez.obj
 0001:000ba38b       ?create_text@TEasy_Panel@@MAEHPAVTPanel@@PAPAVTTextPanel@@PADJJJJJHHH@Z 004bb38b f Panel_ez.obj
 0001:000ba5da       ?create_text@TEasy_Panel@@MAEHPAVTPanel@@PAPAVTTextPanel@@PAPADJJJJJJHH@Z 004bb5da f Panel_ez.obj
 0001:000ba82f       ?create_input@TEasy_Panel@@MAEHPAVTPanel@@PAPAVTInputPanel@@PADFW4FormatType@3@JJJJJ@Z 004bb82f f Panel_ez.obj
 0001:000ba9fd       ?create_drop_down@TEasy_Panel@@MAEHPAVTPanel@@PAPAVTDropDownPanel@@JJJJJJJ@Z 004bb9fd f Panel_ez.obj
 0001:000bad5c       ?create_list@TEasy_Panel@@MAEHPAVTPanel@@PAPAVTListPanel@@JJJJJ@Z 004bbd5c f Panel_ez.obj
 0001:000bb048       ?create_scrollbar@TEasy_Panel@@MAEHPAVTPanel@@PAPAVTScrollBarPanel@@PAVTTextPanel@@JJJJJ@Z 004bc048 f Panel_ez.obj
 0001:000bb1cb       ?create_vert_slider@TEasy_Panel@@MAEHPAVTPanel@@PAPAVTVerticalSliderPanel@@JJHJJJJ@Z 004bc1cb f Panel_ez.obj
 0001:000bb35a       ?create_horz_slider@TEasy_Panel@@MAEHPAVTPanel@@PAPAVTHorizontalSliderPanel@@JJHJJJJ@Z 004bc35a f Panel_ez.obj
 0001:000bb4e9       ?position_panel@TEasy_Panel@@MAEXPAVTPanel@@JJJJ@Z 004bc4e9 f Panel_ez.obj
 0001:000bb560       ??_ETEasy_Panel@@UAEPAXI@Z 004bc560 f Panel_ez.obj
 0001:000bb560       ??_GTEasy_Panel@@UAEPAXI@Z 004bc560 f Panel_ez.obj
 0001:000bb5a0       ??0TMessagePanel@@QAE@PAXJJ@Z 004bc5a0 f Pnl_msg.obj
 0001:000bb687       ?show_message@TMessagePanel@@QAEXW4MessageType@1@PADEE@Z 004bc687 f Pnl_msg.obj
 0001:000bb701       ?remove_message@TMessagePanel@@QAEXXZ 004bc701 f Pnl_msg.obj
 0001:000bb731       ?draw@TMessagePanel@@UAEXXZ 004bc731 f Pnl_msg.obj
 0001:000bba5f       ?handle_idle@TMessagePanel@@UAEJXZ 004bca5f f Pnl_msg.obj
 0001:000bbaf0       ?handle_mouse_down@TMessagePanel@@UAEJEJJHH@Z 004bcaf0 f Pnl_msg.obj
 0001:000bbb10       ?handle_mouse_move@TMessagePanel@@UAEJJJHH@Z 004bcb10 f Pnl_msg.obj
 0001:000bbb30       ?handle_mouse_up@TMessagePanel@@UAEJEJJHH@Z 004bcb30 f Pnl_msg.obj
 0001:000bbb50       ??_ETMessagePanel@@UAEPAXI@Z 004bcb50 f Pnl_msg.obj
 0001:000bbb50       ??_GTMessagePanel@@UAEPAXI@Z 004bcb50 f Pnl_msg.obj
 0001:000bbb90       ??1TMessagePanel@@UAE@XZ   004bcb90 f Pnl_msg.obj
 0001:000bbbf0       ??0TRIGONOMETRY@@QAE@XZ    004bcbf0 f trig.obj
 0001:000bbe48       ?RestrictAngle@TRIGONOMETRY@@AAEHH@Z 004bce48 f trig.obj
 0001:000bbe89       ?RestrictAngle360@TRIGONOMETRY@@AAEHH@Z 004bce89 f trig.obj
 0001:000bbec4       ?sine@TRIGONOMETRY@@QAEMH@Z 004bcec4 f trig.obj
 0001:000bbeee       ?cosine@TRIGONOMETRY@@QAEMH@Z 004bceee f trig.obj
 0001:000bbf1c       ?tangent@TRIGONOMETRY@@QAEMH@Z 004bcf1c f trig.obj
 0001:000bbf4a       ?atangent@TRIGONOMETRY@@QAEMH@Z 004bcf4a f trig.obj
 0001:000bbf78       ?sin360@TRIGONOMETRY@@QAEMH@Z 004bcf78 f trig.obj
 0001:000bbfa6       ?cos360@TRIGONOMETRY@@QAEMH@Z 004bcfa6 f trig.obj
 0001:000bbfd4       ?tan360@TRIGONOMETRY@@QAEMH@Z 004bcfd4 f trig.obj
 0001:000bc002       ?atan360@TRIGONOMETRY@@QAEMH@Z 004bd002 f trig.obj
 0001:000bc060       ??0RGE_Action_Make@@QAE@HPAVRGE_Action_Object@@@Z 004bd060 f ACT_make.obj
 0001:000bc0e4       ??0RGE_Action_Make@@QAE@PAVRGE_Action_Object@@PAVRGE_Task@@@Z 004bd0e4 f ACT_make.obj
 0001:000bc16d       ?first_in_stack@RGE_Action_Make@@UAEXE@Z 004bd16d f ACT_make.obj
 0001:000bc1de       ?set_state@RGE_Action_Make@@MAEXE@Z 004bd1de f ACT_make.obj
 0001:000bc1ff       ?update@RGE_Action_Make@@UAEEXZ 004bd1ff f ACT_make.obj
 0001:000bc2e0       ??_GRGE_Action_Make@@UAEPAXI@Z 004bd2e0 f ACT_make.obj
 0001:000bc2e0       ??_ERGE_Action_Make@@UAEPAXI@Z 004bd2e0 f ACT_make.obj
 0001:000bc320       ??1RGE_Action_Make@@UAE@XZ 004bd320 f ACT_make.obj
 0001:000bc380       ??0BuildAIModule@@QAE@PAXH@Z 004bd380 f aibldmod.obj
 0001:000bc48c       ??1BuildAIModule@@UAE@XZ   004bd48c f aibldmod.obj
 0001:000bc528       ?processMessage@BuildAIModule@@UAEHPAVAIModuleMessage@@@Z 004bd528 f aibldmod.obj
 0001:000bc542       ?update@BuildAIModule@@UAEHH@Z 004bd542 f aibldmod.obj
 0001:000bc568       ?loadBuildList@BuildAIModule@@UAEHPAD@Z 004bd568 f aibldmod.obj
 0001:000bca3b       ?buildListLength@BuildAIModule@@QBEHXZ 004bda3b f aibldmod.obj
 0001:000bca5a       ?buildListName@BuildAIModule@@QAEPADXZ 004bda5a f aibldmod.obj
 0001:000bca78       ?haveBuildList@BuildAIModule@@QBEHXZ 004bda78 f aibldmod.obj
 0001:000bcae4       ?numberItemsBuilt@BuildAIModule@@QBEHXZ 004bdae4 f aibldmod.obj
 0001:000bcb4d       ?numberItemsInProgress@BuildAIModule@@QBEHXZ 004bdb4d f aibldmod.obj
 0001:000bcbb6       ?numberItemsBuiltOrInProgress@BuildAIModule@@QBEHXZ 004bdbb6 f aibldmod.obj
 0001:000bcc30       ?numberItemsIntoBuildList@BuildAIModule@@QBEHXZ 004bdc30 f aibldmod.obj
 0001:000bcc4f       ?lastBuildItemRequested@BuildAIModule@@QBEPADXZ 004bdc4f f aibldmod.obj
 0001:000bcc6d       ?removeOldList@BuildAIModule@@IAEXXZ 004bdc6d f aibldmod.obj
 0001:000bcd07       ?anyBuildListItem@BuildAIModule@@IAEPAVBuildItem@@HHH@Z 004bdd07 f aibldmod.obj
 0001:000bcd94       ?specificBuildListItem@BuildAIModule@@IAEPAVBuildItem@@H@Z 004bdd94 f aibldmod.obj
 0001:000bcdfc       ?addItem@BuildAIModule@@UAEHPAVAIModuleMessage@@@Z 004bddfc f aibldmod.obj
 0001:000bce19       ?buildItem@BuildAIModule@@UAEHPAVAIModuleMessage@@@Z 004bde19 f aibldmod.obj
 0001:000bce36       ?addBuiltItem@BuildAIModule@@UAEHPAVAIModuleMessage@@@Z 004bde36 f aibldmod.obj
 0001:000bce53       ?removeBuiltItem@BuildAIModule@@UAEHPAVAIModuleMessage@@@Z 004bde53 f aibldmod.obj
 0001:000bce70       ?cancelBuildItem@BuildAIModule@@UAEHPAVAIModuleMessage@@@Z 004bde70 f aibldmod.obj
 0001:000bce8d       ?trainUnit@BuildAIModule@@UAEHPAVAIModuleMessage@@@Z 004bde8d f aibldmod.obj
 0001:000bcee3       ?addTrainedUnit@BuildAIModule@@UAEHPAVAIModuleMessage@@@Z 004bdee3 f aibldmod.obj
 0001:000bcf39       ?removeTrainedUnit@BuildAIModule@@UAEHPAVAIModuleMessage@@@Z 004bdf39 f aibldmod.obj
 0001:000bcf8f       ?cancelTrainUnit@BuildAIModule@@UAEHPAVAIModuleMessage@@@Z 004bdf8f f aibldmod.obj
 0001:000bcfe5       ?research@BuildAIModule@@UAEHPAVAIModuleMessage@@@Z 004bdfe5 f aibldmod.obj
 0001:000bd03b       ?addResearch@BuildAIModule@@UAEHPAVAIModuleMessage@@@Z 004be03b f aibldmod.obj
 0001:000bd091       ?removeResearch@BuildAIModule@@UAEHPAVAIModuleMessage@@@Z 004be091 f aibldmod.obj
 0001:000bd0e7       ?cancelResearch@BuildAIModule@@UAEHPAVAIModuleMessage@@@Z 004be0e7 f aibldmod.obj
 0001:000bd140       ??_GBuildAIModule@@UAEPAXI@Z 004be140 f aibldmod.obj
 0001:000bd140       ??_EBuildAIModule@@UAEPAXI@Z 004be140 f aibldmod.obj
 0001:000bd180       ??0RGE_Combat_Object@@QAE@PAVRGE_Master_Combat_Object@@PAVRGE_Player@@MMMH@Z 004be180 f com_obj.obj
 0001:000bd241       ??0RGE_Combat_Object@@QAE@HPAVRGE_Game_World@@H@Z 004be241 f com_obj.obj
 0001:000bd2ea       ??1RGE_Combat_Object@@UAE@XZ 004be2ea f com_obj.obj
 0001:000bd352       ?setup@RGE_Combat_Object@@MAEHPAVRGE_Master_Combat_Object@@PAVRGE_Player@@MMM@Z 004be352 f com_obj.obj
 0001:000bd3bb       ?setup@RGE_Combat_Object@@MAEHHPAVRGE_Game_World@@@Z 004be3bb f com_obj.obj
 0001:000bd434       ?save@RGE_Combat_Object@@UAEXH@Z 004be434 f com_obj.obj
 0001:000bd49d       ?calc_attack_modifier@RGE_Combat_Object@@UAEMPAVRGE_Static_Object@@@Z 004be49d f com_obj.obj
 0001:000bd4bf       ?area_attack@RGE_Combat_Object@@UAEEMMMPAV1@@Z 004be4bf f com_obj.obj
 0001:000bd7ae       ?attack@RGE_Combat_Object@@UAEEPAVRGE_Static_Object@@PAV1@@Z 004be7ae f com_obj.obj
 0001:000bd975       ?do_attack@RGE_Combat_Object@@UAEEPAVRGE_Static_Object@@PAV1@MMM@Z 004be975 f com_obj.obj
 0001:000bda8a       ?damage@RGE_Combat_Object@@UAEXHPAURGE_Armor_Weapon_Info@@MPAVRGE_Player@@PAVRGE_Static_Object@@@Z 004bea8a f com_obj.obj
 0001:000bdb37       ?calculateDamage@RGE_Combat_Object@@UAEMHPAURGE_Armor_Weapon_Info@@MPAVRGE_Player@@PAVRGE_Static_Object@@@Z 004beb37 f com_obj.obj
 0001:000bdc97       ?can_attack@RGE_Combat_Object@@UAEEXZ 004bec97 f com_obj.obj
 0001:000bdcd5       ?reset_attack_timer@RGE_Combat_Object@@QAEXXZ 004becd5 f com_obj.obj
 0001:000bdd00       ?get_armor@RGE_Combat_Object@@QAEXAAF0@Z 004bed00 f com_obj.obj
 0001:000bdda8       ?get_weapon@RGE_Combat_Object@@QAEXAAF0@Z 004beda8 f com_obj.obj
 0001:000bde27       ?release_being_worked_on@RGE_Combat_Object@@UAEXPAVRGE_Static_Object@@@Z 004bee27 f com_obj.obj
 0001:000bde7b       ?update@RGE_Combat_Object@@UAEEXZ 004bee7b f com_obj.obj
 0001:000bdf73       ?copy_obj@RGE_Combat_Object@@UAEXPAVRGE_Master_Static_Object@@@Z 004bef73 f com_obj.obj
 0001:000bdfe1       ?notify@RGE_Combat_Object@@UAEXHHHJJJ@Z 004befe1 f com_obj.obj
 0001:000be088       ?attack@RGE_Combat_Object@@UAEHHH@Z 004bf088 f com_obj.obj
 0001:000be26e       ?moveTo@RGE_Combat_Object@@UAEHHH@Z 004bf26e f com_obj.obj
 0001:000be288       ?moveTo@RGE_Combat_Object@@UAEHHMH@Z 004bf288 f com_obj.obj
 0001:000be442       ?moveTo@RGE_Combat_Object@@UAEHMMMH@Z 004bf442 f com_obj.obj
 0001:000be5fc       ?moveAwayFrom@RGE_Combat_Object@@UAEHHH@Z 004bf5fc f com_obj.obj
 0001:000be616       ?gather@RGE_Combat_Object@@UAEHHH@Z 004bf616 f com_obj.obj
 0001:000be85f       ?explore@RGE_Combat_Object@@UAEHHHH@Z 004bf85f f com_obj.obj
 0001:000bea76       ?enter@RGE_Combat_Object@@UAEHHH@Z 004bfa76 f com_obj.obj
 0001:000bec31       ?transport@RGE_Combat_Object@@UAEHMMMH@Z 004bfc31 f com_obj.obj
 0001:000bed8c       ?stopAction@RGE_Combat_Object@@UAEHXZ 004bfd8c f com_obj.obj
 0001:000bedca       ?rateOfFire@RGE_Combat_Object@@UAEMXZ 004bfdca f com_obj.obj
 0001:000bedec       ?weaponRange@RGE_Combat_Object@@UAEMXZ 004bfdec f com_obj.obj
 0001:000bee10       ??_ERGE_Combat_Object@@UAEPAXI@Z 004bfe10 f com_obj.obj
 0001:000bee10       ??_GRGE_Combat_Object@@UAEPAXI@Z 004bfe10 f com_obj.obj
 0001:000bee50       ??0TSound_Driver@@QAE@XZ   004bfe50 f Sounddrv.obj
 0001:000bee71       ??0TSound_Driver@@QAE@PAX@Z 004bfe71 f Sounddrv.obj
 0001:000beea0       ??1TSound_Driver@@QAE@XZ   004bfea0 f Sounddrv.obj
 0001:000beebe       ?init_vars@TSound_Driver@@QAEXXZ 004bfebe f Sounddrv.obj
 0001:000bef09       ?init@TSound_Driver@@QAEHPAX@Z 004bff09 f Sounddrv.obj
 0001:000bf2bb       ?exit@TSound_Driver@@QAEXXZ 004c02bb f Sounddrv.obj
 0001:000bf34f       ?driver_active@TSound_Driver@@QAEHXZ 004c034f f Sounddrv.obj
 0001:000bf36e       ?stream_file@TSound_Driver@@QAEHPADHJ@Z 004c036e f Sounddrv.obj
 0001:000bf3b6       ?set_stream_volume@TSound_Driver@@QAEHJ@Z 004c03b6 f Sounddrv.obj
 0001:000bf3f0       ?pause_stream@TSound_Driver@@QAEHXZ 004c03f0 f Sounddrv.obj
 0001:000bf421       ?resume_stream@TSound_Driver@@QAEHXZ 004c0421 f Sounddrv.obj
 0001:000bf452       ?stop_stream@TSound_Driver@@QAEHXZ 004c0452 f Sounddrv.obj
 0001:000bf483       ?handle_messages@TSound_Driver@@QAEIPAXIIJ@Z 004c0483 f Sounddrv.obj
 0001:000bf4c9       ??0TDigital@@QAE@PAVTSound_Driver@@PADJ@Z 004c04c9 f Sounddrv.obj
 0001:000bf523       ??0TDigital@@QAE@PAV0@@Z   004c0523 f Sounddrv.obj
 0001:000bf57f       ??1TDigital@@QAE@XZ        004c057f f Sounddrv.obj
 0001:000bf59d       ?init_vars@TDigital@@QAEXXZ 004c059d f Sounddrv.obj
 0001:000bf624       ?exit@TDigital@@QAEXXZ     004c0624 f Sounddrv.obj
 0001:000bf687       ?load@TDigital@@QAEHPADJ@Z 004c0687 f Sounddrv.obj
 0001:000bfdcb       ?unload@TDigital@@QAEXXZ   004c0dcb f Sounddrv.obj
 0001:000bfe85       ?play@TDigital@@QAEHXZ     004c0e85 f Sounddrv.obj
 0001:000c007b       ?stop@TDigital@@QAEXXZ     004c107b f Sounddrv.obj
 0001:000c00ed       ?set_loop@TDigital@@QAEXF@Z 004c10ed f Sounddrv.obj
 0001:000c012a       ?set_volume@TDigital@@QAEXJ@Z 004c112a f Sounddrv.obj
 0001:000c0195       ?set_pitch@TDigital@@QAEXK@Z 004c1195 f Sounddrv.obj
 0001:000c0200       ?set_pan@TDigital@@QAEXJ@Z 004c1200 f Sounddrv.obj
 0001:000c026b       ?is_playing@TDigital@@QAEHXZ 004c126b f Sounddrv.obj
 0001:000c0330       ??0ConstructionItem@@QAE@XZ 004c1330 f aiconitm.obj
 0001:000c03d1       ??0ConstructionItem@@QAE@MMMMMMHPAD@Z 004c13d1 f aiconitm.obj
 0001:000c0498       ??0ConstructionItem@@QAE@PAV0@@Z 004c1498 f aiconitm.obj
 0001:000c0545       ??0ConstructionItem@@QAE@ABV0@@Z 004c1545 f aiconitm.obj
 0001:000c05f2       ??1ConstructionItem@@UAE@XZ 004c15f2 f aiconitm.obj
 0001:000c065a       ??8@YAHABVConstructionItem@@0@Z 004c165a f aiconitm.obj
 0001:000c06a4       ??9@YAHABVConstructionItem@@0@Z 004c16a4 f aiconitm.obj
 0001:000c06ee       ??M@YAHABVConstructionItem@@0@Z 004c16ee f aiconitm.obj
 0001:000c071c       ??O@YAHABVConstructionItem@@0@Z 004c171c f aiconitm.obj
 0001:000c074a       ?inProgress@ConstructionItem@@QBEHXZ 004c174a f aiconitm.obj
 0001:000c0766       ?built@ConstructionItem@@QBEHXZ 004c1766 f aiconitm.obj
 0001:000c0782       ?buildAttempts@ConstructionItem@@QBEHXZ 004c1782 f aiconitm.obj
 0001:000c079e       ?setInProgress@ConstructionItem@@QAEXH@Z 004c179e f aiconitm.obj
 0001:000c07bf       ?setBuilt@ConstructionItem@@QAEXH@Z 004c17bf f aiconitm.obj
 0001:000c07e0       ?incrementBuildAttempts@ConstructionItem@@QAEXXZ 004c17e0 f aiconitm.obj
 0001:000c07fc       ?decrementBuildAttempts@ConstructionItem@@QAEXXZ 004c17fc f aiconitm.obj
 0001:000c0830       ??_EConstructionItem@@UAEPAXI@Z 004c1830 f aiconitm.obj
 0001:000c0830       ??_GConstructionItem@@UAEPAXI@Z 004c1830 f aiconitm.obj
 0001:000c0870       ??0RGE_Lobby@@QAE@XZ       004c1870 f com_loby.obj
 0001:000c08ad       ??1RGE_Lobby@@QAE@XZ       004c18ad f com_loby.obj
 0001:000c08cb       ?clear_lobby_info@RGE_Lobby@@QAEXXZ 004c18cb f com_loby.obj
 0001:000c096b       ?check_for_lobby_launch@RGE_Lobby@@QAEEAAPAUIDirectPlay2@@@Z 004c196b f com_loby.obj
 0001:000c0b42       ?is_this_host@RGE_Lobby@@QAEEXZ 004c1b42 f com_loby.obj
 0001:000c0b88       ?get_player_info@RGE_Lobby@@QAEEPAPAD@Z 004c1b88 f com_loby.obj
 0001:000c0bca       ?get_session_info@RGE_Lobby@@QAEEAAUDPSESSIONDESC2@@@Z 004c1bca f com_loby.obj
 0001:000c0c0e       ?launch_to_lobby@RGE_Lobby@@QAEXXZ 004c1c0e f com_loby.obj
 0001:000c0c40       ??0RGE_Active_Sprite_List@@QAE@XZ 004c1c40 f asp_list.obj
 0001:000c0c6c       ??1RGE_Active_Sprite_List@@UAE@XZ 004c1c6c f asp_list.obj
 0001:000c0c93       ?load@RGE_Active_Sprite_List@@QAEXHPAPAVRGE_Sprite@@@Z 004c1c93 f asp_list.obj
 0001:000c0d39       ?load_node@RGE_Active_Sprite_List@@MAEEHEPAPAVRGE_Sprite@@@Z 004c1d39 f asp_list.obj
 0001:000c0ee4       ?save@RGE_Active_Sprite_List@@QAEXH@Z 004c1ee4 f asp_list.obj
 0001:000c0f4b       ?delete_list@RGE_Active_Sprite_List@@QAEXXZ 004c1f4b f asp_list.obj
 0001:000c0fc7       ?add_sprite@RGE_Active_Sprite_List@@QAEXPAVRGE_Sprite@@EJJ@Z 004c1fc7 f asp_list.obj
 0001:000c10e5       ?remove_sprite@RGE_Active_Sprite_List@@QAEXPAVRGE_Sprite@@@Z 004c20e5 f asp_list.obj
 0001:000c11a6       ?update@RGE_Active_Sprite_List@@UAEXMM@Z 004c21a6 f asp_list.obj
 0001:000c11fb       ?draw@RGE_Active_Sprite_List@@UAEXFFFPAVRGE_Color_Table@@PAVTDrawArea@@@Z 004c21fb f asp_list.obj
 0001:000c125e       ?normal_draw@RGE_Active_Sprite_List@@UAEXFFFPAVRGE_Color_Table@@PAVTDrawArea@@@Z 004c225e f asp_list.obj
 0001:000c12c1       ?shadow_draw@RGE_Active_Sprite_List@@UAEXFFFPAVRGE_Color_Table@@PAVTDrawArea@@E@Z 004c22c1 f asp_list.obj
 0001:000c1328       ?frame@RGE_Active_Sprite_List@@UAEFPAVRGE_Sprite@@@Z 004c2328 f asp_list.obj
 0001:000c138e       ?is_animating@RGE_Active_Sprite_List@@UAEEPAVRGE_Sprite@@@Z 004c238e f asp_list.obj
 0001:000c13f3       ?set_frame@RGE_Active_Sprite_List@@UAEXPAVRGE_Sprite@@F@Z 004c23f3 f asp_list.obj
 0001:000c1455       ?frame_passed@RGE_Active_Sprite_List@@UAEEPAVRGE_Sprite@@F@Z 004c2455 f asp_list.obj
 0001:000c14be       ?looped@RGE_Active_Sprite_List@@UAEEPAVRGE_Sprite@@@Z 004c24be f asp_list.obj
 0001:000c1523       ?get_facetindex@RGE_Active_Sprite_List@@UAEFPAVRGE_Sprite@@F@Z 004c2523 f asp_list.obj
 0001:000c158d       ?get_frame@RGE_Active_Sprite_List@@QAEEAAF000PAVRGE_Sprite@@J@Z 004c258d f asp_list.obj
 0001:000c1606       ?get_lowest_draw_level@RGE_Active_Sprite_List@@QAEEXZ 004c2606 f asp_list.obj
 0001:000c1670       ??_GRGE_Active_Sprite_List@@UAEPAXI@Z 004c2670 f asp_list.obj
 0001:000c1670       ??_ERGE_Active_Sprite_List@@UAEPAXI@Z 004c2670 f asp_list.obj
 0001:000c16b0       ??0TRIBE_Action@@QAE@HPAVRGE_Action_Object@@H@Z 004c26b0 f TACTION.obj
 0001:000c1745       ??0TRIBE_Action@@QAE@PAVRGE_Action_Object@@H@Z 004c2745 f TACTION.obj
 0001:000c17d2       ?setup@TRIBE_Action@@UAEHHPAVRGE_Action_Object@@@Z 004c27d2 f TACTION.obj
 0001:000c17fa       ?setup@TRIBE_Action@@UAEHPAVRGE_Action_Object@@@Z 004c27fa f TACTION.obj
 0001:000c181e       ?create_action_list@TRIBE_Action@@UAEPAVRGE_Action_List@@PAVRGE_Action_Object@@@Z 004c281e f TACTION.obj
 0001:000c18c0       ??_ETRIBE_Action@@UAEPAXI@Z 004c28c0 f TACTION.obj
 0001:000c18c0       ??_GTRIBE_Action@@UAEPAXI@Z 004c28c0 f TACTION.obj
 0001:000c1900       ??1TRIBE_Action@@UAE@XZ    004c2900 f TACTION.obj
 0001:000c1960       ??0RGE_Action_Gather@@QAE@HPAVRGE_Action_Object@@@Z 004c2960 f ACT_GATH.obj
 0001:000c19f9       ??0RGE_Action_Gather@@QAE@PAVRGE_Action_Object@@PAVRGE_Task@@PAVRGE_Static_Object@@@Z 004c29f9 f ACT_GATH.obj
 0001:000c1acc       ??0RGE_Action_Gather@@QAE@PAVRGE_Action_Object@@PAVRGE_Task@@MMM@Z 004c2acc f ACT_GATH.obj
 0001:000c1b7a       ?save@RGE_Action_Gather@@UAEXH@Z 004c2b7a f ACT_GATH.obj
 0001:000c1bb3       ?first_in_stack@RGE_Action_Gather@@UAEXE@Z 004c2bb3 f ACT_GATH.obj
 0001:000c1c51       ?set_state@RGE_Action_Gather@@MAEXE@Z 004c2c51 f ACT_GATH.obj
 0001:000c2226       ?update@RGE_Action_Gather@@UAEEXZ 004c3226 f ACT_GATH.obj
 0001:000c2883       ?get_move_sprite@RGE_Action_Gather@@IAEPAVRGE_Sprite@@XZ 004c3883 f ACT_GATH.obj
 0001:000c290c       ?get_wait_sprite@RGE_Action_Gather@@IAEPAVRGE_Sprite@@XZ 004c390c f ACT_GATH.obj
 0001:000c2996       ?stop@RGE_Action_Gather@@UAEHXZ 004c3996 f ACT_GATH.obj
 0001:000c29be       ?move_to@RGE_Action_Gather@@UAEHPAVRGE_Static_Object@@MMM@Z 004c39be f ACT_GATH.obj
 0001:000c2ad8       ?work@RGE_Action_Gather@@UAEHPAVRGE_Static_Object@@MMM@Z 004c3ad8 f ACT_GATH.obj
 0001:000c2c60       ??_GRGE_Action_Gather@@UAEPAXI@Z 004c3c60 f ACT_GATH.obj
 0001:000c2c60       ??_ERGE_Action_Gather@@UAEPAXI@Z 004c3c60 f ACT_GATH.obj
 0001:000c2ca0       ??1RGE_Action_Gather@@UAE@XZ 004c3ca0 f ACT_GATH.obj
 0001:000c2d00       ??0TribeEndScreen@@QAE@PADPAPADH@Z 004c3d00 f scr_end.obj
 0001:000c3327       ??1TribeEndScreen@@UAE@XZ  004c4327 f scr_end.obj
 0001:000c3443       ?action@TribeEndScreen@@MAEJPAVTPanel@@JKK@Z 004c4443 f scr_end.obj
 0001:000c3530       ??_ETribeEndScreen@@UAEPAXI@Z 004c4530 f scr_end.obj
 0001:000c3530       ??_GTribeEndScreen@@UAEPAXI@Z 004c4530 f scr_end.obj
 0001:000c3570       ??0TacticalAIModule@@QAE@PAXH@Z 004c4570 f aitacmod.obj
 0001:000c35f3       ??1TacticalAIModule@@UAE@XZ 004c45f3 f aitacmod.obj
 0001:000c3660       ??_ETacticalAIModule@@UAEPAXI@Z 004c4660 f aitacmod.obj
 0001:000c3660       ??_GTacticalAIModule@@UAEPAXI@Z 004c4660 f aitacmod.obj
 0001:000c36a0       ??0TRIBE_Command@@QAE@PAVTRIBE_World@@PAVTCommunications_Handler@@@Z 004c46a0 f tcommand.obj
 0001:000c3719       ?do_command@TRIBE_Command@@EAEXPAX@Z 004c4719 f tcommand.obj
 0001:000c3865       ?do_command_tribe_create@TRIBE_Command@@AAEXPAURGE_Command_Create@@@Z 004c4865 f tcommand.obj
 0001:000c3947       ?do_command_make@TRIBE_Command@@AAEXPAUTRIBE_Command_Make@@@Z 004c4947 f tcommand.obj
 0001:000c3a27       ?do_command_research@TRIBE_Command@@AAEXPAUTRIBE_Command_Research@@@Z 004c4a27 f tcommand.obj
 0001:000c3b07       ?do_command_build@TRIBE_Command@@AAEXPAUTRIBE_Command_Build@@@Z 004c4b07 f tcommand.obj
 0001:000c3d2d       ?do_command_explore@TRIBE_Command@@AAEXPAUTRIBE_Command_Explore@@@Z 004c4d2d f tcommand.obj
 0001:000c3de4       ?do_command_game@TRIBE_Command@@AAEXPAUTRIBE_Command_Game@@@Z 004c4de4 f tcommand.obj
 0001:000c3f06       ?command_make@TRIBE_Command@@QAEXPAVRGE_Static_Object@@F@Z 004c4f06 f tcommand.obj
 0001:000c3f94       ?command_make@TRIBE_Command@@QAEXHHHH@Z 004c4f94 f tcommand.obj
 0001:000c4016       ?command_research@TRIBE_Command@@QAEXPAVRGE_Static_Object@@F@Z 004c5016 f tcommand.obj
 0001:000c40a4       ?command_research@TRIBE_Command@@QAEXHHHH@Z 004c50a4 f tcommand.obj
 0001:000c4126       ?command_build@TRIBE_Command@@QAEXPAPAVRGE_Static_Object@@FFMM@Z 004c5126 f tcommand.obj
 0001:000c425f       ?command_build@TRIBE_Command@@QAEXHPAHHHMMH@Z 004c525f f tcommand.obj
 0001:000c4352       ?command_explore@TRIBE_Command@@QAEXHPAHHMM@Z 004c5352 f tcommand.obj
 0001:000c4432       ?command_allied_victory@TRIBE_Command@@QAEXFE@Z 004c5432 f tcommand.obj
 0001:000c44a5       ?command_relation@TRIBE_Command@@QAEXFFF@Z 004c54a5 f tcommand.obj
 0001:000c451a       ?command_game_speed@TRIBE_Command@@QAEXM@Z 004c551a f tcommand.obj
 0001:000c4572       ?command_inventory@TRIBE_Command@@QAEXFFM@Z 004c5572 f tcommand.obj
 0001:000c45e0       ?command_upgrade_town@TRIBE_Command@@QAEXF@Z 004c55e0 f tcommand.obj
 0001:000c463a       ?command_quick_build@TRIBE_Command@@QAEXF@Z 004c563a f tcommand.obj
 0001:000c46a0       ??_GTRIBE_Command@@UAEPAXI@Z 004c56a0 f tcommand.obj
 0001:000c46a0       ??_ETRIBE_Command@@UAEPAXI@Z 004c56a0 f tcommand.obj
 0001:000c46e0       ??1TRIBE_Command@@UAE@XZ   004c56e0 f tcommand.obj
 0001:000c4740       ?set_quick_build@RGE_Base_Game@@QAEXH@Z 004c5740 f tcommand.obj
 0001:000c4770       ?RetrieveData@ControlerOfLandscape@@UAEHXZ 004c5770 f map_ctrl.obj
 0001:000c478f       ??0ControlerOfLandscape@@QAE@XZ 004c578f f map_ctrl.obj
 0001:000c4849       ??0ControlerOfLandscape@@QAE@PAVRGE_Map@@@Z 004c5849 f map_ctrl.obj
 0001:000c49b4       ??1ControlerOfLandscape@@QAE@XZ 004c59b4 f map_ctrl.obj
 0001:000c4bb6       ?ResetForANewMap@ControlerOfLandscape@@UAEXXZ 004c5bb6 f map_ctrl.obj
 0001:000c4cc5       ?DoesARectangleIntersect_WithAnyOthersInAnArray@ControlerOfLandscape@@MAEHPAURECTANGLE@@0H@Z 004c5cc5 f map_ctrl.obj
 0001:000c4de0       ?ErrorChecking@ControlerOfLandscape@@MAEXXZ 004c5de0 f map_ctrl.obj
 0001:000c5187       ?CompareLocationToAllOthers@ControlerOfLandscape@@MAEHXZ 004c6187 f map_ctrl.obj
 0001:000c5264       ?CompareLocationToAllOthers@ControlerOfLandscape@@MAEHHH@Z 004c6264 f map_ctrl.obj
 0001:000c5359       ?CompareLocationToAllOthers@ControlerOfLandscape@@MAEHHHHH@Z 004c6359 f map_ctrl.obj
 0001:000c5407       ?GenerateRandomLocationForGroupedObjectsAMinimumDistFromPlayer@ControlerOfLandscape@@MAEXXZ 004c6407 f map_ctrl.obj
 0001:000c54d7       ?InitializeAFewVariables@ControlerOfLandscape@@MAEXXZ 004c64d7 f map_ctrl.obj
 0001:000c558f       ?ClearAnAreaAroundEachPlayer@ControlerOfLandscape@@MAEXDD@Z 004c658f f map_ctrl.obj
 0001:000c5a64       ?ClearAnArea@ControlerOfLandscape@@MAEXHHHDD@Z 004c6a64 f map_ctrl.obj
 0001:000c5d1a       ?GenerateRandomLocation@ControlerOfLandscape@@MAEXXZ 004c6d1a f map_ctrl.obj
 0001:000c5db2       ?MakeRandomStartingLocations@ControlerOfLandscape@@MAEXHHHH@Z 004c6db2 f map_ctrl.obj
 0001:000c67a4       ?MakeRandomStartingLocations@ControlerOfLandscape@@MAEXXZ 004c77a4 f map_ctrl.obj
 0001:000c67ba       ?CheckIntersectionOfRectangles@ControlerOfLandscape@@MAEHPAURECTANGLE@@H@Z 004c77ba f map_ctrl.obj
 0001:000c6920       ??_GObjectPlacer@@QAEPAXI@Z 004c7920 f map_ctrl.obj
 0001:000c6960       ?SetNumberOfTiles@PointMaker@@QAEXH@Z 004c7960 f map_ctrl.obj
 0001:000c6990       ?PassControlerOfLandscape@ObjectPlacer@@QAEXPAVControlerOfLandscape@@@Z 004c7990 f map_ctrl.obj
 0001:000c69c0       ??0TRIBE_Tree_Object@@QAE@PAVTRIBE_Master_Tree_Object@@PAVRGE_Player@@MMMH@Z 004c79c0 f t_tre_ob.obj
 0001:000c6a6d       ??0TRIBE_Tree_Object@@QAE@HPAVRGE_Game_World@@H@Z 004c7a6d f t_tre_ob.obj
 0001:000c6b02       ?set_object_state@TRIBE_Tree_Object@@UAEXE@Z 004c7b02 f t_tre_ob.obj
 0001:000c6b30       ??_GTRIBE_Tree_Object@@UAEPAXI@Z 004c7b30 f t_tre_ob.obj
 0001:000c6b30       ??_ETRIBE_Tree_Object@@UAEPAXI@Z 004c7b30 f t_tre_ob.obj
 0001:000c6b70       ??1TRIBE_Tree_Object@@UAE@XZ 004c7b70 f t_tre_ob.obj
 0001:000c6bd0       ??0InformationAIModule@@QAE@PAXH@Z 004c7bd0 f aiinfmod.obj
 0001:000c6c53       ??1InformationAIModule@@UAE@XZ 004c7c53 f aiinfmod.obj
 0001:000c6cc0       ??_GInformationAIModule@@UAEPAXI@Z 004c7cc0 f aiinfmod.obj
 0001:000c6cc0       ??_EInformationAIModule@@UAEPAXI@Z 004c7cc0 f aiinfmod.obj
 0001:000c6d00       ?CopyRGE_MapIntoLocalArray@ControlerOfLandscape@@UAEXPAVRGE_Map@@@Z 004c7d00 f map_obj.obj
 0001:000c6da0       ?CleanUpRaisedLand@ControlerOfLandscape@@MAEXXZ 004c7da0 f map_obj.obj
 0001:000c6e99       ?RaiseLand@ControlerOfLandscape@@MAEXHH@Z 004c7e99 f map_obj.obj
 0001:000c6ed0       ?FillRectOfLandType@ControlerOfLandscape@@MAEXHHHHH@Z 004c7ed0 f map_obj.obj
 0001:000c6f40       ?SetElevationBasedOnTypes@ControlerOfLandscape@@MAEXXZ 004c7f40 f map_obj.obj
 0001:000c7028       ?SetElevationBasedOnTypes@ControlerOfLandscape@@MAEXPAURECTANGLE@@@Z 004c8028 f map_obj.obj
 0001:000c7184       ?CleanUpMap@ControlerOfLandscape@@UAEXXZ 004c8184 f map_obj.obj
 0001:000c725e       ?CleanUpLand@ControlerOfLandscape@@MAEXXZ 004c825e f map_obj.obj
 0001:000c72d2       ?CleanUpLand@ControlerOfLandscape@@MAEXPAURECTANGLE@@@Z 004c82d2 f map_obj.obj
 0001:000c7399       ?FinalizeMapWithHost@ControlerOfLandscape@@MAEXPAURECTANGLE@@@Z 004c8399 f map_obj.obj
 0001:000c7448       ?FinalizeMapWithHost@ControlerOfLandscape@@MAEXXZ 004c8448 f map_obj.obj
 0001:000c752a       ?WriteCharArrayIntoRGE_map@ControlerOfLandscape@@MAEXPAURECTANGLE@@@Z 004c852a f map_obj.obj
 0001:000c76b0       ?RESOURCE_MANAGER_open_resource_file@@YAXPAD0@Z 004c86b0 f Res_file.obj
 0001:000c7955       ?RESOURCE_MANAGER_open_mapped_resource_file@@YAXPAD0@Z 004c8955 f Res_file.obj
 0001:000c7b58       ?RESOURCE_MANAGER_close_resource_file@@YAXPAD@Z 004c8b58 f Res_file.obj
 0001:000c7c49       ?RESOURCE_MANAGER_get_resource_info@@YAJKPAHPAJPAPAE@Z 004c8c49 f Res_file.obj
 0001:000c7cfa       ?RESOURCE_MANAGER_read@@YAPAEKAAE@Z 004c8cfa f Res_file.obj
 0001:000c7e10       ?RESOURCE_MANAGER_read_file@@YAPAEHJ@Z 004c8e10 f Res_file.obj
 0001:000c7eb0       ??0STRATOS_Action_Move_To@@QAE@HPAVRGE_Action_Object@@@Z 004c8eb0 f s_act_mo.obj
 0001:000c7f49       ??0STRATOS_Action_Move_To@@QAE@PAVRGE_Action_Object@@MMMMPAVRGE_Sprite@@@Z 004c8f49 f s_act_mo.obj
 0001:000c8066       ??0STRATOS_Action_Move_To@@QAE@PAVRGE_Action_Object@@PAVRGE_Static_Object@@MPAVRGE_Sprite@@@Z 004c9066 f s_act_mo.obj
 0001:000c8174       ??1STRATOS_Action_Move_To@@UAE@XZ 004c9174 f s_act_mo.obj
 0001:000c820e       ?save@STRATOS_Action_Move_To@@UAEXH@Z 004c920e f s_act_mo.obj
 0001:000c8247       ?first_in_stack@STRATOS_Action_Move_To@@UAEXE@Z 004c9247 f s_act_mo.obj
 0001:000c826c       ?set_state@STRATOS_Action_Move_To@@MAEXE@Z 004c926c f s_act_mo.obj
 0001:000c82dd       ?update@STRATOS_Action_Move_To@@UAEEXZ 004c92dd f s_act_mo.obj
 0001:000c869c       ?is_in_range@STRATOS_Action_Move_To@@IAEEXZ 004c969c f s_act_mo.obj
 0001:000c8713       ?distance_to_target_obj@STRATOS_Action_Move_To@@IAEMXZ 004c9713 f s_act_mo.obj
 0001:000c8873       ?distance_to_target_pos@STRATOS_Action_Move_To@@IAEMXZ 004c9873 f s_act_mo.obj
 0001:000c89c0       ??_ESTRATOS_Action_Move_To@@UAEPAXI@Z 004c99c0 f s_act_mo.obj
 0001:000c89c0       ??_GSTRATOS_Action_Move_To@@UAEPAXI@Z 004c99c0 f s_act_mo.obj
 0001:000c8a00       ??0TribeMPSetupScreen@@QAE@XZ 004c9a00 f scr_mps.obj
 0001:000c9f7e       ?init_vars@TribeMPSetupScreen@@IAEXXZ 004caf7e f scr_mps.obj
 0001:000ca7eb       ??1TribeMPSetupScreen@@UAE@XZ 004cb7eb f scr_mps.obj
 0001:000cabf0       ?draw@TribeMPSetupScreen@@UAEXXZ 004cbbf0 f scr_mps.obj
 0001:000cac0e       ?action@TribeMPSetupScreen@@UAEJPAVTPanel@@JKK@Z 004cbc0e f scr_mps.obj
 0001:000cbbe8       ?handle_user_command@TribeMPSetupScreen@@UAEJIJ@Z 004ccbe8 f scr_mps.obj
 0001:000cbe86       ?handle_timer_command@TribeMPSetupScreen@@UAEJIJ@Z 004cce86 f scr_mps.obj
 0001:000cbea3       ?fillPlayers@TribeMPSetupScreen@@QAEXXZ 004ccea3 f scr_mps.obj
 0001:000cca44       ?fillChat@TribeMPSetupScreen@@IAEXXZ 004cda44 f scr_mps.obj
 0001:000ccb4b       ?updateSummary@TribeMPSetupScreen@@QAEXXZ 004cdb4b f scr_mps.obj
 0001:000cdbfd       ?kickPlayer@TribeMPSetupScreen@@IAEXH@Z 004cebfd f scr_mps.obj
 0001:000cdc7a       ?handleKickedPlayer@TribeMPSetupScreen@@IAEXH@Z 004cec7a f scr_mps.obj
 0001:000cdd10       ?activateVictoryPanels@TribeMPSetupScreen@@IAEXXZ 004ced10 f scr_mps.obj
 0001:000cde6f       ?setupTabOrder@TribeMPSetupScreen@@IAEXXZ 004cee6f f scr_mps.obj
 0001:000ce010       ??_GTribeMPSetupScreen@@UAEPAXI@Z 004cf010 f scr_mps.obj
 0001:000ce010       ??_ETribeMPSetupScreen@@UAEPAXI@Z 004cf010 f scr_mps.obj
 0001:000ce050       ??0RGE_Command@@QAE@PAVRGE_Game_World@@PAVTCommunications_Handler@@@Z 004cf050 f Command.obj
 0001:000ce086       ??1RGE_Command@@UAE@XZ     004cf086 f Command.obj
 0001:000ce0b9       ?reset_communications@RGE_Command@@QAEXPAVTCommunications_Handler@@@Z 004cf0b9 f Command.obj
 0001:000ce0da       ?get_obj@RGE_Command@@IAEPAVRGE_Static_Object@@URGE_Obj_Info@@@Z 004cf0da f Command.obj
 0001:000ce168       ?do_commands@RGE_Command@@QAEXXZ 004cf168 f Command.obj
 0001:000ce1d2       ?do_command@RGE_Command@@UAEXPAX@Z 004cf1d2 f Command.obj
 0001:000ce327       ?do_command_order@RGE_Command@@IAEXPAURGE_Command_Order@@@Z 004cf327 f Command.obj
 0001:000ce6e0       ?do_command_stop@RGE_Command@@IAEXPAURGE_Command_Stop@@@Z 004cf6e0 f Command.obj
 0001:000ce75f       ?do_command_work@RGE_Command@@IAEXPAURGE_Command_Order@@@Z 004cf75f f Command.obj
 0001:000ce80a       ?do_command_move@RGE_Command@@IAEXPAURGE_Command_Order@@@Z 004cf80a f Command.obj
 0001:000ce8b5       ?do_command_create@RGE_Command@@IAEXPAURGE_Command_Create@@@Z 004cf8b5 f Command.obj
 0001:000ce93b       ?do_command_add_attribute@RGE_Command@@IAEXPAURGE_Command_Add_Attribute@@@Z 004cf93b f Command.obj
 0001:000ce98a       ?do_command_give_attribute@RGE_Command@@IAEXPAURGE_Command_Give_Attribute@@@Z 004cf98a f Command.obj
 0001:000cea9a       ?do_command_formation@RGE_Command@@IAEXPAURGE_Command_Formation@@@Z 004cfa9a f Command.obj
 0001:000cee07       ?do_command_create_group@RGE_Command@@IAEXPAURGE_Command_Create_Group@@@Z 004cfe07 f Command.obj
 0001:000cee5e       ?do_command_ai_order@RGE_Command@@IAEXPAURGE_Command_AI_Order@@@Z 004cfe5e f Command.obj
 0001:000ceee9       ?do_command_destroy_group@RGE_Command@@IAEXPAURGE_Command_Destroy_Group@@@Z 004cfee9 f Command.obj
 0001:000cef34       ?command_order@RGE_Command@@QAEXPAPAVRGE_Static_Object@@FPAV2@MM@Z 004cff34 f Command.obj
 0001:000cf08c       ?command_stop@RGE_Command@@QAEXPAPAVRGE_Static_Object@@F@Z 004d008c f Command.obj
 0001:000cf193       ?command_stop@RGE_Command@@QAEXHPAHH@Z 004d0193 f Command.obj
 0001:000cf25b       ?command_work@RGE_Command@@QAEXPAPAVRGE_Static_Object@@FPAV2@MM@Z 004d025b f Command.obj
 0001:000cf3b3       ?command_work@RGE_Command@@QAEXHPAHHHHMM@Z 004d03b3 f Command.obj
 0001:000cf4a0       ?command_move@RGE_Command@@QAEXPAPAVRGE_Static_Object@@FPAV2@MM@Z 004d04a0 f Command.obj
 0001:000cf5fd       ?command_move@RGE_Command@@QAEXHPAHHHHMM@Z 004d05fd f Command.obj
 0001:000cf6ea       ?command_create@RGE_Command@@QAEXFFMMM@Z 004d06ea f Command.obj
 0001:000cf764       ?command_add_attribute@RGE_Command@@QAEXHHM@Z 004d0764 f Command.obj
 0001:000cf7c8       ?command_give_attribute@RGE_Command@@QAEXHHHM@Z 004d07c8 f Command.obj
 0001:000cf835       ?command_formation@RGE_Command@@QAEXPAPAVRGE_Static_Object@@HH@Z 004d0835 f Command.obj
 0001:000cf942       ?command_create_group@RGE_Command@@QAEXHPAPAVRGE_Static_Object@@H@Z 004d0942 f Command.obj
 0001:000cf9d6       ?command_destroy_group@RGE_Command@@QAEXHH@Z 004d09d6 f Command.obj
 0001:000cfa31       ?command_ai_order@RGE_Command@@QAEXHHHHHHMMMEE@Z 004d0a31 f Command.obj
 0001:000cfae0       ??_GRGE_Command@@UAEPAXI@Z 004d0ae0 f Command.obj
 0001:000cfae0       ??_ERGE_Command@@UAEPAXI@Z 004d0ae0 f Command.obj
 0001:000cfb20       ?command_place_object@TRIBE_Main_View@@UAEHJJ@Z 004d0b20 f tvw_main.obj
 0001:000cfc80       ??0TVerticalSliderPanel@@QAE@XZ 004d0c80 f pnl_sld.obj
 0001:000cfd09       ??1TVerticalSliderPanel@@UAE@XZ 004d0d09 f pnl_sld.obj
 0001:000cfd71       ?setup@TVerticalSliderPanel@@QAEJPAVTDrawArea@@PAVTPanel@@JJJJPAD2JJHH@Z 004d0d71 f pnl_sld.obj
 0001:000cfde2       ?draw@TVerticalSliderPanel@@UAEXXZ 004d0de2 f pnl_sld.obj
 0001:000d0066       ??0THorizontalSliderPanel@@QAE@XZ 004d1066 f pnl_sld.obj
 0001:000d00d5       ??1THorizontalSliderPanel@@UAE@XZ 004d10d5 f pnl_sld.obj
 0001:000d013d       ?setup@THorizontalSliderPanel@@QAEJPAVTDrawArea@@PAVTPanel@@JJJJPAD2JJHH@Z 004d113d f pnl_sld.obj
 0001:000d01ae       ?draw@THorizontalSliderPanel@@UAEXXZ 004d11ae f pnl_sld.obj
 0001:000d03e0       ??_ETVerticalSliderPanel@@UAEPAXI@Z 004d13e0 f pnl_sld.obj
 0001:000d03e0       ??_GTVerticalSliderPanel@@UAEPAXI@Z 004d13e0 f pnl_sld.obj
 0001:000d0420       ??_GTHorizontalSliderPanel@@UAEPAXI@Z 004d1420 f pnl_sld.obj
 0001:000d0420       ??_ETHorizontalSliderPanel@@UAEPAXI@Z 004d1420 f pnl_sld.obj
 0001:000d0460       ??0RGE_Timeline@@QAE@HPAVRGE_Game_World@@@Z 004d1460 f Timeline.obj
 0001:000d06c3       ??0RGE_Timeline@@QAE@PAVRGE_Game_World@@@Z 004d16c3 f Timeline.obj
 0001:000d0716       ??1RGE_Timeline@@UAE@XZ    004d1716 f Timeline.obj
 0001:000d0791       ?save@RGE_Timeline@@QAEXH@Z 004d1791 f Timeline.obj
 0001:000d096c       ?update@RGE_Timeline@@QAEXXZ 004d196c f Timeline.obj
 0001:000d0c4d       ?mock_update@RGE_Timeline@@QAEXM@Z 004d1c4d f Timeline.obj
 0001:000d1102       ?find_id@RGE_Timeline@@AAEFPAVRGE_Static_Object@@@Z 004d2102 f Timeline.obj
 0001:000d1170       ?add@RGE_Timeline@@QAEPAURGE_Time_Entry@@M@Z 004d2170 f Timeline.obj
 0001:000d127d       ?add_attack@RGE_Timeline@@QAEPAURGE_Time_Entry@@MPAVRGE_Static_Object@@0@Z 004d227d f Timeline.obj
 0001:000d12ff       ?add_create@RGE_Timeline@@QAEPAURGE_Time_Entry@@MFEMMM@Z 004d22ff f Timeline.obj
 0001:000d13f1       ?add_move@RGE_Timeline@@QAEPAURGE_Time_Entry@@MPAVRGE_Static_Object@@MMM@Z 004d23f1 f Timeline.obj
 0001:000d1472       ?add_delete@RGE_Timeline@@QAEPAURGE_Time_Entry@@MPAVRGE_Static_Object@@@Z 004d2472 f Timeline.obj
 0001:000d1594       ?sub@RGE_Timeline@@QAEXPAURGE_Time_Entry@@@Z 004d2594 f Timeline.obj
 0001:000d16a0       ??_ERGE_Timeline@@UAEPAXI@Z 004d26a0 f Timeline.obj
 0001:000d16a0       ??_GRGE_Timeline@@UAEPAXI@Z 004d26a0 f Timeline.obj
 0001:000d16e0       ??0AIPlayer@@QAE@PAX@Z     004d26e0 f aiplayer.obj
 0001:000d1715       ??1AIPlayer@@UAE@XZ        004d2715 f aiplayer.obj
 0001:000d1734       ?setAIStatusInformation@AIPlayer@@QAAXPADZZ 004d2734 f aiplayer.obj
 0001:000d176b       ?update@AIPlayer@@UAEXXZ   004d276b f aiplayer.obj
 0001:000d1790       ??_EAIPlayer@@UAEPAXI@Z    004d2790 f aiplayer.obj
 0001:000d1790       ??_GAIPlayer@@UAEPAXI@Z    004d2790 f aiplayer.obj
 0001:000d17d0       ??0RGE_Sprite@@QAE@HPAPAVRGE_Sound@@PAPAVRGE_Color_Table@@@Z 004d27d0 f sprite.obj
 0001:000d1b51       ??0RGE_Sprite@@QAE@PAU_iobuf@@FPAPAVRGE_Sound@@@Z 004d2b51 f sprite.obj
 0001:000d1f89       ??1RGE_Sprite@@QAE@XZ      004d2f89 f sprite.obj
 0001:000d204b       ?rehook@RGE_Sprite@@QAEXPAPAV1@@Z 004d304b f sprite.obj
 0001:000d210d       ?save@RGE_Sprite@@QAEXH@Z  004d310d f sprite.obj
 0001:000d2423       ?load_facets@RGE_Sprite@@QAEXPAPAV1@@Z 004d3423 f sprite.obj
 0001:000d244c       ?play_sound@RGE_Sprite@@QAEXFFF@Z 004d344c f sprite.obj
 0001:000d25f8       ?get_facetindex@RGE_Sprite@@QAEEJJAAJ@Z 004d35f8 f sprite.obj
 0001:000d2730       ?do_draw@RGE_Sprite@@QAEXJJJJPAVRGE_Color_Table@@PAVTDrawArea@@@Z 004d3730 f sprite.obj
 0001:000d2a74       ?draw@RGE_Sprite@@QAEEJJJJPAVRGE_Color_Table@@PAVTDrawArea@@@Z 004d3a74 f sprite.obj
 0001:000d2bb9       ?normal_draw@RGE_Sprite@@QAEEJJJJPAVRGE_Color_Table@@PAVTDrawArea@@@Z 004d3bb9 f sprite.obj
 0001:000d2d19       ?shadow_draw@RGE_Sprite@@QAEEJJJJPAVRGE_Color_Table@@PAVTDrawArea@@E@Z 004d3d19 f sprite.obj
 0001:000d2ea3       ?get_size@RGE_Sprite@@QAEHAAJ000J@Z 004d3ea3 f sprite.obj
 0001:000d2fb7       ?get_frame@RGE_Sprite@@QAEHAAF000JJ@Z 004d3fb7 f sprite.obj
 0001:000d327d       ?get_frame_min_max@RGE_Sprite@@QAEHAAF000JJFF@Z 004d427d f sprite.obj
 0001:000d339a       ?get_lowest_draw_level@RGE_Sprite@@QAEEXZ 004d439a f sprite.obj
 0001:000d342c       ?hit_test@RGE_Sprite@@QAEEFFJJ@Z 004d442c f sprite.obj
 0001:000d35bc       ?shape_hit_test@RGE_Sprite@@QAEEFFJJ@Z 004d45bc f sprite.obj
 0001:000d3842       ?make_active_sprite@RGE_Sprite@@QAEPAVRGE_Active_Sprite@@XZ 004d4842 f sprite.obj
 0001:000d3950       ?get_draw_level@RGE_Sprite@@QAEEXZ 004d4950 f sprite.obj
 0001:000d3970       ??0RGE_Scenario_Header@@QAE@PAVRGE_Scenario@@@Z 004d4970 f scenario.obj
 0001:000d3a02       ??0RGE_Scenario_Header@@QAE@H@Z 004d4a02 f scenario.obj
 0001:000d3ac2       ??1RGE_Scenario_Header@@QAE@XZ 004d4ac2 f scenario.obj
 0001:000d3b07       ?get_size@RGE_Scenario_Header@@UAEJXZ 004d4b07 f scenario.obj
 0001:000d3b55       ?save@RGE_Scenario_Header@@UAEXH@Z 004d4b55 f scenario.obj
 0001:000d3bf6       ??0RGE_Scenario@@QAE@PAVRGE_Game_World@@@Z 004d4bf6 f scenario.obj
 0001:000d3cb2       ??1RGE_Scenario@@UAE@XZ    004d4cb2 f scenario.obj
 0001:000d3db0       ?InitializeTextValues@RGE_Scenario@@QAEXXZ 004d4db0 f scenario.obj
 0001:000d3f5e       ?Set_scenario_name@RGE_Scenario@@QAEXPAD@Z 004d4f5e f scenario.obj
 0001:000d3fa7       ?Set_description@RGE_Scenario@@QAEXPAD@Z 004d4fa7 f scenario.obj
 0001:000d3ff0       ?Set_Cine_PreGame@RGE_Scenario@@QAEXPAD@Z 004d4ff0 f scenario.obj
 0001:000d4036       ?Set_Cine_Victory@RGE_Scenario@@QAEXPAD@Z 004d5036 f scenario.obj
 0001:000d407c       ?Set_Cine_Loss@RGE_Scenario@@QAEXPAD@Z 004d507c f scenario.obj
 0001:000d40c2       ?Set_BuildList@RGE_Scenario@@QAEXHPADH@Z 004d50c2 f scenario.obj
 0001:000d4141       ?Set_CityPlan@RGE_Scenario@@QAEXHPADH@Z 004d5141 f scenario.obj
 0001:000d41c0       ?Set_Version@RGE_Scenario@@QAEXM@Z 004d51c0 f scenario.obj
 0001:000d41e4       ?Set_player_AI@RGE_Scenario@@QAEXHH@Z 004d51e4 f scenario.obj
 0001:000d4225       ?Set_player_Type@RGE_Scenario@@QAEXHH@Z 004d5225 f scenario.obj
 0001:000d4266       ?Set_player_Civ@RGE_Scenario@@QAEXHH@Z 004d5266 f scenario.obj
 0001:000d42a7       ?Set_player_Active@RGE_Scenario@@QAEXHH@Z 004d52a7 f scenario.obj
 0001:000d42e8       ?SetPlayerName@RGE_Scenario@@QAEXHPAD@Z 004d52e8 f scenario.obj
 0001:000d4327       ?Get_scenario_name@RGE_Scenario@@QAEPADXZ 004d5327 f scenario.obj
 0001:000d4346       ?Get_description@RGE_Scenario@@QAEPADXZ 004d5346 f scenario.obj
 0001:000d4365       ?Get_Cine_PreGame@RGE_Scenario@@QAEPADXZ 004d5365 f scenario.obj
 0001:000d4383       ?Get_Cine_Victory@RGE_Scenario@@QAEPADXZ 004d5383 f scenario.obj
 0001:000d43a1       ?Get_Cine_Loss@RGE_Scenario@@QAEPADXZ 004d53a1 f scenario.obj
 0001:000d43bf       ?Get_BuildList@RGE_Scenario@@QAEPADHH@Z 004d53bf f scenario.obj
 0001:000d4453       ?Get_CityPlan@RGE_Scenario@@QAEPADHH@Z 004d5453 f scenario.obj
 0001:000d44e7       ?Get_Version@RGE_Scenario@@QAEMXZ 004d54e7 f scenario.obj
 0001:000d4503       ?Get_player_AI@RGE_Scenario@@QAEHH@Z 004d5503 f scenario.obj
 0001:000d4543       ?GetPlayerPosture@RGE_Scenario@@QAEHH@Z 004d5543 f scenario.obj
 0001:000d45f7       ?GetPlayerName@RGE_Scenario@@QAEPADH@Z 004d55f7 f scenario.obj
 0001:000d461c       ?Get_player_Type@RGE_Scenario@@QAEHH@Z 004d561c f scenario.obj
 0001:000d465c       ?Get_player_Civ@RGE_Scenario@@QAEHH@Z 004d565c f scenario.obj
 0001:000d469c       ?Get_player_Active@RGE_Scenario@@QAEHH@Z 004d569c f scenario.obj
 0001:000d46dc       ??0RGE_Scenario@@QAE@HPAVRGE_Game_World@@@Z 004d56dc f scenario.obj
 0001:000d4f3c       ?update@RGE_Scenario@@QAEXXZ 004d5f3c f scenario.obj
 0001:000d4f6a       ?save@RGE_Scenario@@UAEXH@Z 004d5f6a f scenario.obj
 0001:000d52dc       ?active_player_count@RGE_Scenario@@QAEHXZ 004d62dc f scenario.obj
 0001:000d5331       ?any_player_count@RGE_Scenario@@QAEHXZ 004d6331 f scenario.obj
 0001:000d539b       ?computer_player_count@RGE_Scenario@@QAEHXZ 004d639b f scenario.obj
 0001:000d5410       ?get_object_pointer@RGE_Scenario@@MAEPAVRGE_Static_Object@@H@Z 004d6410 f scenario.obj
 0001:000d5430       ?rehook@RGE_Scenario@@UAEXXZ 004d6430 f scenario.obj
 0001:000d5450       ??_GRGE_Scenario@@UAEPAXI@Z 004d6450 f scenario.obj
 0001:000d5450       ??_ERGE_Scenario@@UAEPAXI@Z 004d6450 f scenario.obj
 0001:000d5490       ??0RGE_Map@@QAE@HPAPAVRGE_Sound@@E@Z 004d6490 f map.obj
 0001:000d55d3       ??0RGE_Map@@QAE@PAD000FFFPAPAVRGE_Sound@@@Z 004d65d3 f map.obj
 0001:000d5ca2       ??1RGE_Map@@UAE@XZ         004d6ca2 f map.obj
 0001:000d5f51       ?set_map_visible@RGE_Map@@QAEXE@Z 004d6f51 f map.obj
 0001:000d5f75       ?set_map_fog@RGE_Map@@QAEXE@Z 004d6f75 f map.obj
 0001:000d5f99       ?new_map@RGE_Map@@QAEXJJ@Z 004d6f99 f map.obj
 0001:000d61fe       ?clear_map@RGE_Map@@QAEXEE@Z 004d71fe f map.obj
 0001:000d62c8       ?scenario_save@RGE_Map@@QAEXH@Z 004d72c8 f map.obj
 0001:000d63eb       ?scenario_load@RGE_Map@@QAEXHPAE@Z 004d73eb f map.obj
 0001:000d65df       ?zone_map@RGE_Map@@QAEXPAE@Z 004d75df f map.obj
 0001:000d66f6       ?zone_pop@@YAEPAPAUZone_Queue@@0AAF1@Z 004d76f6 f map.obj
 0001:000d676b       ?zone_push@@YAXPAPAUZone_Queue@@0FF@Z 004d776b f map.obj
 0001:000d67d7       ?do_zone_map@RGE_Map@@QAEXFFEPAEE@Z 004d77d7 f map.obj
 0001:000d6a33       ?postclean_elevation@RGE_Map@@QAEEJJJJ@Z 004d7a33 f map.obj
 0001:000d6d64       ?preclean_elevation@RGE_Map@@QAEXJJJJ@Z 004d7d64 f map.obj
 0001:000d6fbc       ?clean_elevation@RGE_Map@@QAEXJJJJ@Z 004d7fbc f map.obj
 0001:000d764b       ?map_generate@RGE_Map@@UAEXPAVRGE_Player@@PAVRGE_Game_World@@PAURGE_Player_Info@@PAE@Z 004d864b f map.obj
 0001:000d77f1       ?load_map@RGE_Map@@QAEXH@Z 004d87f1 f map.obj
 0001:000d791b       ?save_map@RGE_Map@@QAEXH@Z 004d891b f map.obj
 0001:000d79af       ?save@RGE_Map@@UAEXH@Z     004d89af f map.obj
 0001:000d7c73       ?load_terrain_types@RGE_Map@@QAEXPAPAVRGE_Sound@@@Z 004d8c73 f map.obj
 0001:000d7e6b       ?load_terrain_types@RGE_Map@@QAEXPADPAPAVRGE_Sound@@@Z 004d8e6b f map.obj
 0001:000d820e       ?load_overlay_types@RGE_Map@@QAEXPAPAVRGE_Sound@@@Z 004d920e f map.obj
 0001:000d8429       ?load_overlay_types@RGE_Map@@QAEXPADPAPAVRGE_Sound@@@Z 004d9429 f map.obj
 0001:000d8721       ?load_border_types@RGE_Map@@QAEXPAPAVRGE_Sound@@@Z 004d9721 f map.obj
 0001:000d8924       ?load_border_types@RGE_Map@@QAEXPADPAPAVRGE_Sound@@@Z 004d9924 f map.obj
 0001:000d8c2b       ?load_terrain_obj_types@RGE_Map@@QAEXPAD@Z 004d9c2b f map.obj
 0001:000d8dad       ?delete_objects_on_tile@RGE_Map@@QAEXPAVRGE_Player@@PAVRGE_Game_World@@HH@Z 004d9dad f map.obj
 0001:000d8e90       ?delete_all_objects_on_tile@RGE_Map@@QAEXHH@Z 004d9e90 f map.obj
 0001:000d8f62       ?create_terrain_object@RGE_Map@@QAEXPAVRGE_Player@@PAVRGE_Game_World@@FFFHHH@Z 004d9f62 f map.obj
 0001:000d939b       ?clear_terrain_object@RGE_Map@@QAEHPAVRGE_Game_World@@FFFHHH@Z 004da39b f map.obj
 0001:000d95a2       ?place_terrain_object@RGE_Map@@QAEXPAVRGE_Player@@PAVRGE_Game_World@@FFHH@Z 004da5a2 f map.obj
 0001:000d9929       ?create_terrain_objects@RGE_Map@@QAEXPAVRGE_Player@@PAVRGE_Game_World@@@Z 004da929 f map.obj
 0001:000d99a9       ?set_tile_size@RGE_Map@@QAEXEFF@Z 004da9a9 f map.obj
 0001:000d99e3       ?tile_map_coords@RGE_Map@@QAEXFFPAURGE_Tile@@PAM1@Z 004da9e3 f map.obj
 0001:000d9f2f       ?check_map_coords@RGE_Map@@QAEEFF@Z 004daf2f f map.obj
 0001:000d9f8d       ?get_elev@RGE_Map@@QAEEFF@Z 004daf8d f map.obj
 0001:000d9fdd       ?get_terrain@RGE_Map@@QAEEFF@Z 004dafdd f map.obj
 0001:000da07b       ?get_overlay@RGE_Map@@QAEEFF@Z 004db07b f map.obj
 0001:000da0fa       ?get_border@RGE_Map@@QAEEFF@Z 004db0fa f map.obj
 0001:000da176       ?set_terrain_passablity@RGE_Map@@QAEXFFFFE@Z 004db176 f map.obj
 0001:000da31c       ?set_elev@RGE_Map@@QAEXFFFFEFE@Z 004db31c f map.obj
 0001:000da6ce       ?set_terrain@RGE_Map@@QAEXPAVRGE_Game_World@@FFEHH@Z 004db6ce f map.obj
 0001:000da79d       ?set_terrain_absolute@RGE_Map@@QAEXPAVRGE_Game_World@@FFEHH@Z 004db79d f map.obj
 0001:000da85b       ?set_terrain@RGE_Map@@QAEXPAVRGE_Player@@PAVRGE_Game_World@@FFFFEEH@Z 004db85b f map.obj
 0001:000dab93       ?get_tile_type@RGE_Map@@QAEEFF@Z 004dbb93 f map.obj
 0001:000db086       ?get_border_type@RGE_Map@@QAEXFF@Z 004dc086 f map.obj
 0001:000db63c       ?check_for_border@RGE_Map@@QAEXEAAE@Z 004dc63c f map.obj
 0001:000db6f0       ?set_overlay@RGE_Map@@QAEXFFE@Z 004dc6f0 f map.obj
 0001:000db829       ?set_overlay_shape@RGE_Map@@QAEXFF@Z 004dc829 f map.obj
 0001:000db8cc       ?calc_overlay_shape@RGE_Map@@QAEEEFF@Z 004dc8cc f map.obj
 0001:000dbdba       ?update@RGE_Map@@QAEXK@Z   004dcdba f map.obj
 0001:000dc1f0       ??_GRGE_Map@@UAEPAXI@Z     004dd1f0 f map.obj
 0001:000dc1f0       ??_ERGE_Map@@UAEPAXI@Z     004dd1f0 f map.obj
 0001:000dc230       ??0TRIBE_Screen_Status_Message@@QAE@PAD0@Z 004dd230 f scr_stms.obj
 0001:000dc59f       ??0TRIBE_Screen_Status_Message@@QAE@PADJ@Z 004dd59f f scr_stms.obj
 0001:000dc90e       ??1TRIBE_Screen_Status_Message@@UAE@XZ 004dd90e f scr_stms.obj
 0001:000dc9d0       ?set_text@TRIBE_Screen_Status_Message@@QAEXPAD@Z 004dd9d0 f scr_stms.obj
 0001:000dca10       ??_GTRIBE_Screen_Status_Message@@UAEPAXI@Z 004dda10 f scr_stms.obj
 0001:000dca10       ??_ETRIBE_Screen_Status_Message@@UAEPAXI@Z 004dda10 f scr_stms.obj
 0001:000dca50       ??0RGE_Communications_Queue@@QAE@H@Z 004dda50 f com_q.obj
 0001:000dcb0e       ??1RGE_Communications_Queue@@QAE@XZ 004ddb0e f com_q.obj
 0001:000dcb2c       ?ExpectedNextSequence@RGE_Communications_Queue@@QAEEKI@Z 004ddb2c f com_q.obj
 0001:000dcc06       ?QueuedForTurn@RGE_Communications_Queue@@IAEIK@Z 004ddc06 f com_q.obj
 0001:000dcc6b       ?FlushAll@RGE_Communications_Queue@@QAEXXZ 004ddc6b f com_q.obj
 0001:000dcc89       ?FlushForTurn@RGE_Communications_Queue@@QAEIK@Z 004ddc89 f com_q.obj
 0001:000dcd1f       ?ReplaceItem@RGE_Communications_Queue@@QAEHKPAXKHEH@Z 004ddd1f f com_q.obj
 0001:000dcd8d       ?AddItem@RGE_Communications_Queue@@QAEHKPAXKHEH@Z 004ddd8d f com_q.obj
 0001:000dcf1e       ?GetQueueDepth@RGE_Communications_Queue@@QAEIXZ 004ddf1e f com_q.obj
 0001:000dcf39       ?GetHighQueueDepth@RGE_Communications_Queue@@QAEIXZ 004ddf39 f com_q.obj
 0001:000dcf55       ?GetSpecificItem@RGE_Communications_Queue@@QAEPAXIKEPAI@Z 004ddf55 f com_q.obj
 0001:000dd050       ?GetNextItemSingle@RGE_Communications_Queue@@QAEPAXXZ 004de050 f com_q.obj
 0001:000dd14c       ?GetNextItemOrdered@RGE_Communications_Queue@@QAEPAXK@Z 004de14c f com_q.obj
 0001:000dd37d       ?FreeRingBuffer@RGE_Communications_Queue@@QAEXXZ 004de37d f com_q.obj
 0001:000dd410       ?GetNextSequence@RGE_Communications_Queue@@QAEEK@Z 004de410 f com_q.obj
 0001:000dd4ad       ?TestShowQueue@RGE_Communications_Queue@@QAEXXZ 004de4ad f com_q.obj
 0001:000dd600       ?Clear@RGE_Communications_Queue@@IAEXI@Z 004de600 f com_q.obj
 0001:000dd6b0       ?FreeAndClear@RGE_Communications_Queue@@IAEXI@Z 004de6b0 f com_q.obj
 0001:000dd730       ?CalculateCode@RGE_Communications_Queue@@IAEKHE@Z 004de730 f com_q.obj
 0001:000dd770       ??0RGE_Main_View@@QAE@XZ   004de770 f vw_main.obj
 0001:000dd847       ?handle_idle@RGE_Main_View@@UAEJXZ 004de847 f vw_main.obj
 0001:000dd875       ?do_auto_scroll@RGE_Main_View@@IAEHXZ 004de875 f vw_main.obj
 0001:000ddc7a       ?handle_keys@RGE_Main_View@@IAEHXZ 004dec7a f vw_main.obj
 0001:000de338       ?mouse_left_down_action@RGE_Main_View@@UAEJJJHH@Z 004df338 f vw_main.obj
 0001:000de87d       ?mouse_left_move_action@RGE_Main_View@@UAEJJJHH@Z 004df87d f vw_main.obj
 0001:000de98c       ?mouse_left_up_action@RGE_Main_View@@UAEJJJHH@Z 004df98c f vw_main.obj
 0001:000df1cb       ?mouse_right_down_action@RGE_Main_View@@UAEJJJHH@Z 004e01cb f vw_main.obj
 0001:000df21d       ?mouse_right_move_action@RGE_Main_View@@UAEJJJHH@Z 004e021d f vw_main.obj
 0001:000df337       ?mouse_right_up_action@RGE_Main_View@@UAEJJJHH@Z 004e0337 f vw_main.obj
 0001:000df519       ?start_scroll_view@RGE_Main_View@@UAEHEJJHH@Z 004e0519 f vw_main.obj
 0001:000df58f       ?handle_scroll_view@RGE_Main_View@@UAEHJJ@Z 004e058f f vw_main.obj
 0001:000df5f9       ?draw@RGE_Main_View@@UAEXXZ 004e05f9 f vw_main.obj
 0001:000df69a       ?command_place_object@RGE_Main_View@@UAEHJJ@Z 004e069a f vw_main.obj
 0001:000df8fc       ?command_make_do@RGE_Main_View@@UAEHJJ@Z 004e08fc f vw_main.obj
 0001:000df981       ?command_make_move@RGE_Main_View@@UAEHJJ@Z 004e0981 f vw_main.obj
 0001:000dfa0c       ?command_make_work@RGE_Main_View@@UAEHJJ@Z 004e0a0c f vw_main.obj
 0001:000dfaa0       ??_ERGE_Main_View@@UAEPAXI@Z 004e0aa0 f vw_main.obj
 0001:000dfaa0       ??_GRGE_Main_View@@UAEPAXI@Z 004e0aa0 f vw_main.obj
 0001:000dfae0       ?get_prog_info@RGE_Base_Game@@QAEPAURGE_Prog_Info@@XZ 004e0ae0 f vw_main.obj
 0001:000dfb00       ?get_auto_scroll@RGE_Base_Game@@QAEHXZ 004e0b00 f vw_main.obj
 0001:000dfb30       ?increment_view_update_count@RGE_Base_Game@@QAEXXZ 004e0b30 f vw_main.obj
 0001:000dfb50       ??0RGE_Task@@QAE@F@Z       004e0b50 f task.obj
 0001:000dfc6d       ??1RGE_Task@@QAE@XZ        004e0c6d f task.obj
 0001:000dfc83       ?copy@RGE_Task@@QAEXPAV1@@Z 004e0c83 f task.obj
 0001:000dfdf3       ?load@RGE_Task@@QAEXHPAPAVRGE_Sprite@@PAPAVRGE_Sound@@@Z 004e0df3 f task.obj
 0001:000e014d       ?load@RGE_Task@@QAEXPAU_iobuf@@PAPAVRGE_Sprite@@PAPAVRGE_Sound@@@Z 004e114d f task.obj
 0001:000e0384       ?save@RGE_Task@@QAEXH@Z    004e1384 f task.obj
 0001:000e06d0       ??0CCDAudio@@QAE@XZ        004e16d0 f Cdaudio.obj
 0001:000e06fc       ??1CCDAudio@@QAE@XZ        004e16fc f Cdaudio.obj
 0001:000e0738       ?Open@CCDAudio@@QAEKPAX@Z  004e1738 f Cdaudio.obj
 0001:000e07db       ?Close@CCDAudio@@QAEKXZ    004e17db f Cdaudio.obj
 0001:000e0841       ?Stop@CCDAudio@@QAEKXZ     004e1841 f Cdaudio.obj
 0001:000e087c       ?Play@CCDAudio@@QAEKE@Z    004e187c f Cdaudio.obj
 0001:000e08e4       ?Pause@CCDAudio@@QAEKXZ    004e18e4 f Cdaudio.obj
 0001:000e091f       ?ResumePlay@CCDAudio@@QAEKXZ 004e191f f Cdaudio.obj
 0001:000e095f       ?Eject@CCDAudio@@QAEKXZ    004e195f f Cdaudio.obj
 0001:000e099d       ?GetNumberOfTracks@CCDAudio@@QAEKAAE@Z 004e199d f Cdaudio.obj
 0001:000e09ee       ?IsMediaPresent@CCDAudio@@QAEKAAH@Z 004e19ee f Cdaudio.obj
 0001:000e0a58       ?IsPlaying@CCDAudio@@QAEKAAH@Z 004e1a58 f Cdaudio.obj
 0001:000e0afe       ?GetLength@CCDAudio@@QAEKAAE0@Z 004e1afe f Cdaudio.obj
 0001:000e0b57       ?GetTrackLength@CCDAudio@@QAEKEAAE0@Z 004e1b57 f Cdaudio.obj
 0001:000e0bb8       ?GetPosition@CCDAudio@@QAEKAAE00@Z 004e1bb8 f Cdaudio.obj
 0001:000e0c1c       ?DisplayErrorMsg@CCDAudio@@AAEKK@Z 004e1c1c f Cdaudio.obj
 0001:000e0c80       ??0TRIBE_Action_Explore@@QAE@HPAVRGE_Action_Object@@@Z 004e1c80 f tact_exp.obj
 0001:000e0d04       ??0TRIBE_Action_Explore@@QAE@PAVRGE_Action_Object@@PAVRGE_Task@@PAVRGE_Static_Object@@@Z 004e1d04 f tact_exp.obj
 0001:000e0d99       ??0TRIBE_Action_Explore@@QAE@PAVRGE_Action_Object@@PAVRGE_Task@@MMM@Z 004e1d99 f tact_exp.obj
 0001:000e0e3d       ?first_in_stack@TRIBE_Action_Explore@@UAEXE@Z 004e1e3d f tact_exp.obj
 0001:000e0ee0       ?set_state@TRIBE_Action_Explore@@MAEXE@Z 004e1ee0 f tact_exp.obj
 0001:000e10ce       ?update@TRIBE_Action_Explore@@UAEEXZ 004e20ce f tact_exp.obj
 0001:000e12b3       ?search_for_explore@TRIBE_Action_Explore@@IAEPAURGE_Tile@@AAM0@Z 004e22b3 f tact_exp.obj
 0001:000e1500       ??_ETRIBE_Action_Explore@@UAEPAXI@Z 004e2500 f tact_exp.obj
 0001:000e1500       ??_GTRIBE_Action_Explore@@UAEPAXI@Z 004e2500 f tact_exp.obj
 0001:000e1540       ??1TRIBE_Action_Explore@@UAE@XZ 004e2540 f tact_exp.obj
 0001:000e15a0       ??0RGE_Master_Action_Object@@QAE@PAV0@H@Z 004e25a0 f m_ac_obj.obj
 0001:000e162d       ??0RGE_Master_Action_Object@@QAE@HPAPAVRGE_Sprite@@PAPAVRGE_Sound@@H@Z 004e262d f m_ac_obj.obj
 0001:000e16ca       ??0RGE_Master_Action_Object@@QAE@PAU_iobuf@@PAPAVRGE_Sprite@@PAPAVRGE_Sound@@FH@Z 004e26ca f m_ac_obj.obj
 0001:000e176f       ?setup@RGE_Master_Action_Object@@IAEHPAV1@@Z 004e276f f m_ac_obj.obj
 0001:000e1861       ?setup@RGE_Master_Action_Object@@IAEHHPAPAVRGE_Sprite@@PAPAVRGE_Sound@@@Z 004e2861 f m_ac_obj.obj
 0001:000e19ab       ?setup@RGE_Master_Action_Object@@IAEHPAU_iobuf@@PAPAVRGE_Sprite@@PAPAVRGE_Sound@@F@Z 004e29ab f m_ac_obj.obj
 0001:000e1b2d       ??1RGE_Master_Action_Object@@UAE@XZ 004e2b2d f m_ac_obj.obj
 0001:000e1bdd       ?create_task_list@RGE_Master_Action_Object@@UAEPAVRGE_Task_List@@XZ 004e2bdd f m_ac_obj.obj
 0001:000e1c6e       ?make_new_obj@RGE_Master_Action_Object@@UAEPAVRGE_Static_Object@@PAVRGE_Player@@MMM@Z 004e2c6e f m_ac_obj.obj
 0001:000e1d1a       ?make_new_master@RGE_Master_Action_Object@@UAEPAVRGE_Master_Static_Object@@XZ 004e2d1a f m_ac_obj.obj
 0001:000e1db4       ?get_task@RGE_Master_Action_Object@@QAEPAVRGE_Task@@F@Z 004e2db4 f m_ac_obj.obj
 0001:000e1e11       ?getTaskByTaskID@RGE_Master_Action_Object@@QBEPAVRGE_Task@@H@Z 004e2e11 f m_ac_obj.obj
 0001:000e1ea1       ?copy_obj@RGE_Master_Action_Object@@UAEXPAVRGE_Master_Static_Object@@@Z 004e2ea1 f m_ac_obj.obj
 0001:000e1f67       ?modify@RGE_Master_Action_Object@@UAEXME@Z 004e2f67 f m_ac_obj.obj
 0001:000e1fc1       ?modify_delta@RGE_Master_Action_Object@@UAEXME@Z 004e2fc1 f m_ac_obj.obj
 0001:000e2024       ?modify_percent@RGE_Master_Action_Object@@UAEXME@Z 004e3024 f m_ac_obj.obj
 0001:000e2087       ?save@RGE_Master_Action_Object@@UAEXH@Z 004e3087 f m_ac_obj.obj
 0001:000e21a0       ??_ERGE_Master_Action_Object@@UAEPAXI@Z 004e31a0 f m_ac_obj.obj
 0001:000e21a0       ??_GRGE_Master_Action_Object@@UAEPAXI@Z 004e31a0 f m_ac_obj.obj
 0001:000e21e0       ??_GRGE_Task_List@@QAEPAXI@Z 004e31e0 f m_ac_obj.obj
 0001:000e2220       ??0TRIBE_Action_Repair@@QAE@HPAVRGE_Action_Object@@@Z 004e3220 f tact_rep.obj
 0001:000e22a4       ??0TRIBE_Action_Repair@@QAE@PAVRGE_Action_Object@@PAVRGE_Task@@PAVRGE_Static_Object@@@Z 004e32a4 f tact_rep.obj
 0001:000e2367       ??0TRIBE_Action_Repair@@QAE@PAVRGE_Action_Object@@PAVRGE_Task@@MMM@Z 004e3367 f tact_rep.obj
 0001:000e240b       ?first_in_stack@TRIBE_Action_Repair@@UAEXE@Z 004e340b f tact_rep.obj
 0001:000e245c       ?set_state@TRIBE_Action_Repair@@MAEXE@Z 004e345c f tact_rep.obj
 0001:000e277b       ?update@TRIBE_Action_Repair@@UAEEXZ 004e377b f tact_rep.obj
 0001:000e2ad7       ?stop@TRIBE_Action_Repair@@UAEHXZ 004e3ad7 f tact_rep.obj
 0001:000e2aff       ?move_to@TRIBE_Action_Repair@@UAEHPAVRGE_Static_Object@@MMM@Z 004e3aff f tact_rep.obj
 0001:000e2b51       ?work@TRIBE_Action_Repair@@UAEHPAVRGE_Static_Object@@MMM@Z 004e3b51 f tact_rep.obj
 0001:000e2c30       ??_ETRIBE_Action_Repair@@UAEPAXI@Z 004e3c30 f tact_rep.obj
 0001:000e2c30       ??_GTRIBE_Action_Repair@@UAEPAXI@Z 004e3c30 f tact_rep.obj
 0001:000e2c70       ??1TRIBE_Action_Repair@@UAE@XZ 004e3c70 f tact_rep.obj
 0001:000e2cd0       ??0TRIBE_Master_Player@@QAE@PAU_iobuf@@@Z 004e3cd0 f tmplayer.obj
 0001:000e2d4c       ??0TRIBE_Master_Player@@QAE@H@Z 004e3d4c f tmplayer.obj
 0001:000e2dc8       ??1TRIBE_Master_Player@@UAE@XZ 004e3dc8 f tmplayer.obj
 0001:000e2e30       ?load_master_object@TRIBE_Master_Player@@UAEXHEPAPAVRGE_Sprite@@PAPAVRGE_Sound@@F@Z 004e3e30 f tmplayer.obj
 0001:000e3013       ?load_object@TRIBE_Master_Player@@UAEXPAU_iobuf@@EPAPAVRGE_Sprite@@PAPAVRGE_Sound@@F@Z 004e4013 f tmplayer.obj
 0001:000e3210       ??_GTRIBE_Master_Player@@UAEPAXI@Z 004e4210 f tmplayer.obj
 0001:000e3210       ??_ETRIBE_Master_Player@@UAEPAXI@Z 004e4210 f tmplayer.obj
 0001:000e3250       ??0AIModuleID@@QAE@PADH@Z  004e4250 f aimodule.obj
 0001:000e32b5       ??1AIModuleID@@UAE@XZ      004e42b5 f aimodule.obj
 0001:000e32d4       ?setID@AIModuleID@@QAEXHPAD@Z 004e42d4 f aimodule.obj
 0001:000e332d       ??0AIModuleMessage@@QAE@XZ 004e432d f aimodule.obj
 0001:000e345d       ??0AIModuleMessage@@QAE@HHHHJJJPAV0@H@Z 004e445d f aimodule.obj
 0001:000e3572       ??0AIModuleMessage@@QAE@PAV0@@Z 004e4572 f aimodule.obj
 0001:000e36d7       ??1AIModuleMessage@@UAE@XZ 004e46d7 f aimodule.obj
 0001:000e379e       ?setText@AIModuleMessage@@QAEXPAD@Z 004e479e f aimodule.obj
 0001:000e37ee       ?setSender@AIModuleMessage@@QAEXHPAD@Z 004e47ee f aimodule.obj
 0001:000e381c       ?setRecipient@AIModuleMessage@@QAEXHPAD@Z 004e481c f aimodule.obj
 0001:000e384a       ??0AIModule@@QAE@XZ        004e484a f aimodule.obj
 0001:000e394c       ??0AIModule@@QAE@PADHHPAX@Z 004e494c f aimodule.obj
 0001:000e3a50       ??1AIModule@@UAE@XZ        004e4a50 f aimodule.obj
 0001:000e3af0       ?id@AIModule@@QBE?AVAIModuleID@@XZ 004e4af0 f aimodule.obj
 0001:000e3b61       ?idNumber@AIModule@@QBEHXZ 004e4b61 f aimodule.obj
 0001:000e3b7d       ?playerNumber@AIModule@@QBEHXZ 004e4b7d f aimodule.obj
 0001:000e3b99       ?playerName@AIModule@@QBEPADXZ 004e4b99 f aimodule.obj
 0001:000e3bb5       ?setPlayer@AIModule@@QAEXHPAD@Z 004e4bb5 f aimodule.obj
 0001:000e3c0e       ?start@AIModule@@QAEXXZ    004e4c0e f aimodule.obj
 0001:000e3c31       ?stop@AIModule@@QAEXXZ     004e4c31 f aimodule.obj
 0001:000e3c54       ?toggleRun@AIModule@@QAEXXZ 004e4c54 f aimodule.obj
 0001:000e3c99       ?togglePause@AIModule@@QAEXXZ 004e4c99 f aimodule.obj
 0001:000e3cde       ?step@AIModule@@QAEXXZ     004e4cde f aimodule.obj
 0001:000e3cf4       ?running@AIModule@@QBEHXZ  004e4cf4 f aimodule.obj
 0001:000e3d13       ?paused@AIModule@@QBEHXZ   004e4d13 f aimodule.obj
 0001:000e3d32       ?loggingHistory@AIModule@@UBEHXZ 004e4d32 f aimodule.obj
 0001:000e3d51       ?setLogHistory@AIModule@@UAEXH@Z 004e4d51 f aimodule.obj
 0001:000e3d69       ?toggleLogHistory@AIModule@@UAEXXZ 004e4d69 f aimodule.obj
 0001:000e3d7f       ?loggingCommonHistory@AIModule@@UBEHXZ 004e4d7f f aimodule.obj
 0001:000e3d9e       ?setLogCommonHistory@AIModule@@UAEXH@Z 004e4d9e f aimodule.obj
 0001:000e3e7a       ?toggleLogCommonHistory@AIModule@@UAEXXZ 004e4e7a f aimodule.obj
 0001:000e3e90       ?setHistoryFilename@AIModule@@UAEXPAD@Z 004e4e90 f aimodule.obj
 0001:000e3ea8       ?intelligenceLevel@AIModule@@QBEHXZ 004e4ea8 f aimodule.obj
 0001:000e3ec7       ?setIntelligenceLevel@AIModule@@QAEHH@Z 004e4ec7 f aimodule.obj
 0001:000e3f38       ?priority@AIModule@@QBEHXZ 004e4f38 f aimodule.obj
 0001:000e3f57       ?setPriority@AIModule@@QAEHH@Z 004e4f57 f aimodule.obj
 0001:000e3fc8       ?incrementPriority@AIModule@@QAEHH@Z 004e4fc8 f aimodule.obj
 0001:000e3ff5       ?decrementPriority@AIModule@@QAEHH@Z 004e4ff5 f aimodule.obj
 0001:000e4022       ?sendMessage@AIModule@@QAEHPAVAIModuleMessage@@H@Z 004e5022 f aimodule.obj
 0001:000e403c       ?receiveMessage@AIModule@@QAEXPAVAIModuleMessage@@@Z 004e503c f aimodule.obj
 0001:000e4054       ?processMessage@AIModule@@UAEHPAVAIModuleMessage@@@Z 004e5054 f aimodule.obj
 0001:000e406e       ?update@AIModule@@UAEHH@Z  004e506e f aimodule.obj
 0001:000e4088       ?setCallbackMessage@AIModule@@UAEXPAVAIModuleMessage@@@Z 004e5088 f aimodule.obj
 0001:000e40a0       ?messageLimit@AIModule@@QAEHXZ 004e50a0 f aimodule.obj
 0001:000e40b8       ?setMessageLimit@AIModule@@QAEXH@Z 004e50b8 f aimodule.obj
 0001:000e40d0       ?callbackLimit@AIModule@@QAEHXZ 004e50d0 f aimodule.obj
 0001:000e40e8       ?setCallbackLimit@AIModule@@QAEXH@Z 004e50e8 f aimodule.obj
 0001:000e4100       ?messageTimeout@AIModule@@QAEHXZ 004e5100 f aimodule.obj
 0001:000e4118       ?setMessageTimeout@AIModule@@QAEXH@Z 004e5118 f aimodule.obj
 0001:000e4130       ?purgeMessages@AIModule@@QAEHVAIModuleID@@@Z 004e5130 f aimodule.obj
 0001:000e419d       ?purgeMessagesWithID@AIModule@@QAEHVAIModuleID@@H@Z 004e519d f aimodule.obj
 0001:000e420a       ?purgeMessagesWithPriorityBelow@AIModule@@QAEHVAIModuleID@@H@Z 004e520a f aimodule.obj
 0001:000e4277       ?purgeMessagesWithData@AIModule@@QAEHVAIModuleID@@HHJ@Z 004e5277 f aimodule.obj
 0001:000e42e4       ?purgeCallbacks@AIModule@@QAEHVAIModuleID@@@Z 004e52e4 f aimodule.obj
 0001:000e4351       ?purgeCallbacksWithID@AIModule@@QAEHVAIModuleID@@H@Z 004e5351 f aimodule.obj
 0001:000e43be       ?purgeCallbacksWithPriorityBelow@AIModule@@QAEHVAIModuleID@@H@Z 004e53be f aimodule.obj
 0001:000e442b       ?purgeCallbacksWithData@AIModule@@QAEHVAIModuleID@@HHJ@Z 004e542b f aimodule.obj
 0001:000e4498       ?checkMessageLimit@AIModule@@IAEXXZ 004e5498 f aimodule.obj
 0001:000e44ae       ?checkCallbackLimit@AIModule@@IAEXXZ 004e54ae f aimodule.obj
 0001:000e44c4       ?filterOutMessage@AIModule@@MAEHPAVAIModuleMessage@@@Z 004e54c4 f aimodule.obj
 0001:000e44de       ?logHistory@AIModule@@QAAXPADZZ 004e54de f aimodule.obj
 0001:000e44ee       ?logCommonHistory@AIModule@@QAAXPADZZ 004e54ee f aimodule.obj
 0001:000e459c       ?logDebug@AIModule@@QAAXPADZZ 004e559c f aimodule.obj
 0001:000e45ac       ?processFrame@AIModule@@IAEHXZ 004e55ac f aimodule.obj
 0001:000e45cb       ?incrementProcessFrame@AIModule@@IAEXXZ 004e55cb f aimodule.obj
 0001:000e460a       ?timeDifference@AIModule@@IAEHPAVAIModuleMessage@@@Z 004e560a f aimodule.obj
 0001:000e4630       ??_GAIModuleID@@UAEPAXI@Z  004e5630 f aimodule.obj
 0001:000e4630       ??_EAIModuleID@@UAEPAXI@Z  004e5630 f aimodule.obj
 0001:000e4670       ??_GAIModuleMessage@@UAEPAXI@Z 004e5670 f aimodule.obj
 0001:000e4670       ??_EAIModuleMessage@@UAEPAXI@Z 004e5670 f aimodule.obj
 0001:000e46b0       ??_EAIModule@@UAEPAXI@Z    004e56b0 f aimodule.obj
 0001:000e46b0       ??_GAIModule@@UAEPAXI@Z    004e56b0 f aimodule.obj
 0001:000e46f0       ??0AIModuleID@@QAE@ABV0@@Z 004e56f0 f aimodule.obj
 0001:000e4740       ??0TRIBE_Action_Trade@@QAE@HPAVRGE_Action_Object@@@Z 004e5740 f tact_trd.obj
 0001:000e47c4       ??0TRIBE_Action_Trade@@QAE@PAVRGE_Action_Object@@PAVRGE_Task@@PAVRGE_Static_Object@@@Z 004e57c4 f tact_trd.obj
 0001:000e487d       ??0TRIBE_Action_Trade@@QAE@PAVRGE_Action_Object@@PAVRGE_Task@@MMM@Z 004e587d f tact_trd.obj
 0001:000e4921       ?first_in_stack@TRIBE_Action_Trade@@UAEXE@Z 004e5921 f tact_trd.obj
 0001:000e49be       ?set_state@TRIBE_Action_Trade@@MAEXE@Z 004e59be f tact_trd.obj
 0001:000e4f3d       ?update@TRIBE_Action_Trade@@UAEEXZ 004e5f3d f tact_trd.obj
 0001:000e5588       ?get_move_sprite@TRIBE_Action_Trade@@IAEPAVRGE_Sprite@@XZ 004e6588 f tact_trd.obj
 0001:000e5611       ?get_wait_sprite@TRIBE_Action_Trade@@IAEPAVRGE_Sprite@@XZ 004e6611 f tact_trd.obj
 0001:000e569b       ?stop@TRIBE_Action_Trade@@UAEHXZ 004e669b f tact_trd.obj
 0001:000e56c3       ?move_to@TRIBE_Action_Trade@@UAEHPAVRGE_Static_Object@@MMM@Z 004e66c3 f tact_trd.obj
 0001:000e57bb       ?work@TRIBE_Action_Trade@@UAEHPAVRGE_Static_Object@@MMM@Z 004e67bb f tact_trd.obj
 0001:000e58d0       ??_ETRIBE_Action_Trade@@UAEPAXI@Z 004e68d0 f tact_trd.obj
 0001:000e58d0       ??_GTRIBE_Action_Trade@@UAEPAXI@Z 004e68d0 f tact_trd.obj
 0001:000e5910       ??1TRIBE_Action_Trade@@UAE@XZ 004e6910 f tact_trd.obj
 0001:000e5970       ??0RGE_Victory_Conditions@@QAE@PAVRGE_Player@@HPAJ@Z 004e6970 f victory.obj
 0001:000e5cb3       ??0RGE_Victory_Conditions@@QAE@PAVRGE_Player@@@Z 004e6cb3 f victory.obj
 0001:000e5cfb       ??1RGE_Victory_Conditions@@QAE@XZ 004e6cfb f victory.obj
 0001:000e5d56       ?save@RGE_Victory_Conditions@@UAEXH@Z 004e6d56 f victory.obj
 0001:000e5f48       ?check_for_victory@RGE_Victory_Conditions@@IAEXXZ 004e6f48 f victory.obj
 0001:000e6101       ?update@RGE_Victory_Conditions@@QAEEXZ 004e7101 f victory.obj
 0001:000e617b       ?handle_condition@RGE_Victory_Conditions@@MAEXPAURGE_Victory_Entry@@@Z 004e717b f victory.obj
 0001:000e62c3       ?handle_capture@RGE_Victory_Conditions@@IAEXPAURGE_Victory_Entry@@@Z 004e72c3 f victory.obj
 0001:000e6432       ?handle_create@RGE_Victory_Conditions@@IAEXPAURGE_Victory_Entry@@@Z 004e7432 f victory.obj
 0001:000e65eb       ?handle_create_in_area@RGE_Victory_Conditions@@IAEXPAURGE_Victory_Entry@@@Z 004e75eb f victory.obj
 0001:000e6866       ?handle_destroy@RGE_Victory_Conditions@@IAEXPAURGE_Victory_Entry@@@Z 004e7866 f victory.obj
 0001:000e68a6       ?handle_destroy_multiple@RGE_Victory_Conditions@@IAEXPAURGE_Victory_Entry@@@Z 004e78a6 f victory.obj
 0001:000e6a08       ?handle_destroy_all@RGE_Victory_Conditions@@IAEXPAURGE_Victory_Entry@@@Z 004e7a08 f victory.obj
 0001:000e6b2e       ?handle_destroy_player@RGE_Victory_Conditions@@IAEXPAURGE_Victory_Entry@@@Z 004e7b2e f victory.obj
 0001:000e6b7a       ?handle_bring_area@RGE_Victory_Conditions@@IAEXPAURGE_Victory_Entry@@@Z 004e7b7a f victory.obj
 0001:000e6c5d       ?handle_bring_object@RGE_Victory_Conditions@@IAEXPAURGE_Victory_Entry@@@Z 004e7c5d f victory.obj
 0001:000e6da4       ?handle_attribute@RGE_Victory_Conditions@@IAEXPAURGE_Victory_Entry@@@Z 004e7da4 f victory.obj
 0001:000e6ee5       ?handle_explore@RGE_Victory_Conditions@@IAEXPAURGE_Victory_Entry@@@Z 004e7ee5 f victory.obj
 0001:000e704e       ?add@RGE_Victory_Conditions@@IAEPAURGE_Victory_Entry@@EE@Z 004e804e f victory.obj
 0001:000e70c0       ?add_capture@RGE_Victory_Conditions@@QAEEEPAVRGE_Static_Object@@E@Z 004e80c0 f victory.obj
 0001:000e7119       ?add_create@RGE_Victory_Conditions@@QAEEEJJE@Z 004e8119 f victory.obj
 0001:000e716f       ?add_create@RGE_Victory_Conditions@@QAEEEJJMMMME@Z 004e816f f victory.obj
 0001:000e71e9       ?add_destroy@RGE_Victory_Conditions@@QAEEEPAVRGE_Static_Object@@@Z 004e81e9 f victory.obj
 0001:000e7240       ?add_destroy@RGE_Victory_Conditions@@QAEEEJJPAVRGE_Player@@@Z 004e8240 f victory.obj
 0001:000e729d       ?add_destroy@RGE_Victory_Conditions@@QAEEEJPAVRGE_Player@@@Z 004e829d f victory.obj
 0001:000e72f1       ?add_destroy@RGE_Victory_Conditions@@QAEEEPAVRGE_Player@@@Z 004e82f1 f victory.obj
 0001:000e733c       ?add_bring@RGE_Victory_Conditions@@QAEEEPAVRGE_Static_Object@@0@Z 004e833c f victory.obj
 0001:000e739c       ?add_bring@RGE_Victory_Conditions@@QAEEEPAVRGE_Static_Object@@MMMM@Z 004e839c f victory.obj
 0001:000e740b       ?add_attributes@RGE_Victory_Conditions@@QAEEEJJE@Z 004e840b f victory.obj
 0001:000e7461       ?add_explore@RGE_Victory_Conditions@@QAEEEJE@Z 004e8461 f victory.obj
 0001:000e74ae       ?sub@RGE_Victory_Conditions@@IAEXPAURGE_Victory_Entry@@@Z 004e84ae f victory.obj
 0001:000e7531       ?destroy_all@RGE_Victory_Conditions@@QAEXXZ 004e8531 f victory.obj
 0001:000e7568       ?condition_info@RGE_Victory_Conditions@@QAEEJPAPADAAE@Z 004e8568 f victory.obj
 0001:000e75ec       ?condition_description@RGE_Victory_Conditions@@MAEPADPAURGE_Victory_Entry@@@Z 004e85ec f victory.obj
 0001:000e78d4       ?condition_raw_info@RGE_Victory_Conditions@@QAEPAURGE_Victory_Entry@@J@Z 004e88d4 f victory.obj
 0001:000e7932       ?condition_number@RGE_Victory_Conditions@@QAEJJ@Z 004e8932 f victory.obj
 0001:000e7950       ?victory_achieved@RGE_Victory_Conditions@@QAEEXZ 004e8950 f victory.obj
 0001:000e7985       ?remove_condition@RGE_Victory_Conditions@@QAEEJ@Z 004e8985 f victory.obj
 0001:000e79f0       ??0TribeMPStartupScreen@@QAE@XZ 004e89f0 f scr_mp.obj
 0001:000e88d0       ??1TribeMPStartupScreen@@UAE@XZ 004e98d0 f scr_mp.obj
 0001:000e8afa       ?action@TribeMPStartupScreen@@MAEJPAVTPanel@@JKK@Z 004e9afa f scr_mp.obj
 0001:000e8f28       ?fillList@TribeMPStartupScreen@@IAEXXZ 004e9f28 f scr_mp.obj
 0001:000e921c       ?handle_user_command@TribeMPStartupScreen@@MAEJIJ@Z 004ea21c f scr_mp.obj
 0001:000e9270       ??_GTribeMPStartupScreen@@UAEPAXI@Z 004ea270 f scr_mp.obj
 0001:000e9270       ??_ETribeMPStartupScreen@@UAEPAXI@Z 004ea270 f scr_mp.obj
 0001:000e92b0       ??0TTaunt@@QAE@PAVTSound_Driver@@@Z 004ea2b0 f taunt.obj
 0001:000e9355       ??1TTaunt@@QAE@XZ          004ea355 f taunt.obj
 0001:000e93a7       ?PlayTauntStr@TTaunt@@QAEHPAD@Z 004ea3a7 f taunt.obj
 0001:000e93ee       ?PlayTauntNo@TTaunt@@QAEHH@Z 004ea3ee f taunt.obj
 0001:000e944e       ?GetTauntNo@TTaunt@@QAEHPAD@Z 004ea44e f taunt.obj
 0001:000e9525       ?GetTauntText@TTaunt@@QAEPADH@Z 004ea525 f taunt.obj
 0001:000e9557       ?Test@TTaunt@@QAEXXZ       004ea557 f taunt.obj
 0001:000e9580       ??0TRIBE_Action_Convert@@QAE@HPAVRGE_Action_Object@@@Z 004ea580 f tact_cnv.obj
 0001:000e9638       ??0TRIBE_Action_Convert@@QAE@PAVRGE_Action_Object@@PAVRGE_Task@@PAVRGE_Static_Object@@@Z 004ea638 f tact_cnv.obj
 0001:000e970c       ??0TRIBE_Action_Convert@@QAE@PAVRGE_Action_Object@@PAVRGE_Task@@MMM@Z 004ea70c f tact_cnv.obj
 0001:000e97c1       ?save@TRIBE_Action_Convert@@UAEXH@Z 004ea7c1 f tact_cnv.obj
 0001:000e980f       ?first_in_stack@TRIBE_Action_Convert@@UAEXE@Z 004ea80f f tact_cnv.obj
 0001:000e9986       ?set_state@TRIBE_Action_Convert@@MAEXE@Z 004ea986 f tact_cnv.obj
 0001:000e9cd7       ?update@TRIBE_Action_Convert@@UAEEXZ 004eacd7 f tact_cnv.obj
 0001:000ea0c3       ?work@TRIBE_Action_Convert@@UAEHPAVRGE_Static_Object@@MMM@Z 004eb0c3 f tact_cnv.obj
 0001:000ea190       ??_GTRIBE_Action_Convert@@UAEPAXI@Z 004eb190 f tact_cnv.obj
 0001:000ea190       ??_ETRIBE_Action_Convert@@UAEPAXI@Z 004eb190 f tact_cnv.obj
 0001:000ea1d0       ??1TRIBE_Action_Convert@@UAE@XZ 004eb1d0 f tact_cnv.obj
 0001:000ea230       ?SetDefaultValues@PointMaker@@QAEXXZ 004eb230 f fractal.obj
 0001:000ea353       ??0PointMaker@@QAE@XZ      004eb353 f fractal.obj
 0001:000ea39e       ??1PointMaker@@QAE@XZ      004eb39e f fractal.obj
 0001:000ea3e6       ?CreateMasks@PointMaker@@IAEXXZ 004eb3e6 f fractal.obj
 0001:000ea6cd       ?DeleteMasks@PointMaker@@IAEXXZ 004eb6cd f fractal.obj
 0001:000ea71f       ?DrawMask@PointMaker@@IAEXHHH@Z 004eb71f f fractal.obj
 0001:000eab5b       ?ClearArrays@PointMaker@@QAEXXZ 004ebb5b f fractal.obj
 0001:000eabdd       ?DeleteArrays@PointMaker@@QAEXXZ 004ebbdd f fractal.obj
 0001:000eac69       ?MakeArrays@PointMaker@@QAEXXZ 004ebc69 f fractal.obj
 0001:000ead2f       ?CreateShape@PointMaker@@QAEHXZ 004ebd2f f fractal.obj
 0001:000eaeee       ?CreateShape@PointMaker@@QAEHHH@Z 004ebeee f fractal.obj
 0001:000eb03b       ?Branch@PointMaker@@IAEXH@Z 004ec03b f fractal.obj
 0001:000eb155       ?MakeFirstLink@PointMaker@@IAEHXZ 004ec155 f fractal.obj
 0001:000eb36d       ?MakeNewLink@PointMaker@@IAEHXZ 004ec36d f fractal.obj
 0001:000eb613       ?MakeSatelliteLink@PointMaker@@IAEHXZ 004ec613 f fractal.obj
 0001:000eb803       ?DrawPrimaryIntoProbabilityArray@PointMaker@@IAEXXZ 004ec803 f fractal.obj
 0001:000eb939       ?DrawCurrentBranchIntoProbArray@PointMaker@@IAEXH@Z 004ec939 f fractal.obj
 0001:000ebb2a       ?DrawCurrentSatelliteIntoProbArray@PointMaker@@IAEXH@Z 004ecb2a f fractal.obj
 0001:000ebbce       ?AddingRect@PointMaker@@IAEXHHHH@Z 004ecbce f fractal.obj
 0001:000ebd04       ?AddingCircle@PointMaker@@IAEXHHH@Z 004ecd04 f fractal.obj
 0001:000ebed0       ?CreateMapBasedOnProbabilityArray@PointMaker@@IAEXXZ 004eced0 f fractal.obj
 0001:000ebf8b       ?SetPoint@PointMaker@@QAEXHH@Z 004ecf8b f fractal.obj
 0001:000ebfbb       ?SetMaxNumberOfBranches@PointMaker@@QAEXH@Z 004ecfbb f fractal.obj
 0001:000ebfdf       ?SetChanceOfNextNode@PointMaker@@QAEXH@Z 004ecfdf f fractal.obj
 0001:000ec003       ?SetNumberOfSatellites@PointMaker@@QAEXH@Z 004ed003 f fractal.obj
 0001:000ec027       ?SetSplitsPerBranch@PointMaker@@QAEXH@Z 004ed027 f fractal.obj
 0001:000ec04b       ?SetWidthAndHeight@PointMaker@@QAEXHH@Z 004ed04b f fractal.obj
 0001:000ec07b       ?SetStartPositionRadius@PointMaker@@QAEXH@Z 004ed07b f fractal.obj
 0001:000ec09f       ?SetBranchsRadius@PointMaker@@QAEXH@Z 004ed09f f fractal.obj
 0001:000ec0c3       ?SetSatelliteRadius@PointMaker@@QAEXH@Z 004ed0c3 f fractal.obj
 0001:000ec0e7       ?SetMaxNumberOfBranchLevels@PointMaker@@QAEXH@Z 004ed0e7 f fractal.obj
 0001:000ec118       ?SetSatelliteDistance@PointMaker@@QAEXH@Z 004ed118 f fractal.obj
 0001:000ec13c       ?SetBranchDistance@PointMaker@@QAEXH@Z 004ed13c f fractal.obj
 0001:000ec160       ?SetMinimumNumberOfTiles@PointMaker@@QAEXH@Z 004ed160 f fractal.obj
 0001:000ec184       ?SetDrawToOneArray@PointMaker@@QAEXXZ 004ed184 f fractal.obj
 0001:000ec1a7       ?SetBorderDepthPercentage@PointMaker@@QAEXH@Z 004ed1a7 f fractal.obj
 0001:000ec20d       ?RetrieveMap@PointMaker@@QAEPADXZ 004ed20d f fractal.obj
 0001:000ec22c       ?RetrieveProbMap@PointMaker@@QAEPADXZ 004ed22c f fractal.obj
 0001:000ec24b       ?ErrorCheckingAndCorrection@PointMaker@@IAEXXZ 004ed24b f fractal.obj
 0001:000ec44a       ?PrepareLimits@PointMaker@@IAEXXZ 004ed44a f fractal.obj
 0001:000ec4de       ?MapCleanUpEliminatingSinglesOnly@PointMaker@@IAEXXZ 004ed4de f fractal.obj
 0001:000ec5f0       ?EstablishDirection@PointMaker@@IAEXHH@Z 004ed5f0 f fractal.obj
 0001:000ec620       ?AddToBlock@PointMaker@@IAEXHH@Z 004ed620 f fractal.obj
 0001:000ec6f0       ??0TacticalAIGroup@@QAE@XZ 004ed6f0 f taitacmd.obj
 0001:000ec7db       ??1TacticalAIGroup@@UAE@XZ 004ed7db f taitacmd.obj
 0001:000ec846       ?inUse@TacticalAIGroup@@QBEHXZ 004ed846 f taitacmd.obj
 0001:000ec862       ?setInUse@TacticalAIGroup@@QAEXH@Z 004ed862 f taitacmd.obj
 0001:000ec883       ?addUnit@TacticalAIGroup@@QAEHH@Z 004ed883 f taitacmd.obj
 0001:000ec8aa       ?removeUnit@TacticalAIGroup@@QAEHH@Z 004ed8aa f taitacmd.obj
 0001:000ec8d1       ?containsUnit@TacticalAIGroup@@QAEHH@Z 004ed8d1 f taitacmd.obj
 0001:000ec8f8       ?unit@TacticalAIGroup@@QAEHH@Z 004ed8f8 f taitacmd.obj
 0001:000ec949       ?numberUnits@TacticalAIGroup@@QAEHXZ 004ed949 f taitacmd.obj
 0001:000ec96a       ?commander@TacticalAIGroup@@QBEHXZ 004ed96a f taitacmd.obj
 0001:000ec986       ?setCommander@TacticalAIGroup@@QAEXH@Z 004ed986 f taitacmd.obj
 0001:000ec9a7       ?originalHitPoints@TacticalAIGroup@@QBEHXZ 004ed9a7 f taitacmd.obj
 0001:000ec9c3       ?setOriginalHitPoints@TacticalAIGroup@@QAEXH@Z 004ed9c3 f taitacmd.obj
 0001:000ec9e4       ?currentLocation@TacticalAIGroup@@QBEABUWaypoint@@XZ 004ed9e4 f taitacmd.obj
 0001:000eca00       ?setCurrentLocation@TacticalAIGroup@@QAEXMMM@Z 004eda00 f taitacmd.obj
 0001:000eca33       ?currentAction@TacticalAIGroup@@QBEHXZ 004eda33 f taitacmd.obj
 0001:000eca4f       ?setCurrentAction@TacticalAIGroup@@QAEXH@Z 004eda4f f taitacmd.obj
 0001:000eca70       ?currentTarget@TacticalAIGroup@@QBEHXZ 004eda70 f taitacmd.obj
 0001:000eca8c       ?setCurrentTarget@TacticalAIGroup@@QAEXH@Z 004eda8c f taitacmd.obj
 0001:000ecaad       ?currentTargetType@TacticalAIGroup@@QBEHXZ 004edaad f taitacmd.obj
 0001:000ecac9       ?setCurrentTargetType@TacticalAIGroup@@QAEXH@Z 004edac9 f taitacmd.obj
 0001:000ecaea       ?currentTargetLocation@TacticalAIGroup@@QBEABUWaypoint@@XZ 004edaea f taitacmd.obj
 0001:000ecb06       ?setCurrentTargetLocation@TacticalAIGroup@@QAEXMMM@Z 004edb06 f taitacmd.obj
 0001:000ecb39       ?task@TacticalAIGroup@@QAEHPAVTribeTacticalAIModule@@H@Z 004edb39 f taitacmd.obj
 0001:000ecb53       ?idle@TacticalAIGroup@@QAEHPAVTribeTacticalAIModule@@@Z 004edb53 f taitacmd.obj
 0001:000ecb6d       ?synchronize@TacticalAIGroup@@QAEHPAVTribeTacticalAIModule@@H@Z 004edb6d f taitacmd.obj
 0001:000ecb87       ??0TribeTacticalAIModule@@QAE@PAXH@Z 004edb87 f taitacmd.obj
 0001:000ecfed       ??1TribeTacticalAIModule@@UAE@XZ 004edfed f taitacmd.obj
 0001:000ed227       ?update@TribeTacticalAIModule@@UAEHH@Z 004ee227 f taitacmd.obj
 0001:000ed96d       ?processMessage@TribeTacticalAIModule@@UAEHPAVAIModuleMessage@@@Z 004ee96d f taitacmd.obj
 0001:000ed987       ?setMainDecisionAI@TribeTacticalAIModule@@QAEXPAVTribeMainDecisionAIModule@@@Z 004ee987 f taitacmd.obj
 0001:000ed9ab       ?doSomething@TribeTacticalAIModule@@QAEHXZ 004ee9ab f taitacmd.obj
 0001:000eda7a       ?clearArea@TribeTacticalAIModule@@QAEXHMMMM@Z 004eea7a f taitacmd.obj
 0001:000edb74       ?addObject@TribeTacticalAIModule@@QAEXPAVBaseObject@@@Z 004eeb74 f taitacmd.obj
 0001:000edc1d       ?removeObject@TribeTacticalAIModule@@QAEXPAVBaseObject@@@Z 004eec1d f taitacmd.obj
 0001:000edce8       ?evaluateCivilianDistribution@TribeTacticalAIModule@@QAEXXZ 004eece8 f taitacmd.obj
 0001:000ee9c1       ?evaluateSoldierDistribution@TribeTacticalAIModule@@QAEXXZ 004ef9c1 f taitacmd.obj
 0001:000f0568       ?evaluateBoatDistribution@TribeTacticalAIModule@@QAEXXZ 004f1568 f taitacmd.obj
 0001:000f072d       ?evaluateOpenTasks@TribeTacticalAIModule@@QAEXXZ 004f172d f taitacmd.obj
 0001:000f0743       ?numberCivilians@TribeTacticalAIModule@@QBEHXZ 004f1743 f taitacmd.obj
 0001:000f0767       ?numberCivilianExplorers@TribeTacticalAIModule@@QBEHXZ 004f1767 f taitacmd.obj
 0001:000f078b       ?numberBuilders@TribeTacticalAIModule@@QBEHXZ 004f178b f taitacmd.obj
 0001:000f07af       ?numberGatherers@TribeTacticalAIModule@@QBEHXZ 004f17af f taitacmd.obj
 0001:000f07d3       ?desiredNumberCivilianExplorers@TribeTacticalAIModule@@QBEHXZ 004f17d3 f taitacmd.obj
 0001:000f07f7       ?desiredNumberBuilders@TribeTacticalAIModule@@QBEHXZ 004f17f7 f taitacmd.obj
 0001:000f081b       ?desiredNumberGatherers@TribeTacticalAIModule@@QBEHXZ 004f181b f taitacmd.obj
 0001:000f083f       ?numberSoldiers@TribeTacticalAIModule@@QBEHXZ 004f183f f taitacmd.obj
 0001:000f0863       ?numberSoldierExplorers@TribeTacticalAIModule@@QBEHXZ 004f1863 f taitacmd.obj
 0001:000f0887       ?numberSoldierAttackers@TribeTacticalAIModule@@QBEHXZ 004f1887 f taitacmd.obj
 0001:000f08ab       ?numberSoldierDefenders@TribeTacticalAIModule@@QBEHXZ 004f18ab f taitacmd.obj
 0001:000f08cf       ?desiredNumberSoldierExplorers@TribeTacticalAIModule@@QBEHXZ 004f18cf f taitacmd.obj
 0001:000f08f3       ?desiredNumberSoldierAttackers@TribeTacticalAIModule@@QBEHXZ 004f18f3 f taitacmd.obj
 0001:000f0917       ?desiredNumberSoldierDefenders@TribeTacticalAIModule@@QBEHXZ 004f1917 f taitacmd.obj
 0001:000f093b       ?numberBoats@TribeTacticalAIModule@@QBEHXZ 004f193b f taitacmd.obj
 0001:000f095f       ?numberBoatExplorers@TribeTacticalAIModule@@QBEHXZ 004f195f f taitacmd.obj
 0001:000f0983       ?numberBoatTraders@TribeTacticalAIModule@@QBEHXZ 004f1983 f taitacmd.obj
 0001:000f09a7       ?desiredNumberBoatExplorers@TribeTacticalAIModule@@QBEHXZ 004f19a7 f taitacmd.obj
 0001:000f09cb       ?desiredNumberBoatTraders@TribeTacticalAIModule@@QBEHXZ 004f19cb f taitacmd.obj
 0001:000f09ef       ?neededResource@TribeTacticalAIModule@@QBEHH@Z 004f19ef f taitacmd.obj
 0001:000f0a32       ?detask@TribeTacticalAIModule@@QAEXH@Z 004f1a32 f taitacmd.obj
 0001:000f0a89       ?strategicNumber@TribeTacticalAIModule@@QAEHH@Z 004f1a89 f taitacmd.obj
 0001:000f0acc       ?setStrategicNumber@TribeTacticalAIModule@@QAEXHH@Z 004f1acc f taitacmd.obj
 0001:000f0b21       ?notify@TribeTacticalAIModule@@UAEXHHHJJJ@Z 004f1b21 f taitacmd.obj
 0001:000f0d05       ?attackGroup@TribeTacticalAIModule@@QAEHHHHH@Z 004f1d05 f taitacmd.obj
 0001:000f0e00       ?defenseGroup@TribeTacticalAIModule@@QAEHHHHH@Z 004f1e00 f taitacmd.obj
 0001:000f0efb       ?attackGroupUnitIsIn@TribeTacticalAIModule@@QAEHH@Z 004f1efb f taitacmd.obj
 0001:000f0f62       ?defenseGroupUnitIsIn@TribeTacticalAIModule@@QAEHH@Z 004f1f62 f taitacmd.obj
 0001:000f0fc9       ?selectAttackGroupForUnit@TribeTacticalAIModule@@QAEHH@Z 004f1fc9 f taitacmd.obj
 0001:000f10de       ?selectDefenseGroupForUnit@TribeTacticalAIModule@@QAEHH@Z 004f20de f taitacmd.obj
 0001:000f11f3       ?setupAttackGroups@TribeTacticalAIModule@@QAEXXZ 004f21f3 f taitacmd.obj
 0001:000f1456       ?setupDefenseGroups@TribeTacticalAIModule@@QAEXXZ 004f2456 f taitacmd.obj
 0001:000f1bc8       ?numberIdleSoldiers@TribeTacticalAIModule@@QAEHXZ 004f2bc8 f taitacmd.obj
 0001:000f1cad       ?idleSoldier@TribeTacticalAIModule@@QAEHXZ 004f2cad f taitacmd.obj
 0001:000f1d64       ?displayCivilianDistribution@TribeTacticalAIModule@@QAEXXZ 004f2d64 f taitacmd.obj
 0001:000f1fb9       ?displaySoldierDistribution@TribeTacticalAIModule@@QAEXXZ 004f2fb9 f taitacmd.obj
 0001:000f207c       ?displayBoatDistribution@TribeTacticalAIModule@@QAEXXZ 004f307c f taitacmd.obj
 0001:000f2110       ?displayMostNeededResources@TribeTacticalAIModule@@QAEXXZ 004f3110 f taitacmd.obj
 0001:000f21bb       ?updateGathererDistribution@TribeTacticalAIModule@@QAEXXZ 004f31bb f taitacmd.obj
 0001:000f2335       ?taskBuilder@TribeTacticalAIModule@@QAEHPAVBaseObject@@PAVConstructionItem@@@Z 004f3335 f taitacmd.obj
 0001:000f2722       ?taskGatherer@TribeTacticalAIModule@@QAEHPAVBaseObject@@H@Z 004f3722 f taitacmd.obj
 0001:000f29de       ?taskExplorer@TribeTacticalAIModule@@QAEHPAVBaseObject@@@Z 004f39de f taitacmd.obj
 0001:000f29fb       ?taskExplorer@TribeTacticalAIModule@@QAEHH@Z 004f39fb f taitacmd.obj
 0001:000f2a61       ?taskWaterExplorer@TribeTacticalAIModule@@QAEHPAVBaseObject@@@Z 004f3a61 f taitacmd.obj
 0001:000f2b64       ?taskWaterTrader@TribeTacticalAIModule@@QAEHPAVBaseObject@@@Z 004f3b64 f taitacmd.obj
 0001:000f2e54       ?taskSoldier@TribeTacticalAIModule@@QAEHPAVBaseObject@@MMHH@Z 004f3e54 f taitacmd.obj
 0001:000f3037       ?taskSoldier@TribeTacticalAIModule@@QAEHHMMHH@Z 004f4037 f taitacmd.obj
 0001:000f3157       ?taskTrain@TribeTacticalAIModule@@QAEHHHH@Z 004f4157 f taitacmd.obj
 0001:000f32fe       ?taskResearch@TribeTacticalAIModule@@QAEHHHH@Z 004f42fe f taitacmd.obj
 0001:000f34a5       ?removeFromTaskLists@TribeTacticalAIModule@@QAEXH@Z 004f44a5 f taitacmd.obj
 0001:000f35c0       ??_GTacticalAIGroup@@UAEPAXI@Z 004f45c0 f taitacmd.obj
 0001:000f35c0       ??_ETacticalAIGroup@@UAEPAXI@Z 004f45c0 f taitacmd.obj
 0001:000f3600       ??_ETribeTacticalAIModule@@UAEPAXI@Z 004f4600 f taitacmd.obj
 0001:000f3600       ??_GTribeTacticalAIModule@@UAEPAXI@Z 004f4600 f taitacmd.obj
 0001:000f3640       ?desiredNumber@?$ManagedArray@H@@QBE?BHXZ 004f4640 f taitacmd.obj
 0001:000f3660       ?setDesiredNumber@?$ManagedArray@H@@QAEXH@Z 004f4660 f taitacmd.obj
 0001:000f3690       ??0TRIBE_Game@@QAE@PAURGE_Prog_Info@@H@Z 004f4690 f tribegam.obj
 0001:000f3824       ??1TRIBE_Game@@UAE@XZ      004f4824 f tribegam.obj
 0001:000f39d7       ?close_game_screens@TRIBE_Game@@QAEXXZ 004f49d7 f tribegam.obj
 0001:000f3a83       ?setup@TRIBE_Game@@MAEHXZ  004f4a83 f tribegam.obj
 0001:000f3bfc       ?setup_cmd_options@TRIBE_Game@@UAEHXZ 004f4bfc f tribegam.obj
 0001:000f3d04       ?setup_palette@TRIBE_Game@@MAEHXZ 004f4d04 f tribegam.obj
 0001:000f3dc8       ?create_world@TRIBE_Game@@MAEPAVRGE_Game_World@@XZ 004f4dc8 f tribegam.obj
 0001:000f3e5c       ?set_game_mode@TRIBE_Game@@UAEXHH@Z 004f4e5c f tribegam.obj
 0001:000f3eb6       ?set_player@TRIBE_Game@@UAEXF@Z 004f4eb6 f tribegam.obj
 0001:000f3f47       ?get_string2@TRIBE_Game@@UAEPADHJJPADH@Z 004f4f47 f tribegam.obj
 0001:000f4a9e       ?get_view_panel@TRIBE_Game@@UAEPAVTPanel@@XZ 004f5a9e f tribegam.obj
 0001:000f4b29       ?new_scenario_header@TRIBE_Game@@UAEPAVRGE_Scenario_Header@@H@Z 004f5b29 f tribegam.obj
 0001:000f4bc0       ?new_scenario_header@TRIBE_Game@@UAEPAVRGE_Scenario_Header@@PAVRGE_Scenario@@@Z 004f5bc0 f tribegam.obj
 0001:000f4c57       ?new_scenario_info@TRIBE_Game@@UAEPAVRGE_Scenario@@H@Z 004f5c57 f tribegam.obj
 0001:000f4cf3       ?show_error_message@TRIBE_Game@@QAEXH@Z 004f5cf3 f tribegam.obj
 0001:000f4d54       ?show_status_message@TRIBE_Game@@QAEXPAD@Z 004f5d54 f tribegam.obj
 0001:000f4e35       ?close_status_message@TRIBE_Game@@QAEXXZ 004f5e35 f tribegam.obj
 0001:000f4e57       ?start_video@TRIBE_Game@@QAEHHPAD@Z 004f5e57 f tribegam.obj
 0001:000f517c       ?stop_video@TRIBE_Game@@QAEXE@Z 004f617c f tribegam.obj
 0001:000f54d9       ?start_campaign_menu@TRIBE_Game@@QAEHXZ 004f64d9 f tribegam.obj
 0001:000f565c       ?start_menu@TRIBE_Game@@QAEHXZ 004f665c f tribegam.obj
 0001:000f57df       ?quit_game@TRIBE_Game@@QAEXXZ 004f67df f tribegam.obj
 0001:000f59a5       ?restart_game@TRIBE_Game@@QAEXXZ 004f69a5 f tribegam.obj
 0001:000f5b54       ?load_db_files@TRIBE_Game@@QAEHXZ 004f6b54 f tribegam.obj
 0001:000f5c9f       ?load_game_data@TRIBE_Game@@QAEHXZ 004f6c9f f tribegam.obj
 0001:000f5d8e       ?save_game@TRIBE_Game@@QAEHPAD@Z 004f6d8e f tribegam.obj
 0001:000f5e52       ?save_scenario@TRIBE_Game@@QAEHPAD@Z 004f6e52 f tribegam.obj
 0001:000f5f58       ?calc_timing_text@TRIBE_Game@@UAEXXZ 004f6f58 f tribegam.obj
 0001:000f60e0       ?show_timings@TRIBE_Game@@UAEXXZ 004f70e0 f tribegam.obj
 0001:000f6126       ?show_comm@TRIBE_Game@@UAEXXZ 004f7126 f tribegam.obj
 0001:000f61ae       ?show_ai@TRIBE_Game@@UAEXXZ 004f71ae f tribegam.obj
 0001:000f64e4       ?notification@TRIBE_Game@@UAEXHJJ@Z 004f74e4 f tribegam.obj
 0001:000f676e       ?start_game@TRIBE_Game@@QAEHH@Z 004f776e f tribegam.obj
 0001:000f6803       ?start_scenario@TRIBE_Game@@QAEHPAD@Z 004f7803 f tribegam.obj
 0001:000f6a57       ?load_game@TRIBE_Game@@QAEHPAD@Z 004f7a57 f tribegam.obj
 0001:000f6bc7       ?do_game_over@TRIBE_Game@@QAEXXZ 004f7bc7 f tribegam.obj
 0001:000f6cb4       ?create_game@TRIBE_Game@@IAEHH@Z 004f7cb4 f tribegam.obj
 0001:000f72a2       ?create_game_screen@TRIBE_Game@@QAEHXZ 004f82a2 f tribegam.obj
 0001:000f74d1       ?let_game_begin@TRIBE_Game@@IAEXXZ 004f84d1 f tribegam.obj
 0001:000f75a1       ?start_scenario_editor@TRIBE_Game@@QAEHPADH@Z 004f85a1 f tribegam.obj
 0001:000f7771       ?send_game_options@TRIBE_Game@@UAEXXZ 004f8771 f tribegam.obj
 0001:000f77db       ?receive_game_options@TRIBE_Game@@UAEXXZ 004f87db f tribegam.obj
 0001:000f784b       ?set_tribe_options@TRIBE_Game@@QAEXPAUTRIBE_Game_Options@1@@Z 004f884b f tribegam.obj
 0001:000f7900       ?get_tribe_options@TRIBE_Game@@QAEXPAUTRIBE_Game_Options@1@@Z 004f8900 f tribegam.obj
 0001:000f79b5       ?mapSize@TRIBE_Game@@QBE?AW4MapSize@1@XZ 004f89b5 f tribegam.obj
 0001:000f79d4       ?setMapSize@TRIBE_Game@@QAEXW4MapSize@1@@Z 004f89d4 f tribegam.obj
 0001:000f7a9b       ?mapType@TRIBE_Game@@QBE?AW4MapType@1@XZ 004f8a9b f tribegam.obj
 0001:000f7aba       ?setMapType@TRIBE_Game@@QAEXW4MapType@1@@Z 004f8aba f tribegam.obj
 0001:000f7ade       ?animals@TRIBE_Game@@QBEHXZ 004f8ade f tribegam.obj
 0001:000f7afd       ?setAnimals@TRIBE_Game@@QAEXH@Z 004f8afd f tribegam.obj
 0001:000f7b21       ?predators@TRIBE_Game@@QBEHXZ 004f8b21 f tribegam.obj
 0001:000f7b40       ?setPredators@TRIBE_Game@@QAEXH@Z 004f8b40 f tribegam.obj
 0001:000f7b64       ?victoryType@TRIBE_Game@@QBE?AW4VictoryType@1@XZ 004f8b64 f tribegam.obj
 0001:000f7b83       ?victoryAmount@TRIBE_Game@@QBEHXZ 004f8b83 f tribegam.obj
 0001:000f7ba2       ?setVictoryType@TRIBE_Game@@QAEXW4VictoryType@1@H@Z 004f8ba2 f tribegam.obj
 0001:000f7bd2       ?civilization@TRIBE_Game@@QAEHH@Z 004f8bd2 f tribegam.obj
 0001:000f7bf7       ?setCivilization@TRIBE_Game@@QAEXHH@Z 004f8bf7 f tribegam.obj
 0001:000f7c1f       ?scenarioPlayer@TRIBE_Game@@QAEHH@Z 004f8c1f f tribegam.obj
 0001:000f7c44       ?setScenarioPlayer@TRIBE_Game@@QAEXHH@Z 004f8c44 f tribegam.obj
 0001:000f7c6c       ?gameSummary@TRIBE_Game@@UAEPADXZ 004f8c6c f tribegam.obj
 0001:000f7d86       ?handle_idle@TRIBE_Game@@UAEHXZ 004f8d86 f tribegam.obj
 0001:000f7e7b       ?handle_query_new_palette@TRIBE_Game@@UAEHPAXIIJ@Z 004f8e7b f tribegam.obj
 0001:000f7ee7       ?action_user_command@TRIBE_Game@@UAEHKK@Z 004f8ee7 f tribegam.obj
 0001:000f7f93       ?action_key_down@TRIBE_Game@@UAEHKHHHH@Z 004f8f93 f tribegam.obj
 0001:000f8012       ?game_over_msg@TRIBE_Game@@QAEPADXZ 004f9012 f tribegam.obj
 0001:000f8083       ?get_achievement_info@TRIBE_Game@@QAEJEPAPAD@Z 004f9083 f tribegam.obj
 0001:000f80d0       ??_GTRIBE_Game@@UAEPAXI@Z  004f90d0 f tribegam.obj
 0001:000f80d0       ??_ETRIBE_Game@@UAEPAXI@Z  004f90d0 f tribegam.obj
 0001:000f8110       ?get_view_panel@TRIBE_Screen_Game@@QAEPAVTPanel@@XZ 004f9110 f tribegam.obj
 0001:000f8130       ?get_view_panel@TRIBE_Screen_Sed@@QAEPAVTPanel@@XZ 004f9130 f tribegam.obj
 0001:000f8150       ?get_music_type@TMusic_System@@QAEEXZ 004f9150 f tribegam.obj
 0001:000f8170       ?HorizontalLine@ControlerOfLandscape@@MAEXHHHH@Z 004f9170 f map_cdrw.obj
 0001:000f8264       ?DrawLandOntoMap@ControlerOfLandscape@@MAEXHHH@Z 004f9264 f map_cdrw.obj
 0001:000f82e3       ?DrawLandOntoMapType@ControlerOfLandscape@@MAEXHHHH@Z 004f92e3 f map_cdrw.obj
 0001:000f8371       ?DrawLandOntoMap@ControlerOfLandscape@@MAEXHH@Z 004f9371 f map_cdrw.obj
 0001:000f83f2       ?DrawLandOntoMapAvoidingType@ControlerOfLandscape@@MAEXHHHH@Z 004f93f2 f map_cdrw.obj
 0001:000f8480       ?RetrieveMapValue@ControlerOfLandscape@@MAEHHH@Z 004f9480 f map_cdrw.obj
 0001:000f8511       ?RetrieveMapValue@ControlerOfLandscape@@MAEHH@Z 004f9511 f map_cdrw.obj
 0001:000f85a4       ?Test4DirectionsForMapValue@ControlerOfLandscape@@MAEHHHH@Z 004f95a4 f map_cdrw.obj
 0001:000f86e1       ?DrawLandOntoMap@ControlerOfLandscape@@MAEXPADHHHHH@Z 004f96e1 f map_cdrw.obj
 0001:000f8751       ?DrawLandOntoMapType@ControlerOfLandscape@@MAEXPADHHHHHH@Z 004f9751 f map_cdrw.obj
 0001:000f87d0       ?DrawLandOntoMap@ControlerOfLandscape@@MAEXPADHHHH@Z 004f97d0 f map_cdrw.obj
 0001:000f8845       ?DrawLandOntoMapAvoidingType@ControlerOfLandscape@@MAEXPADHHHHHH@Z 004f9845 f map_cdrw.obj
 0001:000f88c4       ?RetrieveMapValue@ControlerOfLandscape@@MAEHPADHHHH@Z 004f98c4 f map_cdrw.obj
 0001:000f8963       ?RetrieveMapValue@ControlerOfLandscape@@MAEHPADHHH@Z 004f9963 f map_cdrw.obj
 0001:000f8a07       ?RetrieveTrueMapValue@ControlerOfLandscape@@MAEHPADHHHH@Z 004f9a07 f map_cdrw.obj
 0001:000f8a89       ?RetrieveTrueMapValue@ControlerOfLandscape@@MAEHPADHHH@Z 004f9a89 f map_cdrw.obj
 0001:000f8b10       ?Test4DirectionsForMapValue@ControlerOfLandscape@@MAEHPADHHHHH@Z 004f9b10 f map_cdrw.obj
 0001:000f8c3e       ?MemcpyOverTwoTypesWithThird@ControlerOfLandscape@@IAEXPADDDDH@Z 004f9c3e f map_cdrw.obj
 0001:000f8c9d       ?ClearAreaAndReplaceWithType1IgnoringType2AndType1@ControlerOfLandscape@@IAEXPAD0DDH@Z 004f9c9d f map_cdrw.obj
 0001:000f8d13       ?WriteCharArrayIntoRGE_map@ControlerOfLandscape@@MAEXXZ 004f9d13 f map_cdrw.obj
 0001:000f8db3       ?MemcpyOneArrayOntoAnother@ControlerOfLandscape@@MAEXPAD0D@Z 004f9db3 f map_cdrw.obj
 0001:000f8e1f       ?MemcpyOneArrayOntoAnotherAvoidingType@ControlerOfLandscape@@MAEXPAD0DD@Z 004f9e1f f map_cdrw.obj
 0001:000f8e9b       ?MemcpyOneArrayOntoAnotherForOnType@ControlerOfLandscape@@MAEXPAD0DHH@Z 004f9e9b f map_cdrw.obj
 0001:000f8efe       ?FillOneTypeWithAnother@ControlerOfLandscape@@MAEXPADDD@Z 004f9efe f map_cdrw.obj
 0001:000f8f57       ?CreateSmallMapBasedOnRect@ControlerOfLandscape@@MAEPADPAURECTANGLE@@@Z 004f9f57 f map_cdrw.obj
 0001:000f9062       ?CompareElevationOf2Points@ControlerOfLandscape@@MAEHHHHH@Z 004fa062 f map_cdrw.obj
 0001:000f9145       ?DrawLineElevationHorizontal@ControlerOfLandscape@@MAEXHHHH@Z 004fa145 f map_cdrw.obj
 0001:000f915d       ?DrawLineElevationVertical@ControlerOfLandscape@@MAEXHHHH@Z 004fa15d f map_cdrw.obj
 0001:000f9175       ?FrameRectElevation@ControlerOfLandscape@@MAEXHPAURECTANGLE@@@Z 004fa175 f map_cdrw.obj
 0001:000f919b       ?FrameRectElevation@ControlerOfLandscape@@MAEXHHPAURECTANGLE@@@Z 004fa19b f map_cdrw.obj
 0001:000f955c       ?FillRectElevation@ControlerOfLandscape@@MAEXHPAURECTANGLE@@@Z 004fa55c f map_cdrw.obj
 0001:000f9687       ?SmoothElevationOutward@ControlerOfLandscape@@MAEXHHHH@Z 004fa687 f map_cdrw.obj
 0001:000f969f       ?WriteHeightMapIntoRGE_map@ControlerOfLandscape@@MAEXPAURECTANGLE@@@Z 004fa69f f map_cdrw.obj
 0001:000f9800       ??0TDebuggingLog@@QAE@XZ   004fa800 f Debuglog.obj
 0001:000f988a       ??1TDebuggingLog@@QAE@XZ   004fa88a f Debuglog.obj
 0001:000f98a8       ?LogFile@TDebuggingLog@@QAEXH@Z 004fa8a8 f Debuglog.obj
 0001:000f9901       ?LogOutput@TDebuggingLog@@QAEXH@Z 004fa901 f Debuglog.obj
 0001:000f995a       ?LogTimestamp@TDebuggingLog@@QAEXH@Z 004fa95a f Debuglog.obj
 0001:000f99b3       ?LogDateTimestamp@TDebuggingLog@@QAEXH@Z 004fa9b3 f Debuglog.obj
 0001:000f9a0e       ?Time@TDebuggingLog@@QAEXXZ 004faa0e f Debuglog.obj
 0001:000f9a94       ?FlushToDisk@TDebuggingLog@@QAEXH@Z 004faa94 f Debuglog.obj
 0001:000f9af0       ?LogSequence@TDebuggingLog@@QAEXH@Z 004faaf0 f Debuglog.obj
 0001:000f9b56       ?GetFilename@TDebuggingLog@@IAEPADPAD@Z 004fab56 f Debuglog.obj
 0001:000f9bb1       ?OpenLog@TDebuggingLog@@QAEXXZ 004fabb1 f Debuglog.obj
 0001:000f9c84       ?FlushLog@TDebuggingLog@@QAEXXZ 004fac84 f Debuglog.obj
 0001:000f9cba       ?CloseLog@TDebuggingLog@@QAEXXZ 004facba f Debuglog.obj
 0001:000f9d13       ?Log@TDebuggingLog@@QAAXPADZZ 004fad13 f Debuglog.obj
 0001:000f9f94       ?YesOrNo@TDebuggingLog@@IAEPADH@Z 004faf94 f Debuglog.obj
 0001:000f9fd0       ??0InfluenceMap@@QAE@XZ    004fafd0 f infmap.obj
 0001:000fa01a       ??0InfluenceMap@@QAE@HHE@Z 004fb01a f infmap.obj
 0001:000fa078       ??0InfluenceMap@@QAE@H@Z   004fb078 f infmap.obj
 0001:000fa09c       ??1InfluenceMap@@UAE@XZ    004fb09c f infmap.obj
 0001:000fa10b       ?initialize@InfluenceMap@@QAEHHHE@Z 004fb10b f infmap.obj
 0001:000fa24d       ?printToFile@InfluenceMap@@QAEXPADH@Z 004fb24d f infmap.obj
 0001:000fa39b       ?printToFile@InfluenceMap@@QAEXPADHPAVPath@@@Z 004fb39b f infmap.obj
 0001:000fa538       ?setValue@InfluenceMap@@QAEHHHE@Z 004fb538 f infmap.obj
 0001:000fa5a3       ?setValue@InfluenceMap@@QAEHHHHHE@Z 004fb5a3 f infmap.obj
 0001:000fa685       ?incrementValue@InfluenceMap@@QAEHHHE@Z 004fb685 f infmap.obj
 0001:000fa733       ?incrementValue@InfluenceMap@@QAEHHHHHE@Z 004fb733 f infmap.obj
 0001:000fa858       ?decrementValue@InfluenceMap@@QAEHHHE@Z 004fb858 f infmap.obj
 0001:000fa903       ?decrementValue@InfluenceMap@@QAEHHHHHE@Z 004fb903 f infmap.obj
 0001:000faa25       ?add@InfluenceMap@@QAEXABV1@@Z 004fba25 f infmap.obj
 0001:000faae6       ?subtract@InfluenceMap@@QAEXABV1@@Z 004fbae6 f infmap.obj
 0001:000faba4       ?save@InfluenceMap@@UAEXH@Z 004fbba4 f infmap.obj
 0001:000fabc0       ??_GInfluenceMap@@UAEPAXI@Z 004fbbc0 f infmap.obj
 0001:000fabc0       ??_EInfluenceMap@@UAEPAXI@Z 004fbbc0 f infmap.obj
 0001:000fac00       ??0TribeInformationAIModule@@QAE@PAXH@Z 004fbc00 f taiinfmd.obj
 0001:000fad39       ??1TribeInformationAIModule@@UAE@XZ 004fbd39 f taiinfmd.obj
 0001:000fae11       ?update@TribeInformationAIModule@@UAEHH@Z 004fbe11 f taiinfmd.obj
 0001:000fb054       ?setMainDecisionAI@TribeInformationAIModule@@QAEXPAVTribeMainDecisionAIModule@@@Z 004fc054 f taiinfmd.obj
 0001:000fb078       ?closestUnexploredTile@TribeInformationAIModule@@QAEHMMPAM0@Z 004fc078 f taiinfmd.obj
 0001:000fb1c3       ?haveUnexploredTiles@TribeInformationAIModule@@QBEHXZ 004fc1c3 f taiinfmd.obj
 0001:000fb1e2       ?setHaveUnexploredTiles@TribeInformationAIModule@@QAEXH@Z 004fc1e2 f taiinfmd.obj
 0001:000fb206       ?tileUncovered@TribeInformationAIModule@@QAEHMM@Z 004fc206 f taiinfmd.obj
 0001:000fb290       ?locationOfGameID@TribeInformationAIModule@@QAEHHPAM0@Z 004fc290 f taiinfmd.obj
 0001:000fb400       ?ownerOfGameID@TribeInformationAIModule@@QAEHH@Z 004fc400 f taiinfmd.obj
 0001:000fb41d       ?gameIDOfResourceObject@TribeInformationAIModule@@QAEHHMMPAM0PAHH@Z 004fc41d f taiinfmd.obj
 0001:000fb5a2       ?gameIDOfObjectType@TribeInformationAIModule@@QAEHHMMPAM0PAHH@Z 004fc5a2 f taiinfmd.obj
 0001:000fb7d3       ?gameIDsOfObjectType@TribeInformationAIModule@@QAEHHPAPAH0H@Z 004fc7d3 f taiinfmd.obj
 0001:000fba49       ?gameIDsOwnedBy@TribeInformationAIModule@@QAEHHPAPAHH@Z 004fca49 f taiinfmd.obj
 0001:000fbbdd       ?place3By3@TribeInformationAIModule@@QAEPAVConstructionItem@@PAVBuildItem@@MMH@Z 004fcbdd f taiinfmd.obj
 0001:000fc231       ?hasAdjacentTileType@TribeInformationAIModule@@IAEHHHH@Z 004fd231 f taiinfmd.obj
 0001:000fc37c       ?mapXSize@TribeInformationAIModule@@QAEHXZ 004fd37c f taiinfmd.obj
 0001:000fc3cc       ?mapYSize@TribeInformationAIModule@@QAEHXZ 004fd3cc f taiinfmd.obj
 0001:000fc41c       ?addEnemyInfluences@TribeInformationAIModule@@QAEXPAVInfluenceMap@@@Z 004fd41c f taiinfmd.obj
 0001:000fc5f8       ?addImportantObject@TribeInformationAIModule@@QAEHH@Z 004fd5f8 f taiinfmd.obj
 0001:000fc6fd       ?importantObject@TribeInformationAIModule@@QAEHH@Z 004fd6fd f taiinfmd.obj
 0001:000fc75d       ?importantUnit@TribeInformationAIModule@@QAEHH@Z 004fd75d f taiinfmd.obj
 0001:000fc835       ?importantResource@TribeInformationAIModule@@QAEHH@Z 004fd835 f taiinfmd.obj
 0001:000fc8bd       ?importantMisc@TribeInformationAIModule@@QAEHH@Z 004fd8bd f taiinfmd.obj
 0001:000fc900       ??_ETribeInformationAIModule@@UAEPAXI@Z 004fd900 f taiinfmd.obj
 0001:000fc900       ??_GTribeInformationAIModule@@UAEPAXI@Z 004fd900 f taiinfmd.obj
 0001:000fc940       ??0TribeAchievementsScreen@@QAE@PADH@Z 004fd940 f scr_ach.obj
 0001:000fd5b5       ??1TribeAchievementsScreen@@UAE@XZ 004fe5b5 f scr_ach.obj
 0001:000fd7b2       ?action@TribeAchievementsScreen@@MAEJPAVTPanel@@JKK@Z 004fe7b2 f scr_ach.obj
 0001:000fd870       ??_ETribeAchievementsScreen@@UAEPAXI@Z 004fe870 f scr_ach.obj
 0001:000fd870       ??_GTribeAchievementsScreen@@UAEPAXI@Z 004fe870 f scr_ach.obj
 0001:000fd8b0       ??0StrategyAIModule@@QAE@PAXH@Z 004fe8b0 f aistrmod.obj
 0001:000fd933       ??1StrategyAIModule@@UAE@XZ 004fe933 f aistrmod.obj
 0001:000fd9a0       ??_GStrategyAIModule@@UAEPAXI@Z 004fe9a0 f aistrmod.obj
 0001:000fd9a0       ??_EStrategyAIModule@@UAEPAXI@Z 004fe9a0 f aistrmod.obj
 0001:000fd9e0       ??0RGE_Diamond_Map_View@@QAE@XZ 004fe9e0 f vw_dimap.obj
 0001:000fda5c       ?handle_mouse_down@RGE_Diamond_Map_View@@UAEJEJJHH@Z 004fea5c f vw_dimap.obj
 0001:000fdabb       ?mouse_left_down_action@RGE_Diamond_Map_View@@UAEJJJHH@Z 004feabb f vw_dimap.obj
 0001:000fdb39       ?mouse_left_move_action@RGE_Diamond_Map_View@@UAEJJJHH@Z 004feb39 f vw_dimap.obj
 0001:000fdbd6       ?mouse_left_up_action@RGE_Diamond_Map_View@@UAEJJJHH@Z 004febd6 f vw_dimap.obj
 0001:000fdd64       ?mouse_right_down_action@RGE_Diamond_Map_View@@UAEJJJHH@Z 004fed64 f vw_dimap.obj
 0001:000fdde2       ?mouse_right_move_action@RGE_Diamond_Map_View@@UAEJJJHH@Z 004fede2 f vw_dimap.obj
 0001:000fde7f       ?mouse_right_up_action@RGE_Diamond_Map_View@@UAEJJJHH@Z 004fee7f f vw_dimap.obj
 0001:000fdf65       ?draw@RGE_Diamond_Map_View@@UAEXXZ 004fef65 f vw_dimap.obj
 0001:000fdfa3       ?command_make_do@RGE_Diamond_Map_View@@UAEHJJ@Z 004fefa3 f vw_dimap.obj
 0001:000fe035       ?command_make_move@RGE_Diamond_Map_View@@UAEHJJ@Z 004ff035 f vw_dimap.obj
 0001:000fe0db       ?command_make_work@RGE_Diamond_Map_View@@UAEHJJ@Z 004ff0db f vw_dimap.obj
 0001:000fe190       ??_GRGE_Diamond_Map_View@@UAEPAXI@Z 004ff190 f vw_dimap.obj
 0001:000fe190       ??_ERGE_Diamond_Map_View@@UAEPAXI@Z 004ff190 f vw_dimap.obj
 0001:000fe1d0       ??0TDrawSystem@@QAE@XZ     004ff1d0 f Drawarea.obj
 0001:000fe2a2       ??1TDrawSystem@@QAE@XZ     004ff2a2 f Drawarea.obj
 0001:000fe364       ?Init@TDrawSystem@@QAEHPAX00EEJJK@Z 004ff364 f Drawarea.obj
 0001:000fe9a2       ?SetDisplaySize@TDrawSystem@@QAEHJJ@Z 004ff9a2 f Drawarea.obj
 0001:000fea5a       ?CheckSurfaces@TDrawSystem@@QAEEXZ 004ffa5a f Drawarea.obj
 0001:000fee37       ?ClearRestored@TDrawSystem@@QAEXXZ 004ffe37 f Drawarea.obj
 0001:000fee87       ?DeleteSurfaces@TDrawSystem@@QAEXXZ 004ffe87 f Drawarea.obj
 0001:000fef05       ?CreateSurfaces@TDrawSystem@@QAEHXZ 004fff05 f Drawarea.obj
 0001:000ff16b       ?HandleSize@TDrawSystem@@QAEXPAXIIJ@Z 0050016b f Drawarea.obj
 0001:000ff1f3       ?HandlePaletteChanged@TDrawSystem@@QAEXPAXIIJ@Z 005001f3 f Drawarea.obj
 0001:000ff232       ?HandleQueryNewPalette@TDrawSystem@@QAEHPAXIIJ@Z 00500232 f Drawarea.obj
 0001:000ff300       ?Paint@TDrawSystem@@QAEXPAUtagRECT@@@Z 00500300 f Drawarea.obj
 0001:000ff92b       ?SetPalette@TDrawSystem@@QAEXPAX@Z 0050092b f Drawarea.obj
 0001:000ff98c       ?ModifyPalette@TDrawSystem@@QAEXFFPAUtagPALETTEENTRY@@@Z 0050098c f Drawarea.obj
 0001:000ffb02       ??0TDrawArea@@QAE@XZ       00500b02 f Drawarea.obj
 0001:000ffc94       ??1TDrawArea@@QAE@XZ       00500c94 f Drawarea.obj
 0001:000ffedb       ?Init@TDrawArea@@QAEHPAVTDrawSystem@@JJ@Z 00500edb f Drawarea.obj
 0001:00100062       ?CheckSurface@TDrawArea@@QAEEXZ 00501062 f Drawarea.obj
 0001:001003bc       ?Lock@TDrawArea@@QAEPAEH@Z 005013bc f Drawarea.obj
 0001:00100578       ?Unlock@TDrawArea@@QAEXXZ  00501578 f Drawarea.obj
 0001:001006c0       ?GetDc@TDrawArea@@QAEPAXXZ 005016c0 f Drawarea.obj
 0001:0010076a       ?ReleaseDc@TDrawArea@@QAEXXZ 0050176a f Drawarea.obj
 0001:001007ff       ?SetSize@TDrawArea@@QAEXJJ@Z 005017ff f Drawarea.obj
 0001:0010128e       ?Clear@TDrawArea@@QAEXPAUtagRECT@@H@Z 0050228e f Drawarea.obj
 0001:001018b4       ?SetAccessOffsets@TDrawArea@@QAEXXZ 005028b4 f Drawarea.obj
 0001:00101afc       ?SetInfo@TDrawArea@@QAEXXZ 00502afc f Drawarea.obj
 0001:00101b4d       ?AlignedWidth@TDrawArea@@QAEJXZ 00502b4d f Drawarea.obj
 0001:00101b69       ?SetClipRect@TDrawArea@@QAEXPAUtagRECT@@@Z 00502b69 f Drawarea.obj
 0001:00101d61       ?SetClipRect@TDrawArea@@QAEXJJJJ@Z 00502d61 f Drawarea.obj
 0001:00101f1f       ?Copy@TDrawArea@@QAEXPAV1@JJPAUtagRECT@@@Z 00502f1f f Drawarea.obj
 0001:0010265b       ?SetTrans@TDrawArea@@QAEXHE@Z 0050365b f Drawarea.obj
 0001:00102719       ?SetPixel@TDrawArea@@QAEXJJE@Z 00503719 f Drawarea.obj
 0001:001027cd       ?DrawRect@TDrawArea@@QAEXJJJJE@Z 005037cd f Drawarea.obj
 0001:001028b3       ?DrawRect@TDrawArea@@QAEXPAUtagRECT@@E@Z 005038b3 f Drawarea.obj
 0001:001028f2       ?DrawHorzLine@TDrawArea@@QAEXJJJE@Z 005038f2 f Drawarea.obj
 0001:00102a0e       ?DrawVertLine@TDrawArea@@QAEXJJJE@Z 00503a0e f Drawarea.obj
 0001:00102b5b       ?FillRect@TDrawArea@@QAEXJJJJE@Z 00503b5b f Drawarea.obj
 0001:00102d30       ??0RGE_Object_List@@QAE@XZ 00503d30 f obj_list.obj
 0001:00102d65       ??1RGE_Object_List@@QAE@XZ 00503d65 f obj_list.obj
 0001:00102df0       ?removeAllObjects@RGE_Object_List@@QAEXXZ 00503df0 f obj_list.obj
 0001:00102e72       ?add_node@RGE_Object_List@@QAEXPAVRGE_Static_Object@@@Z 00503e72 f obj_list.obj
 0001:00102ebd       ?remove_node@RGE_Object_List@@QAEXPAVRGE_Static_Object@@@Z 00503ebd f obj_list.obj
 0001:00102f5f       ?invert@RGE_Object_List@@IAEXXZ 00503f5f f obj_list.obj
 0001:00102fc5       ?draw@RGE_Object_List@@QAEXPAVTDrawArea@@FFE@Z 00503fc5 f obj_list.obj
 0001:001030cd       ?shadow_draw@RGE_Object_List@@QAEXPAVTDrawArea@@FFEE@Z 005040cd f obj_list.obj
 0001:001031ae       ?normal_draw@RGE_Object_List@@QAEXPAVTDrawArea@@FFE@Z 005041ae f obj_list.obj
 0001:001032b6       ?update@RGE_Object_List@@QAEXXZ 005042b6 f obj_list.obj
 0001:0010335b       ?sort@RGE_Object_List@@QAEPAURGE_Object_Node@@XZ 0050435b f obj_list.obj
 0001:0010346f       ?find_by_id@RGE_Object_List@@QAEPAVRGE_Static_Object@@J@Z 0050446f f obj_list.obj
 0001:001034d6       ?find_by_master_id@RGE_Object_List@@QAEPAVRGE_Static_Object@@JMMEE@Z 005044d6 f obj_list.obj
 0001:001035f9       ?find_by_master_ids@RGE_Object_List@@QAEPAVRGE_Static_Object@@JJMMEE@Z 005045f9 f obj_list.obj
 0001:0010372e       ?find_by_type@RGE_Object_List@@QAEPAVRGE_Static_Object@@EMMEE@Z 0050472e f obj_list.obj
 0001:00103853       ?save@RGE_Object_List@@QAEXH@Z 00504853 f obj_list.obj
 0001:001038c6       ?load_list@RGE_Object_List@@QAEXHPAVRGE_Game_World@@@Z 005048c6 f obj_list.obj
 0001:00103925       ?rehook_list@RGE_Object_List@@QAEXXZ 00504925 f obj_list.obj
 0001:00103970       ?load@RGE_Object_List@@MAEXEHPAVRGE_Game_World@@@Z 00504970 f obj_list.obj
 0001:00103c40       ?CreateSmallBlobs@ControlerOfLandscape@@MAEXHHH@Z 00504c40 f map_land.obj
 0001:00103e48       ?CreateStrings@ControlerOfLandscape@@MAEXHHH@Z 00504e48 f map_land.obj
 0001:001042d2       ?CreateWindyType1@ControlerOfLandscape@@MAEXHH@Z 005052d2 f map_land.obj
 0001:00104593       ?CreateWindyType2@ControlerOfLandscape@@MAEXHHHH@Z 00505593 f map_land.obj
 0001:00104d4c       ?CreatePatternedStrings@ControlerOfLandscape@@MAEXHHH@Z 00505d4c f map_land.obj
 0001:00105299       ?CreateElevation@ControlerOfLandscape@@MAEXPADHHHH@Z 00506299 f map_land.obj
 0001:001055fc       ?RaiseRectOfLandType@ControlerOfLandscape@@MAEXHHHH@Z 005065fc f map_land.obj
 0001:00105750       ??0RGE_Moving_Object@@QAE@PAVRGE_Master_Moving_Object@@PAVRGE_Player@@MMMH@Z 00506750 f move_obj.obj
 0001:001058b0       ??_ERGE_Moving_Object@@UAEPAXI@Z 005068b0 f move_obj.obj
 0001:001058b0       ??_GRGE_Moving_Object@@UAEPAXI@Z 005068b0 f move_obj.obj
 0001:001058d0       ??0RGE_Moving_Object@@QAE@HPAVRGE_Game_World@@H@Z 005068d0 f move_obj.obj
 0001:00105a20       ??1RGE_Moving_Object@@UAE@XZ 00506a20 f move_obj.obj
 0001:00105ab0       ?setup@RGE_Moving_Object@@MAEHPAVRGE_Master_Moving_Object@@PAVRGE_Player@@MMM@Z 00506ab0 f move_obj.obj
 0001:00105ba0       ?setup@RGE_Moving_Object@@MAEHHPAVRGE_Game_World@@@Z 00506ba0 f move_obj.obj
 0001:00105db0       ?save@RGE_Moving_Object@@UAEXH@Z 00506db0 f move_obj.obj
 0001:00105f90       ?new_sprite@RGE_Moving_Object@@UAEXPAVRGE_Sprite@@@Z 00506f90 f move_obj.obj
 0001:00105fc0       ?spawn_death_obj@RGE_Moving_Object@@UAEPAVRGE_Static_Object@@XZ 00506fc0 f move_obj.obj
 0001:00106000       ?transform@RGE_Moving_Object@@UAEXPAVRGE_Master_Static_Object@@@Z 00507000 f move_obj.obj
 0001:00106040       ?is_moving@RGE_Moving_Object@@UAEEXZ 00507040 f move_obj.obj
 0001:00106050       ?stop_moving@RGE_Moving_Object@@UAEXXZ 00507050 f move_obj.obj
 0001:00106060       ?angle_to_object@RGE_Moving_Object@@QAEMPAVRGE_Static_Object@@MM@Z 00507060 f move_obj.obj
 0001:00106150       ?turn_towards@RGE_Moving_Object@@UAEEPAVRGE_Static_Object@@MM@Z 00507150 f move_obj.obj
 0001:00106290       ?set_angle@RGE_Moving_Object@@QAEXXZ 00507290 f move_obj.obj
 0001:00106310       ?teleport@RGE_Moving_Object@@UAEMMMM@Z 00507310 f move_obj.obj
 0001:00106520       ?set_velocity@RGE_Moving_Object@@QAEXMMM@Z 00507520 f move_obj.obj
 0001:00106550       ?new_angle@RGE_Moving_Object@@UAEXM@Z 00507550 f move_obj.obj
 0001:00106570       ?getPath@RGE_Moving_Object@@QBEABVPath@@XZ 00507570 f move_obj.obj
 0001:00106580       ?facetToNextWaypoint@RGE_Moving_Object@@UBEEXZ 00507580 f move_obj.obj
 0001:001065b0       ?setStart@RGE_Moving_Object@@QAEXMMM@Z 005075b0 f move_obj.obj
 0001:001065f0       ?setGoal@RGE_Moving_Object@@QAEXMMM@Z 005075f0 f move_obj.obj
 0001:00106620       ?setGoal@RGE_Moving_Object@@QAEXHMMM@Z 00507620 f move_obj.obj
 0001:00106660       ?setNumberGoals@RGE_Moving_Object@@QAEXH@Z 00507660 f move_obj.obj
 0001:00106670       ?setActionRange@RGE_Moving_Object@@QAEXM@Z 00507670 f move_obj.obj
 0001:00106680       ?setTargetID@RGE_Moving_Object@@QAEXH@Z 00507680 f move_obj.obj
 0001:00106690       ?setTargetRadius@RGE_Moving_Object@@QAEXMM@Z 00507690 f move_obj.obj
 0001:001066b0       ?findPath@RGE_Moving_Object@@QAE?AW4PathResult@Path@@XZ 005076b0 f move_obj.obj
 0001:001068c0       ?displayPath@RGE_Moving_Object@@QAEXH@Z 005078c0 f move_obj.obj
 0001:00106950       ?doMove@RGE_Moving_Object@@QAE?AW4MoveResult@1@XZ 00507950 f move_obj.obj
 0001:00106ec0       ?doTrivialMove@RGE_Moving_Object@@QAE?AW4TrivialMoveResult@1@MM@Z 00507ec0 f move_obj.obj
 0001:00107830       ?doStupidMove@RGE_Moving_Object@@QAE?AW4MoveResult@1@XZ 00508830 f move_obj.obj
 0001:001078b0       ?doStupidTrivialMove@RGE_Moving_Object@@QAE?AW4TrivialMoveResult@1@MM@Z 005088b0 f move_obj.obj
 0001:00107d80       ?maximumSpeed@RGE_Moving_Object@@UAEMXZ 00508d80 f move_obj.obj
 0001:00107db0       ?copy_obj@RGE_Moving_Object@@UAEXPAVRGE_Master_Static_Object@@@Z 00508db0 f move_obj.obj
 0001:00107e10       ?rotate@RGE_Moving_Object@@UAEXJ@Z 00508e10 f move_obj.obj
 0001:00107eb0       ?MapCleanUpEliminatingSinglesOnly@ControlerOfLandscape@@MAEXXZ 00508eb0 f map_ctrb.obj
 0001:00107ef5       ?MapCleanUpEliminatingSinglesOnly@ControlerOfLandscape@@MAEXPAURECTANGLE@@@Z 00508ef5 f map_ctrb.obj
 0001:0010817f       ?MapCleanUpEliminatingSinglesOnly@ControlerOfLandscape@@MAEXD@Z 0050917f f map_ctrb.obj
 0001:001081cc       ?MapCleanUpEliminatingSinglesOnly@ControlerOfLandscape@@MAEXPAURECTANGLE@@DD@Z 005091cc f map_ctrb.obj
 0001:0010866f       ?MapCleanUpEliminatingSinglesNotBorderingType@ControlerOfLandscape@@MAEXDD@Z 0050966f f map_ctrb.obj
 0001:001086be       ?MapCleanUpEliminatingSinglesNotBorderingType@ControlerOfLandscape@@MAEXPAURECTANGLE@@DD@Z 005096be f map_ctrb.obj
 0001:00108a51       ?MapCleanUpEliminatingSmallGroups@ControlerOfLandscape@@MAEXD@Z 00509a51 f map_ctrb.obj
 0001:00108c7b       ?MapCleanUp@ControlerOfLandscape@@MAEXPADDHH@Z 00509c7b f map_ctrb.obj
 0001:001094c6       ?MapCleanUp@ControlerOfLandscape@@MAEXD@Z 0050a4c6 f map_ctrb.obj
 0001:00109a5d       ?BorderGenerateSurroundingType@ControlerOfLandscape@@MAEXDD@Z 0050aa5d f map_ctrb.obj
 0001:00109aaf       ?BorderGenerateSurroundingType@ControlerOfLandscape@@MAEXPAURECTANGLE@@DD@Z 0050aaaf f map_ctrb.obj
 0001:00109e15       ?BorderGenerateSurroundingType@ControlerOfLandscape@@MAEXDDD@Z 0050ae15 f map_ctrb.obj
 0001:00109e6b       ?BorderGenerateSurroundingType@ControlerOfLandscape@@MAEXPAURECTANGLE@@DDD@Z 0050ae6b f map_ctrb.obj
 0001:0010a161       ?BorderGenerateSurroundingTypeSpecial@ControlerOfLandscape@@MAEXDDDD@Z 0050b161 f map_ctrb.obj
 0001:0010a1bb       ?BorderGenerateSurroundingTypeSpecial@ControlerOfLandscape@@MAEXPAURECTANGLE@@DDDD@Z 0050b1bb f map_ctrb.obj
 0001:0010aab2       ?GenerateSecondary@ControlerOfLandscape@@MAEXPADD@Z 0050bab2 f map_ctrb.obj
 0001:0010aba3       ?CheckDistanceBetweenPoints@ControlerOfLandscape@@MAEHPAUPtToPt@@HH@Z 0050bba3 f map_ctrb.obj
 0001:0010ac82       ?SetDimensions@ControlerOfLandscape@@UAEXHH@Z 0050bc82 f map_ctrb.obj
 0001:0010acc2       ?CopyLargerMapIntoSmallerArray@ControlerOfLandscape@@MAEXPAD0HHHH@Z 0050bcc2 f map_ctrb.obj
 0001:0010ad43       ?DrawRectangleSizedMapOntoFullMapAsAnOverlay@ControlerOfLandscape@@MAEXPAURECTANGLE@@PADHH@Z 0050bd43 f map_ctrb.obj
 0001:0010af10       ??0TMessageDialog@@QAE@PAD@Z 0050bf10 f Dlg_msg.obj
 0001:0010afdd       ??1TMessageDialog@@UAE@XZ  0050bfdd f Dlg_msg.obj
 0001:0010b149       ?setup@TMessageDialog@@QAEJPAVTDrawArea@@PAVTPanel@@JJJJEPAD2PAXJJJJ3JJPAVTDigital@@4@Z 0050c149 f Dlg_msg.obj
 0001:0010b769       ?setup@TMessageDialog@@QAEJPAVTDrawArea@@PAVTPanel@@JJJJEPADJPAXJJJJ3JJPAVTDigital@@4@Z 0050c769 f Dlg_msg.obj
 0001:0010b801       ?action@TMessageDialog@@UAEJPAVTPanel@@JKK@Z 0050c801 f Dlg_msg.obj
 0001:0010b8e2       ?draw@TMessageDialog@@UAEXXZ 0050c8e2 f Dlg_msg.obj
 0001:0010ba10       ??_GTMessageDialog@@UAEPAXI@Z 0050ca10 f Dlg_msg.obj
 0001:0010ba10       ??_ETMessageDialog@@UAEPAXI@Z 0050ca10 f Dlg_msg.obj
 0001:0010ba50       ?SaveDisabledItemsInScenario@TRIBE_Screen_Sed@@IAEXXZ 0050ca50 f scr_sed2.obj
 0001:0010bb25       ?LoadDisabledItemsFromScenario@TRIBE_Screen_Sed@@IAEXXZ 0050cb25 f scr_sed2.obj
 0001:0010bbd4       ?save_info_in_scenario@TRIBE_Screen_Sed@@IAEXXZ 0050cbd4 f scr_sed2.obj
 0001:0010bc8f       ?save_victory_cond_in_scenario@TRIBE_Screen_Sed@@IAEXH@Z 0050cc8f f scr_sed2.obj
 0001:0010c661       ?load_victory_cond_from_scenario@TRIBE_Screen_Sed@@IAEXH@Z 0050d661 f scr_sed2.obj
 0001:0010d027       ?save_diplomacy_in_scenario@TRIBE_Screen_Sed@@IAEXH@Z 0050e027 f scr_sed2.obj
 0001:0010d160       ?load_diplomacy_from_scenario@TRIBE_Screen_Sed@@IAEXH@Z 0050e160 f scr_sed2.obj
 0001:0010d313       ?activate_victory_proper_fields@TRIBE_Screen_Sed@@IAEXHH@Z 0050e313 f scr_sed2.obj
 0001:0010da96       ?init_module_variables@TRIBE_Screen_Sed@@IAEXXZ 0050ea96 f scr_sed2.obj
 0001:0010e2a2       ?create_all_buttons_etc@TRIBE_Screen_Sed@@IAEXXZ 0050f2a2 f scr_sed2.obj
 0001:00110b00       ?position_panels@TRIBE_Screen_Sed@@QAEXXZ 00511b00 f scr_sed2.obj
 0001:00112315       ?activate_victory_panel@TRIBE_Screen_Sed@@IAEXH@Z 00513315 f scr_sed2.obj
 0001:0011269c       ?MakeFileList@TRIBE_Screen_Sed@@IAEHPADPAPAD@Z 0051369c f scr_sed2.obj
 0001:001127db       ?Set_player_advance_civilization_text@TRIBE_Screen_Sed@@IAEHH@Z 005137db f scr_sed2.obj
 0001:00112898       ?SavePlayerActiveStatus@TRIBE_Screen_Sed@@IAEXXZ 00513898 f scr_sed2.obj
 0001:00112910       ??0RGE_Panel_Tool_Box@@QAE@PAVTDrawArea@@PAVTPanel@@JJJJPAXJJPAVTDigital@@PAVTScreenPanel@@PAVRGE_View@@PAVRGE_Diamond_Map@@@Z 00513910 f rpnl_tbx.obj
 0001:00113143       ??1RGE_Panel_Tool_Box@@UAE@XZ 00514143 f rpnl_tbx.obj
 0001:00113356       ?action@RGE_Panel_Tool_Box@@UAEJPAVTPanel@@JKK@Z 00514356 f rpnl_tbx.obj
 0001:001138a8       ?key_down_action@RGE_Panel_Tool_Box@@UAEJJFHHH@Z 005148a8 f rpnl_tbx.obj
 0001:00113b77       ?game_mode_changed@RGE_Panel_Tool_Box@@QAEXHH@Z 00514b77 f rpnl_tbx.obj
 0001:00113d01       ?draw@RGE_Panel_Tool_Box@@UAEXXZ 00514d01 f rpnl_tbx.obj
 0001:00113d90       ??_GRGE_Panel_Tool_Box@@UAEPAXI@Z 00514d90 f rpnl_tbx.obj
 0001:00113d90       ??_ERGE_Panel_Tool_Box@@UAEPAXI@Z 00514d90 f rpnl_tbx.obj
 0001:00113dd0       ??0RGE_Sound@@QAE@PAU_iobuf@@F@Z 00514dd0 f Sound.obj
 0001:00113efd       ??0RGE_Sound@@QAE@HPAVTSound_Driver@@@Z 00514efd f Sound.obj
 0001:001140f4       ??0RGE_Sound@@QAE@XZ       005150f4 f Sound.obj
 0001:00114128       ??1RGE_Sound@@QAE@XZ       00515128 f Sound.obj
 0001:00114212       ?save@RGE_Sound@@QAEXH@Z   00515212 f Sound.obj
 0001:00114314       ?restart_sound@RGE_Sound@@QAEXPAVTSound_Driver@@@Z 00515314 f Sound.obj
 0001:0011448a       ?update@RGE_Sound@@QAEXK@Z 0051548a f Sound.obj
 0001:00114554       ?set_cache_time@RGE_Sound@@QAEXK@Z 00515554 f Sound.obj
 0001:00114575       ?play_at_update@RGE_Sound@@QAEXXZ 00515575 f Sound.obj
 0001:00114591       ?update_play@RGE_Sound@@QAEXXZ 00515591 f Sound.obj
 0001:001145c5       ?play@RGE_Sound@@QAEXXZ    005155c5 f Sound.obj
 0001:001146b2       ?stop@RGE_Sound@@QAEXXZ    005156b2 f Sound.obj
 0001:0011474d       ?is_playing@RGE_Sound@@QAEHXZ 0051574d f Sound.obj
 0001:001147e0       ??0TRIBE_Effects@@QAE@H@Z  005157e0 f teffects.obj
 0001:00114855       ??0TRIBE_Effects@@QAE@PAD@Z 00515855 f teffects.obj
 0001:001148ca       ?do_effect@TRIBE_Effects@@UAEXFPAVRGE_Player@@@Z 005158ca f teffects.obj
 0001:00114990       ??_ETRIBE_Effects@@UAEPAXI@Z 00515990 f teffects.obj
 0001:00114990       ??_GTRIBE_Effects@@UAEPAXI@Z 00515990 f teffects.obj
 0001:001149d0       ??1TRIBE_Effects@@UAE@XZ   005159d0 f teffects.obj
 0001:00114a30       ??0TRIBE_Action_Make_Obj@@QAE@HPAVRGE_Action_Object@@@Z 00515a30 f tact_mob.obj
 0001:00114af3       ??0TRIBE_Action_Make_Obj@@QAE@PAVRGE_Action_Object@@FH@Z 00515af3 f tact_mob.obj
 0001:00114b91       ?save@TRIBE_Action_Make_Obj@@UAEXH@Z 00515b91 f tact_mob.obj
 0001:00114bf4       ?first_in_stack@TRIBE_Action_Make_Obj@@UAEXE@Z 00515bf4 f tact_mob.obj
 0001:00114cca       ?set_state@TRIBE_Action_Make_Obj@@MAEXE@Z 00515cca f tact_mob.obj
 0001:00114ceb       ?update@TRIBE_Action_Make_Obj@@UAEEXZ 00515ceb f tact_mob.obj
 0001:00114eb8       ?place_obj@TRIBE_Action_Make_Obj@@IAEEXZ 00515eb8 f tact_mob.obj
 0001:00115190       ?stop@TRIBE_Action_Make_Obj@@UAEHXZ 00516190 f tact_mob.obj
 0001:001151f6       ?get_info@TRIBE_Action_Make_Obj@@QAEXAAF0PADF@Z 005161f6 f tact_mob.obj
 0001:001152b0       ??_ETRIBE_Action_Make_Obj@@UAEPAXI@Z 005162b0 f tact_mob.obj
 0001:001152b0       ??_GTRIBE_Action_Make_Obj@@UAEPAXI@Z 005162b0 f tact_mob.obj
 0001:001152f0       ??1TRIBE_Action_Make_Obj@@UAE@XZ 005162f0 f tact_mob.obj
 0001:00115350       ??0TribeSPMenuScreen@@QAE@XZ 00516350 f Scr_sing.obj
 0001:00115949       ??1TribeSPMenuScreen@@UAE@XZ 00516949 f Scr_sing.obj
 0001:00115a5a       ?action@TribeSPMenuScreen@@MAEJPAVTPanel@@JKK@Z 00516a5a f Scr_sing.obj
 0001:00115f20       ??_ETribeSPMenuScreen@@UAEPAXI@Z 00516f20 f Scr_sing.obj
 0001:00115f20       ??_GTribeSPMenuScreen@@UAEPAXI@Z 00516f20 f Scr_sing.obj
 0001:00115f60       ??0TRIBE_Screen_Name@@QAE@XZ 00516f60 f scr_name.obj
 0001:001162ce       ??1TRIBE_Screen_Name@@UAE@XZ 005172ce f scr_name.obj
 0001:001163be       ?init_vars@TRIBE_Screen_Name@@QAEXXZ 005173be f scr_name.obj
 0001:0011643c       ?get_player_names@TRIBE_Screen_Name@@IAEXXZ 0051743c f scr_name.obj
 0001:00116542       ?setup_tab_order@TRIBE_Screen_Name@@IAEXXZ 00517542 f scr_name.obj
 0001:00116650       ?handle_idle@TRIBE_Screen_Name@@UAEJXZ 00517650 f scr_name.obj
 0001:0011666e       ?action@TRIBE_Screen_Name@@UAEJPAVTPanel@@JKK@Z 0051766e f scr_name.obj
 0001:001169e1       ??0TRIBE_Dialog_Name@@QAE@PAVTPanel@@@Z 005179e1 f scr_name.obj
 0001:00116c3d       ??1TRIBE_Dialog_Name@@UAE@XZ 00517c3d f scr_name.obj
 0001:00116cfa       ?action@TRIBE_Dialog_Name@@UAEJPAVTPanel@@JKK@Z 00517cfa f scr_name.obj
 0001:00116f3b       ?wnd_proc@TRIBE_Dialog_Name@@UAEJPAXIIJ@Z 00517f3b f scr_name.obj
 0001:00116fb0       ??_ETRIBE_Screen_Name@@UAEPAXI@Z 00517fb0 f scr_name.obj
 0001:00116fb0       ??_GTRIBE_Screen_Name@@UAEPAXI@Z 00517fb0 f scr_name.obj
 0001:00116ff0       ??_ETRIBE_Dialog_Name@@UAEPAXI@Z 00517ff0 f scr_name.obj
 0001:00116ff0       ??_GTRIBE_Dialog_Name@@UAEPAXI@Z 00517ff0 f scr_name.obj
 0001:00117030       ??0TRIBE_Action_Make_Tech@@QAE@HPAVRGE_Action_Object@@@Z 00518030 f tact_tek.obj
 0001:001170de       ??0TRIBE_Action_Make_Tech@@QAE@PAVRGE_Action_Object@@FH@Z 005180de f tact_tek.obj
 0001:00117172       ?save@TRIBE_Action_Make_Tech@@UAEXH@Z 00518172 f tact_tek.obj
 0001:001171c0       ?first_in_stack@TRIBE_Action_Make_Tech@@UAEXE@Z 005181c0 f tact_tek.obj
 0001:0011727f       ?set_state@TRIBE_Action_Make_Tech@@MAEXE@Z 0051827f f tact_tek.obj
 0001:001172a0       ?update@TRIBE_Action_Make_Tech@@UAEEXZ 005182a0 f tact_tek.obj
 0001:001173cd       ?stop@TRIBE_Action_Make_Tech@@UAEHXZ 005183cd f tact_tek.obj
 0001:0011746e       ?get_info@TRIBE_Action_Make_Tech@@QAEXAAF0PADF@Z 0051846e f tact_tek.obj
 0001:00117510       ??_ETRIBE_Action_Make_Tech@@UAEPAXI@Z 00518510 f tact_tek.obj
 0001:00117510       ??_GTRIBE_Action_Make_Tech@@UAEPAXI@Z 00518510 f tact_tek.obj
 0001:00117550       ??1TRIBE_Action_Make_Tech@@UAE@XZ 00518550 f tact_tek.obj
 0001:001175b0       ??0RGE_Action@@QAE@HPAVRGE_Action_Object@@H@Z 005185b0 f action.obj
 0001:00117634       ??0RGE_Action@@QAE@PAVRGE_Action_Object@@H@Z 00518634 f action.obj
 0001:001176b4       ??1RGE_Action@@UAE@XZ      005186b4 f action.obj
 0001:00117726       ?setup@RGE_Action@@UAEHHPAVRGE_Action_Object@@@Z 00518726 f action.obj
 0001:00117900       ?setup@RGE_Action@@UAEHPAVRGE_Action_Object@@@Z 00518900 f action.obj
 0001:001179a5       ?create_action_list@RGE_Action@@UAEPAVRGE_Action_List@@PAVRGE_Action_Object@@@Z 005189a5 f action.obj
 0001:00117a3f       ?rehook@RGE_Action@@UAEXXZ 00518a3f f action.obj
 0001:00117aef       ?save@RGE_Action@@UAEXH@Z  00518aef f action.obj
 0001:00117cb1       ?type@RGE_Action@@UAEFXZ   00518cb1 f action.obj
 0001:00117cce       ?first_in_stack@RGE_Action@@UAEXE@Z 00518cce f action.obj
 0001:00117ce6       ?stop@RGE_Action@@UAEHXZ   00518ce6 f action.obj
 0001:00117cfe       ?move_to@RGE_Action@@UAEHPAVRGE_Static_Object@@MMM@Z 00518cfe f action.obj
 0001:00117d18       ?work@RGE_Action@@UAEHPAVRGE_Static_Object@@MMM@Z 00518d18 f action.obj
 0001:00117d32       ?attack_response@RGE_Action@@UAEEPAVRGE_Static_Object@@@Z 00518d32 f action.obj
 0001:00117d4c       ?relation_response@RGE_Action@@UAEEJE@Z 00518d4c f action.obj
 0001:00117d66       ?set_state@RGE_Action@@MAEXE@Z 00518d66 f action.obj
 0001:00117d87       ?inside_obj_update@RGE_Action@@UAEEXZ 00518d87 f action.obj
 0001:00117dfb       ?idle_update@RGE_Action@@UAEEXZ 00518dfb f action.obj
 0001:00117e6f       ?update@RGE_Action@@UAEEXZ 00518e6f f action.obj
 0001:00117f29       ?set_target_obj@RGE_Action@@UAEXPAVRGE_Static_Object@@@Z 00518f29 f action.obj
 0001:00117fff       ?set_target_obj2@RGE_Action@@UAEXPAVRGE_Static_Object@@@Z 00518fff f action.obj
 0001:001180d5       ?copy_obj@RGE_Action@@UAEXPAVRGE_Master_Action_Object@@@Z 005190d5 f action.obj
 0001:0011829f       ?copy_obj_sprites@RGE_Action@@UAEXPAVRGE_Master_Action_Object@@PAVRGE_Task@@1@Z 0051929f f action.obj
 0001:001182b7       ?get_state_name@RGE_Action@@UAEXPAD@Z 005192b7 f action.obj
 0001:00118494       ?targetX@RGE_Action@@QBEMXZ 00519494 f action.obj
 0001:001184b0       ?targetY@RGE_Action@@QBEMXZ 005194b0 f action.obj
 0001:001184cc       ?targetZ@RGE_Action@@QBEMXZ 005194cc f action.obj
 0001:001184e8       ?subAction@RGE_Action@@QBEEXZ 005194e8 f action.obj
 0001:00118504       ?setSubAction@RGE_Action@@QAEXE@Z 00519504 f action.obj
 0001:00118530       ??_GRGE_Action@@UAEPAXI@Z  00519530 f action.obj
 0001:00118530       ??_ERGE_Action@@UAEPAXI@Z  00519530 f action.obj
 0001:00118570       ??0TRIBE_Screen_Sed_Menu@@QAE@XZ 00519570 f scr_sedm.obj
 0001:00118c17       ??1TRIBE_Screen_Sed_Menu@@UAE@XZ 00519c17 f scr_sedm.obj
 0001:00118d5c       ?action@TRIBE_Screen_Sed_Menu@@MAEJPAVTPanel@@JKK@Z 00519d5c f scr_sedm.obj
 0001:00118f20       ??_GTRIBE_Screen_Sed_Menu@@UAEPAXI@Z 00519f20 f scr_sedm.obj
 0001:00118f20       ??_ETRIBE_Screen_Sed_Menu@@UAEPAXI@Z 00519f20 f scr_sedm.obj
 0001:00118f60       ?DibBlt@@YAXPAUBITMAPINFO256@@PAEPAUtagRECT@@JJJJ01JJJJHHH@Z 00519f60 f Dib.obj
 0001:0011923f       ?TransDibBlt@@YAXPAUBITMAPINFO256@@PAEPAUtagRECT@@JJJJ01PAUTRANSINFO@@JJJJHHH@Z 0051a23f f Dib.obj
 0001:001196ad       ?ClipDibBlt@@YAHPAUBITMAPINFO256@@PAUtagRECT@@AAJ2222222HH@Z 0051a6ad f Dib.obj
 0001:00119967       ?GetDibDim@@YAXPAUBITMAPINFO256@@AAJ11@Z 0051a967 f Dib.obj
 0001:001199c8       ?TileDibBlt@@YAJPAUBITMAPINFO256@@PAEPAUtagRECT@@JJJJJJ01PAUTRANSINFO@@JJJJHHH@Z 0051a9c8 f Dib.obj
 0001:00119f5f       ?DibCheckTrans@@YAHPAUBITMAPINFO256@@PAUTRANSINFO@@PAE@Z 0051af5f f Dib.obj
 0001:0011a187       ?GetPaletteFromDib@@YAPAXPADH@Z 0051b187 f Dib.obj
 0001:0011a1ee       ?DibOpenFile@@YAPAUtagBITMAPINFOHEADER@@PAD@Z 0051b1ee f Dib.obj
 0001:0011a3e9       ?ReadDibBits@@YAPAEPAD@Z   0051b3e9 f Dib.obj
 0001:0011a4a9       ?DibWriteClipped@@YAHPAUtagBITMAPINFOHEADER@@PADJJJJ@Z 0051b4a9 f Dib.obj
 0001:0011a605       ?DibWriteFile@@YAHPAUtagBITMAPINFOHEADER@@PAD@Z 0051b605 f Dib.obj
 0001:0011a72b       ?DibCreatePalette@@YAPAXPAUtagBITMAPINFOHEADER@@@Z 0051b72b f Dib.obj
 0001:0011a8a7       ?DibReadBitmapInfo@@YAPAUtagBITMAPINFOHEADER@@H@Z 0051b8a7 f Dib.obj
 0001:0011ab93       ?DibFromBitmap@@YAPAUtagBITMAPINFOHEADER@@PAXKI0I@Z 0051bb93 f Dib.obj
 0001:0011b01c       ?DibSetUsage@@YAHPAUtagBITMAPINFOHEADER@@PAXI@Z 0051c01c f Dib.obj
 0001:0011b1f5       ?DibDraw@@YAHPAXHHHHPAUtagBITMAPINFOHEADER@@HHHHJI@Z 0051c1f5 f Dib.obj
 0001:0011b2d3       ?DibCopy@@YAPAUtagBITMAPINFOHEADER@@PAU1@@Z 0051c2d3 f Dib.obj
 0001:0011b350       ?DibCreate@@YAPAUtagBITMAPINFOHEADER@@HHH@Z 0051c350 f Dib.obj
 0001:0011b54c       ?DibMapToPalette@@YAXPAUtagBITMAPINFOHEADER@@PAXHH@Z 0051c54c f Dib.obj
 0001:0011be85       ?MakeIdentityPalette@@YAXPAX@Z 0051ce85 f Dib.obj
 0001:0011c035       ?CreateIdentityPalette@@YAXPAX@Z 0051d035 f Dib.obj
 0001:0011c3a0       ?ClearSystemPalette@@YAXXZ 0051d3a0 f Dib.obj
 0001:0011c4bd       ?CopyPalette@@YAPAXPAX@Z   0051d4bd f Dib.obj
 0001:0011c572       ?DibFree@@YAXPAUtagBITMAPINFOHEADER@@@Z 0051d572 f Dib.obj
 0001:0011c5b0       ??0RGE_Action_Move_To@@QAE@HPAVRGE_Action_Object@@@Z 0051d5b0 f act_move.obj
 0001:0011c649       ??0RGE_Action_Move_To@@QAE@PAVRGE_Action_Object@@MMMMPAVRGE_Sprite@@@Z 0051d649 f act_move.obj
 0001:0011c766       ??0RGE_Action_Move_To@@QAE@PAVRGE_Action_Object@@PAVRGE_Static_Object@@MPAVRGE_Sprite@@@Z 0051d766 f act_move.obj
 0001:0011c8a2       ??1RGE_Action_Move_To@@UAE@XZ 0051d8a2 f act_move.obj
 0001:0011c91e       ?save@RGE_Action_Move_To@@UAEXH@Z 0051d91e f act_move.obj
 0001:0011c957       ?first_in_stack@RGE_Action_Move_To@@UAEXE@Z 0051d957 f act_move.obj
 0001:0011c97c       ?set_state@RGE_Action_Move_To@@MAEXE@Z 0051d97c f act_move.obj
 0001:0011ca3f       ?update@RGE_Action_Move_To@@UAEEXZ 0051da3f f act_move.obj
 0001:0011cf01       ?is_in_range@RGE_Action_Move_To@@IAEEXZ 0051df01 f act_move.obj
 0001:0011cfd0       ??_GRGE_Action_Move_To@@UAEPAXI@Z 0051dfd0 f act_move.obj
 0001:0011cfd0       ??_ERGE_Action_Move_To@@UAEPAXI@Z 0051dfd0 f act_move.obj
 0001:0011d010       ?boundAngle@@YAXPAM@Z      0051e010 f Path.obj
 0001:0011d0b0       ??0WorkingPaths@@QAE@HHH@Z 0051e0b0 f Path.obj
 0001:0011d140       ??1WorkingPaths@@QAE@XZ    0051e140 f Path.obj
 0001:0011d150       ??6@YAAAVostream@@AAV0@ABVWorkingPaths@@@Z 0051e150 f Path.obj
 0001:0011d5f0       ?endl@@YAAAVostream@@AAV1@@Z 0051e5f0 f Path.obj
 0001:0011d610       ?flush@@YAAAVostream@@AAV1@@Z 0051e610 f Path.obj
 0001:0011d620       ??0Path@@QAE@H@Z           0051e620 f Path.obj
 0001:0011d6e0       ??1Path@@QAE@XZ            0051e6e0 f Path.obj
 0001:0011d700       ??6@YAAAVostream@@AAV0@ABVPath@@@Z 0051e700 f Path.obj
 0001:0011d7f0       ??HPath@@QBE?AV0@ABV0@@Z   0051e7f0 f Path.obj
 0001:0011d8f0       ??4Path@@QAEAAV0@ABV0@@Z   0051e8f0 f Path.obj
 0001:0011d9e0       ??8Path@@QBEHABV0@@Z       0051e9e0 f Path.obj
 0001:0011da50       ?insertAtEnd@Path@@QAEHUWaypoint@@@Z 0051ea50 f Path.obj
 0001:0011db20       ?contains@Path@@QBEHABUWaypoint@@@Z 0051eb20 f Path.obj
 0001:0011dbf0       ?maxNumberOfWaypoints@Path@@QBE?BHXZ 0051ebf0 f Path.obj
 0001:0011dc00       ?numberOfWaypoints@Path@@QBE?BHXZ 0051ec00 f Path.obj
 0001:0011dc10       ?computationTime@Path@@QBE?BHXZ 0051ec10 f Path.obj
 0001:0011dc20       ?timeStamp@Path@@QBEKXZ    0051ec20 f Path.obj
 0001:0011dc30       ?setTimeStamp@Path@@QAEXK@Z 0051ec30 f Path.obj
 0001:0011dc40       ?start@Path@@QBEABUWaypoint@@XZ 0051ec40 f Path.obj
 0001:0011dc50       ?goal@Path@@QBEABUWaypoint@@XZ 0051ec50 f Path.obj
 0001:0011dc60       ?waypoint@Path@@QBEPBUWaypoint@@H@Z 0051ec60 f Path.obj
 0001:0011dc90       ?currentWaypoint@Path@@QBEPAUWaypoint@@XZ 0051ec90 f Path.obj
 0001:0011dcc0       ?currentWaypointNumber@Path@@QBE?BHXZ 0051ecc0 f Path.obj
 0001:0011dcd0       ?nextWaypoint@Path@@QBEPBUWaypoint@@XZ 0051ecd0 f Path.obj
 0001:0011dd00       ?previousWaypoint@Path@@QBEPBUWaypoint@@XZ 0051ed00 f Path.obj
 0001:0011dd30       ?firstWaypoint@Path@@QBEPBUWaypoint@@XZ 0051ed30 f Path.obj
 0001:0011dd50       ?lastWaypoint@Path@@QBEPBUWaypoint@@XZ 0051ed50 f Path.obj
 0001:0011dd70       ?initToStart@Path@@QAEXXZ  0051ed70 f Path.obj
 0001:0011dd80       ?initToEnd@Path@@QAEXXZ    0051ed80 f Path.obj
 0001:0011dd90       ?moveToNextWaypoint@Path@@QAEHXZ 0051ed90 f Path.obj
 0001:0011ddb0       ?moveToLastWaypoint@Path@@QAEHXZ 0051edb0 f Path.obj
 0001:0011ddd0       ?findPath@Path@@QAE?AW4PathResult@1@ABUWaypoint@@0HHHHHHPAVRGE_Map@@PAVRGE_Moving_Object@@HHMMMMMH@Z 0051edd0 f Path.obj
 0001:0011f690       ?findInfluencePath@Path@@QAE?AW4PathResult@1@ABUWaypoint@@0HHHHHHABVInfluenceMap@@PAVRGE_Moving_Object@@HHMMMMMH@Z 00520690 f Path.obj
 0001:001209d0       ?downHeapOpen@WorkingPaths@@QAEXHPAVRGE_Moving_Object@@@Z 005219d0 f Path.obj
 0001:00120a90       ?overallQuality@Path@@QAE?BMPAVRGE_Map@@@Z 00521a90 f Path.obj
 0001:00120aa0       ?appearanceQuality@Path@@QAE?BMPAVRGE_Map@@@Z 00521aa0 f Path.obj
 0001:00120ab0       ?mirror@Path@@QAE?BHPAVRGE_Map@@@Z 00521ab0 f Path.obj
 0001:00120ac0       ?refine@Path@@QAE?BHPAVRGE_Map@@@Z 00521ac0 f Path.obj
 0001:00120ad0       ?LoadFromDatabase@ControlerOfLandscape@@UAEXPAD@Z 00521ad0 f map_disk.obj
 0001:001211d5       ?SaveToBinaryFile@ControlerOfLandscape@@UAEXH@Z 005221d5 f map_disk.obj
 0001:00121249       ?LoadFromBinaryFile@ControlerOfLandscape@@UAEXH@Z 00522249 f map_disk.obj
 0001:001214d0       ??0RGE_Master_Player@@QAE@PAU_iobuf@@@Z 005224d0 f mst_play.obj
 0001:001215ea       ??0RGE_Master_Player@@QAE@H@Z 005225ea f mst_play.obj
 0001:001216b6       ??1RGE_Master_Player@@UAE@XZ 005226b6 f mst_play.obj
 0001:001217ce       ?finish_init@RGE_Master_Player@@UAEXHPAPAVRGE_Sprite@@PAPAVRGE_Sound@@@Z 005227ce f mst_play.obj
 0001:001218bb       ?load_master_object@RGE_Master_Player@@UAEXHEPAPAVRGE_Sprite@@PAPAVRGE_Sound@@F@Z 005228bb f mst_play.obj
 0001:00121bfc       ?create_master_object_space@RGE_Master_Player@@UAEXF@Z 00522bfc f mst_play.obj
 0001:00121c46       ?load_object@RGE_Master_Player@@UAEXPAU_iobuf@@EPAPAVRGE_Sprite@@PAPAVRGE_Sound@@F@Z 00522c46 f mst_play.obj
 0001:00121f9f       ?save@RGE_Master_Player@@UAEXH@Z 00522f9f f mst_play.obj
 0001:001220f0       ??_GRGE_Master_Player@@UAEPAXI@Z 005230f0 f mst_play.obj
 0001:001220f0       ??_ERGE_Master_Player@@UAEPAXI@Z 005230f0 f mst_play.obj
 0001:00122130       ??0TribeJoinScreen@@QAE@XZ 00523130 f scr_cj.obj
 0001:00122c84       ??1TribeJoinScreen@@UAE@XZ 00523c84 f scr_cj.obj
 0001:00122eb5       ?handle_idle@TribeJoinScreen@@UAEJXZ 00523eb5 f scr_cj.obj
 0001:00122f88       ?fillList@TribeJoinScreen@@IAEXXZ 00523f88 f scr_cj.obj
 0001:0012316f       ?action@TribeJoinScreen@@UAEJPAVTPanel@@JKK@Z 0052416f f scr_cj.obj
 0001:001235a8       ??0TribeMPCreateDialog@@QAE@PAVTPanel@@@Z 005245a8 f scr_cj.obj
 0001:00123e9c       ??1TribeMPCreateDialog@@UAE@XZ 00524e9c f scr_cj.obj
 0001:00124022       ?action@TribeMPCreateDialog@@MAEJPAVTPanel@@JKK@Z 00525022 f scr_cj.obj
 0001:00124263       ?draw@TribeMPCreateDialog@@MAEXXZ 00525263 f scr_cj.obj
 0001:00124370       ??_GTribeJoinScreen@@UAEPAXI@Z 00525370 f scr_cj.obj
 0001:00124370       ??_ETribeJoinScreen@@UAEPAXI@Z 00525370 f scr_cj.obj
 0001:001243b0       ??_GTCommunications_Sessions@@QAEPAXI@Z 005253b0 f scr_cj.obj
 0001:001243f0       ??_GTribeMPCreateDialog@@UAEPAXI@Z 005253f0 f scr_cj.obj
 0001:001243f0       ??_ETribeMPCreateDialog@@UAEPAXI@Z 005253f0 f scr_cj.obj
 0001:00124430       ??0RGE_Effects@@QAE@H@Z    00525430 f effects.obj
 0001:001245e0       ??0RGE_Effects@@QAE@PAD@Z  005255e0 f effects.obj
 0001:00124864       ??1RGE_Effects@@UAE@XZ     00525864 f effects.obj
 0001:00124933       ?save@RGE_Effects@@UAEXH@Z 00525933 f effects.obj
 0001:00124a64       ?do_effect@RGE_Effects@@UAEXFPAVRGE_Player@@@Z 00525a64 f effects.obj
 0001:00124cc0       ??_GRGE_Effects@@UAEPAXI@Z 00525cc0 f effects.obj
 0001:00124cc0       ??_ERGE_Effects@@UAEPAXI@Z 00525cc0 f effects.obj
 0001:00124d00       ??0RGE_Master_Static_Object@@QAE@PAV0@H@Z 00525d00 f m_s_obj.obj
 0001:00124d3a       ??0RGE_Master_Static_Object@@QAE@HPAPAVRGE_Sprite@@PAPAVRGE_Sound@@H@Z 00525d3a f m_s_obj.obj
 0001:00124d7c       ??0RGE_Master_Static_Object@@QAE@PAU_iobuf@@PAPAVRGE_Sprite@@PAPAVRGE_Sound@@FH@Z 00525d7c f m_s_obj.obj
 0001:00124dc2       ?setup@RGE_Master_Static_Object@@IAEHPAV1@@Z 00525dc2 f m_s_obj.obj
 0001:001251b6       ?setup@RGE_Master_Static_Object@@IAEHHPAPAVRGE_Sprite@@PAPAVRGE_Sound@@@Z 005261b6 f m_s_obj.obj
 0001:00125860       ?setup@RGE_Master_Static_Object@@IAEHPAU_iobuf@@PAPAVRGE_Sprite@@PAPAVRGE_Sound@@F@Z 00526860 f m_s_obj.obj
 0001:00125eb4       ??1RGE_Master_Static_Object@@UAE@XZ 00526eb4 f m_s_obj.obj
 0001:00125f28       ?make_new_obj@RGE_Master_Static_Object@@UAEPAVRGE_Static_Object@@PAVRGE_Player@@MMM@Z 00526f28 f m_s_obj.obj
 0001:00125fd4       ?make_new_master@RGE_Master_Static_Object@@UAEPAV1@XZ 00526fd4 f m_s_obj.obj
 0001:0012606e       ?copy_obj@RGE_Master_Static_Object@@UAEXPAV1@@Z 0052706e f m_s_obj.obj
 0001:001261ee       ?modify@RGE_Master_Static_Object@@UAEXME@Z 005271ee f m_s_obj.obj
 0001:001262c4       ?modify_delta@RGE_Master_Static_Object@@UAEXME@Z 005272c4 f m_s_obj.obj
 0001:001263d2       ?modify_percent@RGE_Master_Static_Object@@UAEXME@Z 005273d2 f m_s_obj.obj
 0001:001264e2       ?save@RGE_Master_Static_Object@@UAEXH@Z 005274e2 f m_s_obj.obj
 0001:00126afe       ?check_placement@RGE_Master_Static_Object@@UAEEPAVRGE_Player@@MMEEEEE@Z 00527afe f m_s_obj.obj
 0001:00127496       ?check_placement@RGE_Master_Static_Object@@UAEEPAVRGE_Player@@MMPAHHEHHH@Z 00528496 f m_s_obj.obj
 0001:00127d10       ?make_available@RGE_Master_Static_Object@@QAEXE@Z 00528d10 f m_s_obj.obj
 0001:00127d31       ?alignment@RGE_Master_Static_Object@@UAEEAAM0PAVRGE_Game_World@@E@Z 00528d31 f m_s_obj.obj
 0001:00128048       ?alignment_box@RGE_Master_Static_Object@@QAEEPAVRGE_Game_World@@MMAAF1111111@Z 00529048 f m_s_obj.obj
 0001:0012820e       ?draw@RGE_Master_Static_Object@@UAEXPAVTDrawArea@@FFPAVRGE_Color_Table@@JJ@Z 0052920e f m_s_obj.obj
 0001:00128260       ??_ERGE_Master_Static_Object@@UAEPAXI@Z 00529260 f m_s_obj.obj
 0001:00128260       ??_GRGE_Master_Static_Object@@UAEPAXI@Z 00529260 f m_s_obj.obj
 0001:001282a0       ??4RGE_Master_Static_Object@@QAEAAV0@ABV0@@Z 005292a0 f m_s_obj.obj
 0001:00128600       ??0TechnologyItem@@QAE@XZ  00529600 f aitchitm.obj
 0001:00128672       ??0TechnologyItem@@QAE@HPADVResourceItem@@@Z 00529672 f aitchitm.obj
 0001:00128774       ??0TechnologyItem@@QAE@ABV0@@Z 00529774 f aitchitm.obj
 0001:00128869       ??1TechnologyItem@@UAE@XZ  00529869 f aitchitm.obj
 0001:001288bf       ??8@YAHABVTechnologyItem@@0@Z 005298bf f aitchitm.obj
 0001:001288ed       ??9@YAHABVTechnologyItem@@0@Z 005298ed f aitchitm.obj
 0001:0012891b       ??M@YAHABVTechnologyItem@@0@Z 0052991b f aitchitm.obj
 0001:00128949       ??O@YAHABVTechnologyItem@@0@Z 00529949 f aitchitm.obj
 0001:00128977       ?id@TechnologyItem@@QBEHXZ 00529977 f aitchitm.obj
 0001:00128993       ?name@TechnologyItem@@QAEPADXZ 00529993 f aitchitm.obj
 0001:001289af       ?resourceCost@TechnologyItem@@QAEPAVResourceItem@@XZ 005299af f aitchitm.obj
 0001:001289d0       ??_ETechnologyItem@@UAEPAXI@Z 005299d0 f aitchitm.obj
 0001:001289d0       ??_GTechnologyItem@@UAEPAXI@Z 005299d0 f aitchitm.obj
 0001:00128a10       ??0RGE_Campaign@@QAE@PAD@Z 00529a10 f campaign.obj
 0001:00128b36       ??0RGE_Campaign@@QAE@PAD0JPAPAD1@Z 00529b36 f campaign.obj
 0001:00128c57       ??1RGE_Campaign@@QAE@XZ    00529c57 f campaign.obj
 0001:00128c9c       ?create_file@RGE_Campaign@@QAEXXZ 00529c9c f campaign.obj
 0001:00128f78       ?open_scenario@RGE_Campaign@@QAEHJ@Z 00529f78 f campaign.obj
 0001:00129025       ?get_name@RGE_Campaign@@QAEPADXZ 0052a025 f campaign.obj
 0001:00129041       ?scenario_number@RGE_Campaign@@QAEJXZ 0052a041 f campaign.obj
 0001:00129060       ?scenario_info@RGE_Campaign@@QAEJPAPAPAD@Z 0052a060 f campaign.obj
 0001:001290ee       ?get_scenario_name@RGE_Campaign@@QAEPADJ@Z 0052a0ee f campaign.obj
 0001:00129120       ??0TribeHuntedAnimalUnitAIModule@@QAE@PAVRGE_Static_Object@@H@Z 0052a120 f taiuaimd.obj
 0001:00129276       ??1TribeHuntedAnimalUnitAIModule@@UAE@XZ 0052a276 f taiuaimd.obj
 0001:001292de       ?processNotify@TribeHuntedAnimalUnitAIModule@@MAEHPAUNotifyEvent@@K@Z 0052a2de f taiuaimd.obj
 0001:0012938f       ?processIdle@TribeHuntedAnimalUnitAIModule@@MAEHXZ 0052a38f f taiuaimd.obj
 0001:001294be       ??0TribePreditorUnitAIModule@@QAE@PAVRGE_Static_Object@@H@Z 0052a4be f taiuaimd.obj
 0001:00129567       ??1TribePreditorUnitAIModule@@UAE@XZ 0052a567 f taiuaimd.obj
 0001:001295cf       ?processNotify@TribePreditorUnitAIModule@@MAEHPAUNotifyEvent@@K@Z 0052a5cf f taiuaimd.obj
 0001:001296ac       ?processIdle@TribePreditorUnitAIModule@@MAEHXZ 0052a6ac f taiuaimd.obj
 0001:001296ca       ??0TribeElephantUnitAIModule@@QAE@PAVRGE_Static_Object@@H@Z 0052a6ca f taiuaimd.obj
 0001:00129753       ?processNotify@TribeElephantUnitAIModule@@MAEHPAUNotifyEvent@@K@Z 0052a753 f taiuaimd.obj
 0001:00129815       ??0TribeLionUnitAIModule@@QAE@PAVRGE_Static_Object@@H@Z 0052a815 f taiuaimd.obj
 0001:001298bb       ?processNotify@TribeLionUnitAIModule@@MAEHPAUNotifyEvent@@K@Z 0052a8bb f taiuaimd.obj
 0001:001299da       ?processIdle@TribeLionUnitAIModule@@MAEHXZ 0052a9da f taiuaimd.obj
 0001:00129a51       ??0TribeRangedUnitAIModule@@QAE@PAVRGE_Static_Object@@H@Z 0052aa51 f taiuaimd.obj
 0001:00129aca       ??1TribeRangedUnitAIModule@@UAE@XZ 0052aaca f taiuaimd.obj
 0001:00129b32       ?bestUnitToAttack@TribeRangedUnitAIModule@@UAEHPAM@Z 0052ab32 f taiuaimd.obj
 0001:00129b56       ?processOrder@TribeRangedUnitAIModule@@MAEHPAUOrderEvent@@H@Z 0052ab56 f taiuaimd.obj
 0001:00129b7e       ?processNotify@TribeRangedUnitAIModule@@MAEHPAUNotifyEvent@@K@Z 0052ab7e f taiuaimd.obj
 0001:00129d3d       ?processIdle@TribeRangedUnitAIModule@@MAEHXZ 0052ad3d f taiuaimd.obj
 0001:00129d5b       ??0TribeRangedUnitAIModule2@@QAE@PAVRGE_Static_Object@@H@Z 0052ad5b f taiuaimd.obj
 0001:00129dd4       ??1TribeRangedUnitAIModule2@@UAE@XZ 0052add4 f taiuaimd.obj
 0001:00129e3c       ?bestUnitToAttack@TribeRangedUnitAIModule2@@UAEHPAM@Z 0052ae3c f taiuaimd.obj
 0001:00129e60       ?processOrder@TribeRangedUnitAIModule2@@MAEHPAUOrderEvent@@H@Z 0052ae60 f taiuaimd.obj
 0001:00129e88       ?processNotify@TribeRangedUnitAIModule2@@MAEHPAUNotifyEvent@@K@Z 0052ae88 f taiuaimd.obj
 0001:0012a103       ?processIdle@TribeRangedUnitAIModule2@@MAEHXZ 0052b103 f taiuaimd.obj
 0001:0012a121       ??0TribeCivilianUnitAIModule@@QAE@PAVRGE_Static_Object@@H@Z 0052b121 f taiuaimd.obj
 0001:0012a247       ??1TribeCivilianUnitAIModule@@UAE@XZ 0052b247 f taiuaimd.obj
 0001:0012a2af       ?importantWhenDead@TribeCivilianUnitAIModule@@UAEHH@Z 0052b2af f taiuaimd.obj
 0001:0012a30f       ?attackObject@TribeCivilianUnitAIModule@@UAEHHH@Z 0052b30f f taiuaimd.obj
 0001:0012a39a       ?retryableOrder@TribeCivilianUnitAIModule@@UAEHH@Z 0052b39a f taiuaimd.obj
 0001:0012a3e5       ?processNotify@TribeCivilianUnitAIModule@@MAEHPAUNotifyEvent@@K@Z 0052b3e5 f taiuaimd.obj
 0001:0012a918       ?processIdle@TribeCivilianUnitAIModule@@MAEHXZ 0052b918 f taiuaimd.obj
 0001:0012a933       ??0TribePriestUnitAIModule@@QAE@PAVRGE_Static_Object@@H@Z 0052b933 f taiuaimd.obj
 0001:0012aa69       ??1TribePriestUnitAIModule@@UAE@XZ 0052ba69 f taiuaimd.obj
 0001:0012aad1       ?attackObject@TribePriestUnitAIModule@@UAEHHH@Z 0052bad1 f taiuaimd.obj
 0001:0012ab17       ?retryableOrder@TribePriestUnitAIModule@@UAEHH@Z 0052bb17 f taiuaimd.obj
 0001:0012ab55       ?canConvert@TribePriestUnitAIModule@@QAEHH@Z 0052bb55 f taiuaimd.obj
 0001:0012ac1c       ?bestUnitToHeal@TribePriestUnitAIModule@@MAEHPAM@Z 0052bc1c f taiuaimd.obj
 0001:0012adae       ?processNotify@TribePriestUnitAIModule@@MAEHPAUNotifyEvent@@K@Z 0052bdae f taiuaimd.obj
 0001:0012af38       ?processIdle@TribePriestUnitAIModule@@MAEHXZ 0052bf38 f taiuaimd.obj
 0001:0012b019       ??0TribeTradeShipUnitAIModule@@QAE@PAVRGE_Static_Object@@H@Z 0052c019 f taiuaimd.obj
 0001:0012b0ff       ??1TribeTradeShipUnitAIModule@@UAE@XZ 0052c0ff f taiuaimd.obj
 0001:0012b167       ?processNotify@TribeTradeShipUnitAIModule@@MAEHPAUNotifyEvent@@K@Z 0052c167 f taiuaimd.obj
 0001:0012b47e       ?processIdle@TribeTradeShipUnitAIModule@@MAEHXZ 0052c47e f taiuaimd.obj
 0001:0012b521       ??0TribeTransportShipUnitAIModule@@QAE@PAVRGE_Static_Object@@H@Z 0052c521 f taiuaimd.obj
 0001:0012b607       ??1TribeTransportShipUnitAIModule@@UAE@XZ 0052c607 f taiuaimd.obj
 0001:0012b66f       ?processNotify@TribeTransportShipUnitAIModule@@MAEHPAUNotifyEvent@@K@Z 0052c66f f taiuaimd.obj
 0001:0012b801       ?processIdle@TribeTransportShipUnitAIModule@@MAEHXZ 0052c801 f taiuaimd.obj
 0001:0012b81c       ??0TribeComputerSoldierUnitAIModule@@QAE@PAVRGE_Static_Object@@H@Z 0052c81c f taiuaimd.obj
 0001:0012b8aa       ??1TribeComputerSoldierUnitAIModule@@UAE@XZ 0052c8aa f taiuaimd.obj
 0001:0012b912       ?processNotify@TribeComputerSoldierUnitAIModule@@MAEHPAUNotifyEvent@@K@Z 0052c912 f taiuaimd.obj
 0001:0012b93a       ?processIdle@TribeComputerSoldierUnitAIModule@@MAEHXZ 0052c93a f taiuaimd.obj
 0001:0012b958       ??0TribeArtifactUnitAIModule@@QAE@PAVRGE_Static_Object@@H@Z 0052c958 f taiuaimd.obj
 0001:0012bafe       ??1TribeArtifactUnitAIModule@@UAE@XZ 0052cafe f taiuaimd.obj
 0001:0012bb66       ?processNotify@TribeArtifactUnitAIModule@@MAEHPAUNotifyEvent@@K@Z 0052cb66 f taiuaimd.obj
 0001:0012bb83       ?processIdle@TribeArtifactUnitAIModule@@MAEHXZ 0052cb83 f taiuaimd.obj
 0001:0012bc25       ??0TribeTowerUnitAIModule@@QAE@PAVRGE_Static_Object@@H@Z 0052cc25 f taiuaimd.obj
 0001:0012bdcb       ??1TribeTowerUnitAIModule@@UAE@XZ 0052cdcb f taiuaimd.obj
 0001:0012be33       ?canAttackUnit@TribeTowerUnitAIModule@@UAEHH@Z 0052ce33 f taiuaimd.obj
 0001:0012beb0       ??_ETribeHuntedAnimalUnitAIModule@@UAEPAXI@Z 0052ceb0 f taiuaimd.obj
 0001:0012beb0       ??_GTribeHuntedAnimalUnitAIModule@@UAEPAXI@Z 0052ceb0 f taiuaimd.obj
 0001:0012bef0       ??_ETribePreditorUnitAIModule@@UAEPAXI@Z 0052cef0 f taiuaimd.obj
 0001:0012bef0       ??_GTribePreditorUnitAIModule@@UAEPAXI@Z 0052cef0 f taiuaimd.obj
 0001:0012bf30       ??_GTribeElephantUnitAIModule@@UAEPAXI@Z 0052cf30 f taiuaimd.obj
 0001:0012bf30       ??_ETribeElephantUnitAIModule@@UAEPAXI@Z 0052cf30 f taiuaimd.obj
 0001:0012bf70       ??1TribeElephantUnitAIModule@@UAE@XZ 0052cf70 f taiuaimd.obj
 0001:0012bfd0       ??_ETribeLionUnitAIModule@@UAEPAXI@Z 0052cfd0 f taiuaimd.obj
 0001:0012bfd0       ??_GTribeLionUnitAIModule@@UAEPAXI@Z 0052cfd0 f taiuaimd.obj
 0001:0012c010       ??1TribeLionUnitAIModule@@UAE@XZ 0052d010 f taiuaimd.obj
 0001:0012c070       ??_GTribeRangedUnitAIModule@@UAEPAXI@Z 0052d070 f taiuaimd.obj
 0001:0012c070       ??_ETribeRangedUnitAIModule@@UAEPAXI@Z 0052d070 f taiuaimd.obj
 0001:0012c0b0       ??_GTribeRangedUnitAIModule2@@UAEPAXI@Z 0052d0b0 f taiuaimd.obj
 0001:0012c0b0       ??_ETribeRangedUnitAIModule2@@UAEPAXI@Z 0052d0b0 f taiuaimd.obj
 0001:0012c0f0       ??_GTribeCivilianUnitAIModule@@UAEPAXI@Z 0052d0f0 f taiuaimd.obj
 0001:0012c0f0       ??_ETribeCivilianUnitAIModule@@UAEPAXI@Z 0052d0f0 f taiuaimd.obj
 0001:0012c130       ??_ETribePriestUnitAIModule@@UAEPAXI@Z 0052d130 f taiuaimd.obj
 0001:0012c130       ??_GTribePriestUnitAIModule@@UAEPAXI@Z 0052d130 f taiuaimd.obj
 0001:0012c170       ??_ETribeTradeShipUnitAIModule@@UAEPAXI@Z 0052d170 f taiuaimd.obj
 0001:0012c170       ??_GTribeTradeShipUnitAIModule@@UAEPAXI@Z 0052d170 f taiuaimd.obj
 0001:0012c1b0       ??_GTribeTransportShipUnitAIModule@@UAEPAXI@Z 0052d1b0 f taiuaimd.obj
 0001:0012c1b0       ??_ETribeTransportShipUnitAIModule@@UAEPAXI@Z 0052d1b0 f taiuaimd.obj
 0001:0012c1f0       ??_GTribeComputerSoldierUnitAIModule@@UAEPAXI@Z 0052d1f0 f taiuaimd.obj
 0001:0012c1f0       ??_ETribeComputerSoldierUnitAIModule@@UAEPAXI@Z 0052d1f0 f taiuaimd.obj
 0001:0012c230       ??_ETribeArtifactUnitAIModule@@UAEPAXI@Z 0052d230 f taiuaimd.obj
 0001:0012c230       ??_GTribeArtifactUnitAIModule@@UAEPAXI@Z 0052d230 f taiuaimd.obj
 0001:0012c270       ??_GTribeTowerUnitAIModule@@UAEPAXI@Z 0052d270 f taiuaimd.obj
 0001:0012c270       ??_ETribeTowerUnitAIModule@@UAEPAXI@Z 0052d270 f taiuaimd.obj
 0001:0012c2b0       ??0RGE_Action_List@@QAE@PAVRGE_Action_Object@@@Z 0052d2b0 f act_list.obj
 0001:0012c2e7       ??1RGE_Action_List@@QAE@XZ 0052d2e7 f act_list.obj
 0001:0012c30e       ?load@RGE_Action_List@@QAEXH@Z 0052d30e f act_list.obj
 0001:0012c3c7       ?rehook@RGE_Action_List@@QAEXXZ 0052d3c7 f act_list.obj
 0001:0012c40d       ?save@RGE_Action_List@@QAEXH@Z 0052d40d f act_list.obj
 0001:0012c471       ?delete_list@RGE_Action_List@@QAEXXZ 0052d471 f act_list.obj
 0001:0012c4a1       ?create_action@RGE_Action_List@@UAEPAVRGE_Action@@HF@Z 0052d4a1 f act_list.obj
 0001:0012c8e4       ?create_task_action@RGE_Action_List@@UAEPAVRGE_Action@@PAVRGE_Task@@PAVRGE_Static_Object@@MMM@Z 0052d8e4 f act_list.obj
 0001:0012cef0       ?inside_obj_update@RGE_Action_List@@UAEEXZ 0052def0 f act_list.obj
 0001:0012cf83       ?update@RGE_Action_List@@UAEEXZ 0052df83 f act_list.obj
 0001:0012d02b       ?add_action@RGE_Action_List@@QAEXPAVRGE_Action@@@Z 0052e02b f act_list.obj
 0001:0012d0bc       ?add_action_at_end@RGE_Action_List@@QAEXPAVRGE_Action@@@Z 0052e0bc f act_list.obj
 0001:0012d19e       ?add_action_at_end_of_action_queue@RGE_Action_List@@QAEXPAVRGE_Action@@@Z 0052e19e f act_list.obj
 0001:0012d2ea       ?remove_action@RGE_Action_List@@QAEXXZ 0052e2ea f act_list.obj
 0001:0012d38f       ?have_action@RGE_Action_List@@QAEEXZ 0052e38f f act_list.obj
 0001:0012d3c0       ?action_stop@RGE_Action_List@@QAEHXZ 0052e3c0 f act_list.obj
 0001:0012d404       ?action_move_to@RGE_Action_List@@QAEHPAVRGE_Static_Object@@MMM@Z 0052e404 f act_list.obj
 0001:0012d45a       ?action_work@RGE_Action_List@@QAEHPAVRGE_Static_Object@@MMM@Z 0052e45a f act_list.obj
 0001:0012d4b0       ?attack_response@RGE_Action_List@@QAEHPAVRGE_Static_Object@@@Z 0052e4b0 f act_list.obj
 0001:0012d500       ?relation_response@RGE_Action_List@@QAEHJE@Z 0052e500 f act_list.obj
 0001:0012d554       ?get_action@RGE_Action_List@@QAEPAVRGE_Action@@XZ 0052e554 f act_list.obj
 0001:0012d58b       ?get_task@RGE_Action_List@@QAEPAVRGE_Task@@XZ 0052e58b f act_list.obj
 0001:0012d5c7       ?copy_obj@RGE_Action_List@@UAEXPAVRGE_Master_Action_Object@@@Z 0052e5c7 f act_list.obj
 0001:0012d618       ?copy_obj_sprites@RGE_Action_List@@UAEXPAVRGE_Master_Action_Object@@PAVRGE_Task@@1@Z 0052e618 f act_list.obj
 0001:0012d671       ?get_action_name@RGE_Action_List@@UAEXPAD@Z 0052e671 f act_list.obj
 0001:0012d820       ?get_task@RGE_Action@@QAEPAVRGE_Task@@XZ 0052e820 f act_list.obj
 0001:0012d840       ??0DiplomacyAIModule@@QAE@PAXH@Z 0052e840 f aidipmod.obj
 0001:0012d91e       ??1DiplomacyAIModule@@UAE@XZ 0052e91e f aidipmod.obj
 0001:0012d986       ?setMainDecisionAI@DiplomacyAIModule@@QAEXPAVMainDecisionAIModule@@@Z 0052e986 f aidipmod.obj
 0001:0012d9aa       ?update@DiplomacyAIModule@@UAEHH@Z 0052e9aa f aidipmod.obj
 0001:0012daf8       ?stance@DiplomacyAIModule@@QBEHHH@Z 0052eaf8 f aidipmod.obj
 0001:0012dc14       ?changeStance@DiplomacyAIModule@@QAEXHHH@Z 0052ec14 f aidipmod.obj
 0001:0012dd76       ?isDisliked@DiplomacyAIModule@@QBEHH@Z 0052ed76 f aidipmod.obj
 0001:0012ddd7       ?isAmbivalent@DiplomacyAIModule@@QBEHH@Z 0052edd7 f aidipmod.obj
 0001:0012de23       ?isLiked@DiplomacyAIModule@@QBEHH@Z 0052ee23 f aidipmod.obj
 0001:0012de84       ?isChangeable@DiplomacyAIModule@@QBEHH@Z 0052ee84 f aidipmod.obj
 0001:0012dee9       ?setChangeable@DiplomacyAIModule@@QAEXHE@Z 0052eee9 f aidipmod.obj
 0001:0012df3a       ?mostHated@DiplomacyAIModule@@QBEHXZ 0052ef3a f aidipmod.obj
 0001:0012dfe1       ?mostLiked@DiplomacyAIModule@@QBEHXZ 0052efe1 f aidipmod.obj
 0001:0012e088       ?isEnemy@DiplomacyAIModule@@QBEHH@Z 0052f088 f aidipmod.obj
 0001:0012e0c7       ?isNeutral@DiplomacyAIModule@@QBEHH@Z 0052f0c7 f aidipmod.obj
 0001:0012e106       ?isAlly@DiplomacyAIModule@@QBEHH@Z 0052f106 f aidipmod.obj
 0001:0012e145       ?isAlliedWithMe@DiplomacyAIModule@@QBEHH@Z 0052f145 f aidipmod.obj
 0001:0012e1e8       ?setRelation@DiplomacyAIModule@@QAEXHH@Z 0052f1e8 f aidipmod.obj
 0001:0012e280       ??_EDiplomacyAIModule@@UAEPAXI@Z 0052f280 f aidipmod.obj
 0001:0012e280       ??_GDiplomacyAIModule@@UAEPAXI@Z 0052f280 f aidipmod.obj
 0001:0012e2c0       ??0RGE_Action_Enter@@QAE@HPAVRGE_Action_Object@@@Z 0052f2c0 f act_entr.obj
 0001:0012e344       ??0RGE_Action_Enter@@QAE@PAVRGE_Action_Object@@PAVRGE_Task@@PAVRGE_Static_Object@@@Z 0052f344 f act_entr.obj
 0001:0012e407       ?first_in_stack@RGE_Action_Enter@@UAEXE@Z 0052f407 f act_entr.obj
 0001:0012e42c       ?set_state@RGE_Action_Enter@@MAEXE@Z 0052f42c f act_entr.obj
 0001:0012e5c8       ?update@RGE_Action_Enter@@UAEEXZ 0052f5c8 f act_entr.obj
 0001:0012e7e0       ??_GRGE_Action_Enter@@UAEPAXI@Z 0052f7e0 f act_entr.obj
 0001:0012e7e0       ??_ERGE_Action_Enter@@UAEPAXI@Z 0052f7e0 f act_entr.obj
 0001:0012e820       ??1RGE_Action_Enter@@UAE@XZ 0052f820 f act_entr.obj
 0001:0012e880       ??0TMusic_System@@QAE@EPAXPAVTSound_Driver@@@Z 0052f880 f music.obj
 0001:0012e9bc       ??1TMusic_System@@QAE@XZ   0052f9bc f music.obj
 0001:0012e9da       ?open_device@TMusic_System@@QAEHXZ 0052f9da f music.obj
 0001:0012ec25       ?close_device@TMusic_System@@QAEXXZ 0052fc25 f music.obj
 0001:0012ecf4       ?open_mixer@TMusic_System@@IAEHXZ 0052fcf4 f music.obj
 0001:0012ef3b       ?close_mixer@TMusic_System@@IAEXXZ 0052ff3b f music.obj
 0001:0012efa0       ?set_music_type@TMusic_System@@QAEHE@Z 0052ffa0 f music.obj
 0001:0012efef       ?set_fade_out@TMusic_System@@QAEXHK@Z 0052ffef f music.obj
 0001:0012f01f       ?set_volume@TMusic_System@@QAEXJH@Z 0053001f f music.obj
 0001:0012f149       ?play_track@TMusic_System@@QAEHHH@Z 00530149 f music.obj
 0001:0012f1f1       ?play_file@TMusic_System@@QAEHPADH@Z 005301f1 f music.obj
 0001:0012f2b3       ?play_tracks@TMusic_System@@QAEHHHH@Z 005302b3 f music.obj
 0001:0012f3f5       ?play@TMusic_System@@IAEHHHPAD@Z 005303f5 f music.obj
 0001:0012f6d5       ?pause_play@TMusic_System@@QAEHXZ 005306d5 f music.obj
 0001:0012f7f3       ?resume_play@TMusic_System@@QAEHXZ 005307f3 f music.obj
 0001:0012f90d       ?stop_track@TMusic_System@@QAEHXZ 0053090d f music.obj
 0001:0012f966       ?stop_playing@TMusic_System@@IAEHXZ 00530966 f music.obj
 0001:0012fa3a       ?fade_track@TMusic_System@@QAEHXZ 00530a3a f music.obj
 0001:0012fab2       ?start_fade@TMusic_System@@IAEXXZ 00530ab2 f music.obj
 0001:0012fb06       ?do_fade@TMusic_System@@IAEXXZ 00530b06 f music.obj
 0001:0012fc3b       ?end_fade@TMusic_System@@IAEXXZ 00530c3b f music.obj
 0001:0012fcc4       ?handle_messages@TMusic_System@@QAEIPAXIIJ@Z 00530cc4 f music.obj
 0001:0012fe65       ?after_end_track@TMusic_System@@IAEXXZ 00530e65 f music.obj
 0001:0012ffb0       ??0TListPanel@@QAE@XZ      00530fb0 f Pnl_lst.obj
 0001:0013008b       ??1TListPanel@@UAE@XZ      0053108b f Pnl_lst.obj
 0001:001300f3       ?set_auto_track@TListPanel@@QAEXH@Z 005310f3 f Pnl_lst.obj
 0001:00130117       ?handle_idle@TListPanel@@UAEJXZ 00531117 f Pnl_lst.obj
 0001:0013022c       ?mouse_move_action@TListPanel@@UAEJJJHH@Z 0053122c f Pnl_lst.obj
 0001:001302cf       ?mouse_left_down_action@TListPanel@@UAEJJJHH@Z 005312cf f Pnl_lst.obj
 0001:00130304       ?mouse_left_move_action@TListPanel@@UAEJJJHH@Z 00531304 f Pnl_lst.obj
 0001:00130441       ?mouse_left_up_action@TListPanel@@UAEJJJHH@Z 00531441 f Pnl_lst.obj
 0001:001304e3       ?mouse_left_dbl_click_action@TListPanel@@UAEJJJHH@Z 005314e3 f Pnl_lst.obj
 0001:00130573       ?item_at@TListPanel@@QAEFJJ@Z 00531573 f Pnl_lst.obj
 0001:001305ad       ?goto_item@TListPanel@@QAEXJJ@Z 005315ad f Pnl_lst.obj
 0001:001305e2       ?key_down_action@TListPanel@@UAEJJFHHH@Z 005315e2 f Pnl_lst.obj
 0001:00130765       ?char_action@TListPanel@@UAEJJF@Z 00531765 f Pnl_lst.obj
 0001:00130899       ?action@TListPanel@@UAEJPAVTPanel@@JKK@Z 00531899 f Pnl_lst.obj
 0001:001308c9       ?scroll_cur_line@TListPanel@@QAEXEFH@Z 005318c9 f Pnl_lst.obj
 0001:00130d9e       ?draw@TListPanel@@UAEXXZ   00531d9e f Pnl_lst.obj
 0001:00131373       ?setDrawHighlightBar@TListPanel@@QAEXH@Z 00532373 f Pnl_lst.obj
 0001:001313a0       ??_GTListPanel@@UAEPAXI@Z  005323a0 f Pnl_lst.obj
 0001:001313a0       ??_ETListPanel@@UAEPAXI@Z  005323a0 f Pnl_lst.obj
 0001:001313da       _CreateSemaphoreA@16       005323da f kernel32:KERNEL32.dll
 0001:001313e0       _CreateMutexA@12           005323e0 f kernel32:KERNEL32.dll
 0001:001313e6       _CloseHandle@4             005323e6 f kernel32:KERNEL32.dll
 0001:001313ec       _ReleaseMutex@4            005323ec f kernel32:KERNEL32.dll
 0001:001313f2       _WaitForSingleObject@8     005323f2 f kernel32:KERNEL32.dll
 0001:001313f8       _ReleaseSemaphore@12       005323f8 f kernel32:KERNEL32.dll
 0001:001313fe       _GetCurrentDirectoryA@8    005323fe f kernel32:KERNEL32.dll
 0001:00131404       _LoadLibraryA@4            00532404 f kernel32:KERNEL32.dll
 0001:0013140a       _FreeLibrary@4             0053240a f kernel32:KERNEL32.dll
 0001:00131410       _MulDiv@12                 00532410 f kernel32:KERNEL32.dll
 0001:00131416       _GetLastError@0            00532416 f kernel32:KERNEL32.dll
 0001:0013141c       _lstrlenA@4                0053241c f kernel32:KERNEL32.dll
 0001:00131422       _OpenFile@12               00532422 f kernel32:KERNEL32.dll
 0001:00131428       _LockResource@4            00532428 f kernel32:KERNEL32.dll
 0001:0013142e       _LoadResource@8            0053242e f kernel32:KERNEL32.dll
 0001:00131434       _FindResourceA@12          00532434 f kernel32:KERNEL32.dll
 0001:0013143a       _LocalAlloc@8              0053243a f kernel32:KERNEL32.dll
 0001:00131440       _LocalFree@4               00532440 f kernel32:KERNEL32.dll
 0001:00131446       _GlobalFree@4              00532446 f kernel32:KERNEL32.dll
 0001:0013144c       _GlobalAlloc@8             0053244c f kernel32:KERNEL32.dll
 0001:00131452       _GlobalHandle@4            00532452 f kernel32:KERNEL32.dll
 0001:00131458       _GlobalUnlock@4            00532458 f kernel32:KERNEL32.dll
 0001:0013145e       _GlobalLock@4              0053245e f kernel32:KERNEL32.dll
 0001:00131464       _ReadFile@20               00532464 f kernel32:KERNEL32.dll
 0001:0013146a       _CreateFileA@28            0053246a f kernel32:KERNEL32.dll
 0001:00131470       _WinExec@8                 00532470 f kernel32:KERNEL32.dll
 0001:00131476       _MapViewOfFile@20          00532476 f kernel32:KERNEL32.dll
 0001:0013147c       _CreateFileMappingA@24     0053247c f kernel32:KERNEL32.dll
 0001:00131482       _UnmapViewOfFile@4         00532482 f kernel32:KERNEL32.dll
 0001:00131488       _OutputDebugStringA@4      00532488 f kernel32:KERNEL32.dll
 0001:0013148e       _GetTickCount@0            0053248e f kernel32:KERNEL32.dll
 0001:00131494       __lclose@4                 00532494 f kernel32:KERNEL32.dll
 0001:0013149a       __hread@12                 0053249a f kernel32:KERNEL32.dll
 0001:001314a0       _GlobalReAlloc@12          005324a0 f kernel32:KERNEL32.dll
 0001:001314a6       _GetModuleHandleA@4        005324a6 f kernel32:KERNEL32.dll
 0001:001314ac       __hwrite@12                005324ac f kernel32:KERNEL32.dll
 0001:001314b2       __lwrite@12                005324b2 f kernel32:KERNEL32.dll
 0001:001314b8       __llseek@12                005324b8 f kernel32:KERNEL32.dll
 0001:001314be       __lread@12                 005324be f kernel32:KERNEL32.dll
 0001:001314c4       _UpdateWindow@4            005324c4 f user32:USER32.dll
 0001:001314ca       _InvalidateRect@12         005324ca f user32:USER32.dll
 0001:001314d0       _ValidateRect@8            005324d0 f user32:USER32.dll
 0001:001314d6       _GetKeyState@4             005324d6 f user32:USER32.dll
 0001:001314dc       _ScreenToClient@8          005324dc f user32:USER32.dll
 0001:001314e2       _GetCursorPos@4            005324e2 f user32:USER32.dll
 0001:001314e8       _SetCapture@4              005324e8 f user32:USER32.dll
 0001:001314ee       _ReleaseCapture@0          005324ee f user32:USER32.dll
 0001:001314f4       _SetRect@20                005324f4 f user32:USER32.dll
 0001:001314fa       _MessageBoxA@16            005324fa f user32:USER32.dll
 0001:00131500       _LoadStringA@16            00532500 f user32:USER32.dll
 0001:00131506       _SetCursorPos@8            00532506 f user32:USER32.dll
 0001:0013150c       _ClientToScreen@8          0053250c f user32:USER32.dll
 0001:00131512       _SetTimer@16               00532512 f user32:USER32.dll
 0001:00131518       _SetFocus@4                00532518 f user32:USER32.dll
 0001:0013151e       _ShowWindow@8              0053251e f user32:USER32.dll
 0001:00131524       _DestroyWindow@4           00532524 f user32:USER32.dll
 0001:0013152a       _DispatchMessageA@4        0053252a f user32:USER32.dll
 0001:00131530       _TranslateMessage@4        00532530 f user32:USER32.dll
 0001:00131536       _PeekMessageA@20           00532536 f user32:USER32.dll
 0001:0013153c       _RegisterClassA@4          0053253c f user32:USER32.dll
 0001:00131542       _LoadIconA@8               00532542 f user32:USER32.dll
 0001:00131548       _LoadCursorA@8             00532548 f user32:USER32.dll
 0001:0013154e       _SetWindowPos@28           0053254e f user32:USER32.dll
 0001:00131554       _GetClientRect@8           00532554 f user32:USER32.dll
 0001:0013155a       _GetWindowRect@8           0053255a f user32:USER32.dll
 0001:00131560       _CreateWindowExA@48        00532560 f user32:USER32.dll
 0001:00131566       _SendMessageA@16           00532566 f user32:USER32.dll
 0001:0013156c       _BringWindowToTop@4        0053256c f user32:USER32.dll
 0001:00131572       _GetLastActivePopup@4      00532572 f user32:USER32.dll
 0001:00131578       _SetForegroundWindow@4     00532578 f user32:USER32.dll
 0001:0013157e       _IsIconic@4                0053257e f user32:USER32.dll
 0001:00131584       _FindWindowA@8             00532584 f user32:USER32.dll
 0001:0013158a       _GetUpdateRect@12          0053258a f user32:USER32.dll
 0001:00131590       _ReleaseDC@8               00532590 f user32:USER32.dll
 0001:00131596       _FillRect@12               00532596 f user32:USER32.dll
 0001:0013159c       _GetDC@4                   0053259c f user32:USER32.dll
 0001:001315a2       _DefWindowProcA@16         005325a2 f user32:USER32.dll
 0001:001315a8       _SetCursor@4               005325a8 f user32:USER32.dll
 0001:001315ae       _PostQuitMessage@4         005325ae f user32:USER32.dll
 0001:001315b4       _KillTimer@8               005325b4 f user32:USER32.dll
 0001:001315ba       _SetWindowTextA@8          005325ba f user32:USER32.dll
 0001:001315c0       _SetClassLongA@12          005325c0 f user32:USER32.dll
 0001:001315c6       _SetWindowLongA@12         005325c6 f user32:USER32.dll
 0001:001315cc       _GetWindowLongA@8          005325cc f user32:USER32.dll
 0001:001315d2       _GetWindowTextA@12         005325d2 f user32:USER32.dll
 0001:001315d8       _GetFocus@0                005325d8 f user32:USER32.dll
 0001:001315de       _MoveWindow@24             005325de f user32:USER32.dll
 0001:001315e4       _CallWindowProcA@20        005325e4 f user32:USER32.dll
 0001:001315ea       _MessageBeep@4             005325ea f user32:USER32.dll
 0001:001315f0       _wsprintfA                 005325f0 f user32:USER32.dll
 0001:001315f6       _PostMessageA@16           005325f6 f user32:USER32.dll
 0001:001315fc       _GetCaretBlinkTime@0       005325fc f user32:USER32.dll
 0001:00131602       _GetForegroundWindow@0     00532602 f user32:USER32.dll
 0001:00131608       _GetAsyncKeyState@4        00532608 f user32:USER32.dll
 0001:0013160e       _GetKeyboardState@4        0053260e f user32:USER32.dll
 0001:00131614       _GetActiveWindow@0         00532614 f user32:USER32.dll
 0001:0013161a       _DeleteObject@4            0053261a f gdi32:GDI32.dll
 0001:00131620       _CreateRectRgn@16          00532620 f gdi32:GDI32.dll
 0001:00131626       _SelectClipRgn@8           00532626 f gdi32:GDI32.dll
 0001:0013162c       _GetPaletteEntries@16      0053262c f gdi32:GDI32.dll
 0001:00131632       _SelectObject@8            00532632 f gdi32:GDI32.dll
 0001:00131638       _TextOutA@20               00532638 f gdi32:GDI32.dll
 0001:0013163e       _SetTextColor@8            0053263e f gdi32:GDI32.dll
 0001:00131644       _GetTextExtentPoint32A@16  00532644 f gdi32:GDI32.dll
 0001:0013164a       _SetBkMode@8               0053264a f gdi32:GDI32.dll
 0001:00131650       _GetStockObject@4          00532650 f gdi32:GDI32.dll
 0001:00131656       _CreatePen@12              00532656 f gdi32:GDI32.dll
 0001:0013165c       _LineTo@12                 0053265c f gdi32:GDI32.dll
 0001:00131662       _MoveToEx@16               00532662 f gdi32:GDI32.dll
 0001:00131668       _Polyline@12               00532668 f gdi32:GDI32.dll
 0001:0013166e       _DeleteDC@4                0053266e f gdi32:GDI32.dll
 0001:00131674       _GetDeviceCaps@8           00532674 f gdi32:GDI32.dll
 0001:0013167a       _CreateICA@16              0053267a f gdi32:GDI32.dll
 0001:00131680       _GetTextMetricsA@8         00532680 f gdi32:GDI32.dll
 0001:00131686       _CreateFontIndirectA@4     00532686 f gdi32:GDI32.dll
 0001:0013168c       _RealizePalette@4          0053268c f gdi32:GDI32.dll
 0001:00131692       _SelectPalette@12          00532692 f gdi32:GDI32.dll
 0001:00131698       _SetBkColor@8              00532698 f gdi32:GDI32.dll
 0001:0013169e       _SetPaletteEntries@16      0053269e f gdi32:GDI32.dll
 0001:001316a4       _CreateHalftonePalette@4   005326a4 f gdi32:GDI32.dll
 0001:001316aa       _CreatePalette@4           005326aa f gdi32:GDI32.dll
 0001:001316b0       _GetDIBits@28              005326b0 f gdi32:GDI32.dll
 0001:001316b6       _SetStretchBltMode@8       005326b6 f gdi32:GDI32.dll
 0001:001316bc       _CreateCompatibleDC@4      005326bc f gdi32:GDI32.dll
 0001:001316c2       _GetObjectA@12             005326c2 f gdi32:GDI32.dll
 0001:001316c8       _StretchDIBits@52          005326c8 f gdi32:GDI32.dll
 0001:001316ce       _GetNearestPaletteIndex@8  005326ce f gdi32:GDI32.dll
 0001:001316d4       _ResizePalette@8           005326d4 f gdi32:GDI32.dll
 0001:001316da       _GetSystemPaletteEntries@16 005326da f gdi32:GDI32.dll
 0001:001316e0       _SetSystemPaletteUse@8     005326e0 f gdi32:GDI32.dll
 0001:001316e6       _GetSystemPaletteUse@4     005326e6 f gdi32:GDI32.dll
 0001:001316ec       _RegCreateKeyExA@36        005326ec f advapi32:ADVAPI32.dll
 0001:001316f2       _RegCloseKey@4             005326f2 f advapi32:ADVAPI32.dll
 0001:001316f8       _RegSetValueExA@24         005326f8 f advapi32:ADVAPI32.dll
 0001:001316fe       _RegQueryValueExA@24       005326fe f advapi32:ADVAPI32.dll
 0001:00131704       _DirectPlayEnumerateA@8    00532704 f dplayx:DPLAYX.dll
 0001:0013170a       _DirectPlayCreate@12       0053270a f dplayx:DPLAYX.dll
 0001:00131710       _DirectPlayLobbyCreateA@20 00532710 f dplayx:DPLAYX.dll
 0001:00131716       _DirectSoundCreate@12      00532716 f dsound:DSOUND.dll
 0001:0013171c       _WinGBitBlt@32             0053271c   wing32:wing32.def
 0001:00131722       _WinGSetDIBColorTable@16   00532722   wing32:wing32.def
 0001:00131728       _WinGCreateDC@0            00532728   wing32:wing32.def
 0001:0013172e       _WinGRecommendDIBFormat@4  0053272e   wing32:wing32.def
 0001:00131734       _WinGCreateBitmap@12       00532734   wing32:wing32.def
 0001:0013173a       _DirectDrawCreate@12       0053273a f ddraw:DDRAW.dll
 0001:00131740       ?Compiled_Shape_Draw_13F@@YAXPAXPAPAXHHPAI2@Z 00532740 f scp_draw:Asmd_13f.obj
 0001:001329a0       ?Compiled_Shape_Draw_12F@@YAXPAXPAPAXHHPAI2@Z 005339a0 f scp_draw:Asmd_12f.obj
 0001:00133c60       ?Compiled_Shape_Draw_11F@@YAXPAXPAPAXHHPAI2@Z 00534c60 f scp_draw:Asmd_11f.obj
 0001:00135860       ?Compiled_Shape_Draw_10F@@YAXPAXPAPAXHHPAI2@Z 00536860 f scp_draw:Asmd_10f.obj
 0001:00136220       ?Compiled_Shape_Draw_9F@@YAXPAXPAPAXHHPAI2@Z 00537220 f scp_draw:Asmd_9f.obj
 0001:00137de0       ?Compiled_Shape_Draw_8F@@YAXPAXPAPAXHHPAI2@Z 00538de0 f scp_draw:Asmd_8f.obj
 0001:001387a0       ?Compiled_Shape_Draw_7F@@YAXPAXPAPAXHHPAI2@Z 005397a0 f scp_draw:Asmd_7f.obj
 0001:0013a360       ?Compiled_Shape_Draw_6F@@YAXPAXPAPAXHHPAI2@Z 0053b360 f scp_draw:Asmd_6f.obj
 0001:0013ad20       ?Compiled_Shape_Draw_5F@@YAXPAXPAPAXHHPAI2@Z 0053bd20 f scp_draw:Asmd_5f.obj
 0001:0013bf80       ?Compiled_Shape_Draw_4F@@YAXPAXPAPAXHHPAI2@Z 0053cf80 f scp_draw:Asmd_4f.obj
 0001:0013d240       ?Compiled_Shape_Draw_3F@@YAXPAXPAPAXHHPAI2@Z 0053e240 f scp_draw:Asmd_3f.obj
 0001:0013ee40       ?Compiled_Shape_Draw_2F@@YAXPAXPAPAXHHPAI2@Z 0053fe40 f scp_draw:Asmd_2f.obj
 0001:0013f800       ?Compiled_Shape_Draw_1F@@YAXPAXPAPAXHHPAI2@Z 00540800 f scp_draw:Asmd_1f.obj
 0001:00140ac0       ?Compiled_Shape_Draw_13@@YAXPAXPAPAXHH@Z 00541ac0 f scp_draw:Asmd_13.obj
 0001:00141730       ?Compiled_Shape_Draw_12@@YAXPAXPAPAXHH@Z 00542730 f scp_draw:Asmd_12.obj
 0001:00142400       ?Compiled_Shape_Draw_11@@YAXPAXPAPAXHH@Z 00543400 f scp_draw:Asmd_11.obj
 0001:00143710       ?Compiled_Shape_Draw_10@@YAXPAXPAPAXHH@Z 00544710 f scp_draw:Asmd_10.obj
 0001:00143da0       ?Compiled_Shape_Draw_9@@YAXPAXPAPAXHH@Z 00544da0 f scp_draw:Asmd_9.obj
 0001:00145080       ?Compiled_Shape_Draw_8@@YAXPAXPAPAXHH@Z 00546080 f scp_draw:Asmd_8.obj
 0001:00145710       ?Compiled_Shape_Draw_7@@YAXPAXPAPAXHH@Z 00546710 f scp_draw:Asmd_7.obj
 0001:001469f0       ?Compiled_Shape_Draw_6@@YAXPAXPAPAXHH@Z 005479f0 f scp_draw:Asmd_6.obj
 0001:00147080       ?Compiled_Shape_Draw_5@@YAXPAXPAPAXHH@Z 00548080 f scp_draw:Asmd_5.obj
 0001:00147cf0       ?Compiled_Shape_Draw_4@@YAXPAXPAPAXHH@Z 00548cf0 f scp_draw:Asmd_4.obj
 0001:001489c0       ?Compiled_Shape_Draw_3@@YAXPAXPAPAXHH@Z 005499c0 f scp_draw:Asmd_3.obj
 0001:00149cd0       ?Compiled_Shape_Draw_2@@YAXPAXPAPAXHH@Z 0054acd0 f scp_draw:Asmd_2.obj
 0001:0014a360       ?Compiled_Shape_Draw_1@@YAXPAXPAPAXHH@Z 0054b360 f scp_draw:Asmd_1.obj
 0001:0014b00a       _MCIWndCreateA             0054c00a f vfw32:MSVFW32.dll
 0001:0014b010       _timeGetTime@0             0054c010 f winmm:WINMM.dll
 0001:0014b016       _mmioClose@8               0054c016 f winmm:WINMM.dll
 0001:0014b01c       _mmioAscend@12             0054c01c f winmm:WINMM.dll
 0001:0014b022       _mmioRead@12               0054c022 f winmm:WINMM.dll
 0001:0014b028       _mmioDescend@16            0054c028 f winmm:WINMM.dll
 0001:0014b02e       _mmioOpenA@12              0054c02e f winmm:WINMM.dll
 0001:0014b034       _mmioSeek@12               0054c034 f winmm:WINMM.dll
 0001:0014b03a       _mmioSetInfo@12            0054c03a f winmm:WINMM.dll
 0001:0014b040       _mmioAdvance@12            0054c040 f winmm:WINMM.dll
 0001:0014b046       _mmioGetInfo@12            0054c046 f winmm:WINMM.dll
 0001:0014b04c       _mmioWrite@12              0054c04c f winmm:WINMM.dll
 0001:0014b052       _mmioCreateChunk@12        0054c052 f winmm:WINMM.dll
 0001:0014b058       _timeSetEvent@20           0054c058 f winmm:WINMM.dll
 0001:0014b05e       _timeBeginPeriod@4         0054c05e f winmm:WINMM.dll
 0001:0014b064       _timeEndPeriod@4           0054c064 f winmm:WINMM.dll
 0001:0014b06a       _timeKillEvent@4           0054c06a f winmm:WINMM.dll
 0001:0014b070       _mciSendCommandA@16        0054c070 f winmm:WINMM.dll
 0001:0014b076       _mciGetErrorStringA@12     0054c076 f winmm:WINMM.dll
 0001:0014b07c       _mixerClose@4              0054c07c f winmm:WINMM.dll
 0001:0014b082       _mixerGetControlDetailsA@12 0054c082 f winmm:WINMM.dll
 0001:0014b088       _mixerGetLineControlsA@12  0054c088 f winmm:WINMM.dll
 0001:0014b08e       _mixerGetLineInfoA@12      0054c08e f winmm:WINMM.dll
 0001:0014b094       _mixerOpen@20              0054c094 f winmm:WINMM.dll
 0001:0014b09a       _mixerGetNumDevs@0         0054c09a f winmm:WINMM.dll
 0001:0014b0a0       _mixerSetControlDetails@12 0054c0a0 f winmm:WINMM.dll
 0001:0014b0b0       _deflate_data              0054c0b0 f compress:Deflate.obj
 0001:0014dba0       _deflate_deinit            0054eba0 f compress:Deflate.obj
 0001:0014dbc0       _deflate_init              0054ebc0 f compress:Deflate.obj
 0001:0014dd20       _deflate_buf_size          0054ed20 f compress:Deflate.obj
 0001:0014e7d5       _Inf32BufSize              0054f7d5   compress:Inf32.obj
 0001:0014e7db       _Inf32Decode               0054f7db   compress:Inf32.obj
 0001:0014e8a0       ??3@YAXPAX@Z               0054f8a0 f LIBCD:dbgdel.obj
 0001:0014e944       __global_unwind2           0054f944 f LIBCD:exsup.obj
 0001:0014e986       __local_unwind2            0054f986 f LIBCD:exsup.obj
 0001:0014e9de       __NLG_Return2              0054f9de   LIBCD:exsup.obj
 0001:0014e9ee       __abnormal_termination     0054f9ee f LIBCD:exsup.obj
 0001:0014ea11       __NLG_Notify1              0054fa11 f LIBCD:exsup.obj
 0001:0014ea1a       __NLG_Notify               0054fa1a f LIBCD:exsup.obj
 0001:0014ea2d       __NLG_Dispatch             0054fa2d   LIBCD:exsup.obj
 0001:0014ea40       ?_JumpToContinuation@@YGXPAXPAUEHRegistrationNode@@@Z 0054fa40 f LIBCD:trnsctrl.obj
 0001:0014ea80       ?_CallMemberFunction0@@YGXPAX0@Z 0054fa80 f LIBCD:trnsctrl.obj
 0001:0014ea90       ?_CallMemberFunction1@@YGXPAX00@Z 0054fa90 f LIBCD:trnsctrl.obj
 0001:0014eaa0       ?_CallMemberFunction2@@YGXPAX00H@Z 0054faa0 f LIBCD:trnsctrl.obj
 0001:0014eab0       ?_UnwindNestedFrames@@YGXPAUEHRegistrationNode@@PAUEHExceptionRecord@@@Z 0054fab0 f LIBCD:trnsctrl.obj
 0001:0014eb10       ___CxxFrameHandler         0054fb10 f LIBCD:trnsctrl.obj
 0001:0014eb50       ___CxxLongjmpUnwind@4      0054fb50 f LIBCD:trnsctrl.obj
 0001:0014eb90       ?_CallCatchBlock2@@YAPAXPAUEHRegistrationNode@@PBU_s_FuncInfo@@PAXHK@Z 0054fb90 f LIBCD:trnsctrl.obj
 0001:0014ec40       ?_CallSETranslator@@YAHPAUEHExceptionRecord@@PAUEHRegistrationNode@@PAX2PBU_s_FuncInfo@@H1@Z 0054fc40 f LIBCD:trnsctrl.obj
 0001:0014ed90       ??2@YAPAXI@Z               0054fd90 f LIBCD:new.obj
 0001:0014edb0       __onexit                   0054fdb0 f LIBCD:onexit.obj
 0001:0014ee70       _atexit                    0054fe70 f LIBCD:onexit.obj
 0001:0014eea0       ___onexitinit              0054fea0 f LIBCD:onexit.obj
 0001:0014ef00       _malloc                    0054ff00 f LIBCD:dbgheap.obj
 0001:0014ef30       __malloc_dbg               0054ff30 f LIBCD:dbgheap.obj
 0001:0014ef60       __nh_malloc                0054ff60 f LIBCD:dbgheap.obj
 0001:0014ef90       __nh_malloc_dbg            0054ff90 f LIBCD:dbgheap.obj
 0001:0014f000       __heap_alloc               00550000 f LIBCD:dbgheap.obj
 0001:0014f030       __heap_alloc_dbg           00550030 f LIBCD:dbgheap.obj
 0001:0014f370       _calloc                    00550370 f LIBCD:dbgheap.obj
 0001:0014f3a0       __calloc_dbg               005503a0 f LIBCD:dbgheap.obj
 0001:0014f410       _realloc                   00550410 f LIBCD:dbgheap.obj
 0001:0014f440       __realloc_dbg              00550440 f LIBCD:dbgheap.obj
 0001:0014fa10       __expand                   00550a10 f LIBCD:dbgheap.obj
 0001:0014fa40       __expand_dbg               00550a40 f LIBCD:dbgheap.obj
 0001:0014fa80       _free                      00550a80 f LIBCD:dbgheap.obj
 0001:0014faa0       __free_dbg                 00550aa0 f LIBCD:dbgheap.obj
 0001:0014fed0       __msize                    00550ed0 f LIBCD:dbgheap.obj
 0001:0014fef0       __msize_dbg                00550ef0 f LIBCD:dbgheap.obj
 0001:00150060       __CrtSetBreakAlloc         00551060 f LIBCD:dbgheap.obj
 0001:00150090       __CrtSetDbgBlockType       00551090 f LIBCD:dbgheap.obj
 0001:00150130       __CrtSetAllocHook          00551130 f LIBCD:dbgheap.obj
 0001:001501f0       __CrtCheckMemory           005511f0 f LIBCD:dbgheap.obj
 0001:00150570       __CrtSetDbgFlag            00551570 f LIBCD:dbgheap.obj
 0001:001505a0       __CrtDoForAllClientObjects 005515a0 f LIBCD:dbgheap.obj
 0001:00150610       __CrtIsValidPointer        00551610 f LIBCD:dbgheap.obj
 0001:00150670       __CrtIsValidHeapPointer    00551670 f LIBCD:dbgheap.obj
 0001:00150740       __CrtIsMemoryBlock         00551740 f LIBCD:dbgheap.obj
 0001:00150840       __CrtSetDumpClient         00551840 f LIBCD:dbgheap.obj
 0001:00150870       __CrtMemCheckpoint         00551870 f LIBCD:dbgheap.obj
 0001:001509b0       __CrtMemDifference         005519b0 f LIBCD:dbgheap.obj
 0001:00150af0       __CrtMemDumpAllObjectsSince 00551af0 f LIBCD:dbgheap.obj
 0001:00150eb0       __CrtDumpMemoryLeaks       00551eb0 f LIBCD:dbgheap.obj
 0001:00150f40       __CrtMemDumpStatistics     00551f40 f LIBCD:dbgheap.obj
 0001:00151010       _strcmp                    00552010 f LIBCD:strcmp.obj
 0001:001510a0       _strcpy                    005520a0 f LIBCD:strcat.obj
 0001:001510b0       _strcat                    005520b0 f LIBCD:strcat.obj
 0001:00151190       _sprintf                   00552190 f LIBCD:sprintf.obj
 0001:00151290       _strchr                    00552290 f LIBCD:strchr.obj
 0001:00151296       ___from_strstr_to_strchr   00552296   LIBCD:strchr.obj
 0001:00151350       _abs                       00552350 f LIBCD:abs.obj
 0001:00151370       _strlen                    00552370 f LIBCD:strlen.obj
 0001:001513f0       _strstr                    005523f0 f LIBCD:strstr.obj
 0001:00151470       __fpmath                   00552470 f LIBCD:fpinit.obj
 0001:001514a0       __fpclear                  005524a0 f LIBCD:fpinit.obj
 0001:001514b0       __cfltcvt_init             005524b0 f LIBCD:fpinit.obj
 0001:00151500       ___setfflag                00552500 f LIBCD:fpinit.obj
 0001:00151530       __assert                   00552530 f LIBCD:assert.obj
 0001:001518f0       _isalpha                   005528f0 f LIBCD:_ctype.obj
 0001:00151940       _isupper                   00552940 f LIBCD:_ctype.obj
 0001:00151990       _islower                   00552990 f LIBCD:_ctype.obj
 0001:001519e0       _isdigit                   005529e0 f LIBCD:_ctype.obj
 0001:00151a30       _isxdigit                  00552a30 f LIBCD:_ctype.obj
 0001:00151a80       _isspace                   00552a80 f LIBCD:_ctype.obj
 0001:00151ad0       _ispunct                   00552ad0 f LIBCD:_ctype.obj
 0001:00151b20       _isalnum                   00552b20 f LIBCD:_ctype.obj
 0001:00151b70       _isprint                   00552b70 f LIBCD:_ctype.obj
 0001:00151bc0       _isgraph                   00552bc0 f LIBCD:_ctype.obj
 0001:00151c10       _iscntrl                   00552c10 f LIBCD:_ctype.obj
 0001:00151c60       ___isascii                 00552c60 f LIBCD:_ctype.obj
 0001:00151c90       ___toascii                 00552c90 f LIBCD:_ctype.obj
 0001:00151cb0       ___iscsymf                 00552cb0 f LIBCD:_ctype.obj
 0001:00151d30       ___iscsym                  00552d30 f LIBCD:_ctype.obj
 0001:00151db0       _atol                      00552db0 f LIBCD:atox.obj
 0001:00151ed0       _atoi                      00552ed0 f LIBCD:atox.obj
 0001:00151ef0       __atoi64                   00552ef0 f LIBCD:atox.obj
 0001:00152040       _atof                      00553040 f LIBCD:atof.obj
 0001:001520d0       __toupper                  005530d0 f LIBCD:toupper.obj
 0001:001520f0       _toupper                   005530f0 f LIBCD:toupper.obj
 0001:00152230       __tolower                  00553230 f LIBCD:tolower.obj
 0001:00152250       _tolower                   00553250 f LIBCD:tolower.obj
 0001:00152390       __findfirst                00553390 f LIBCD:findfile.obj
 0001:00152500       __findnext                 00553500 f LIBCD:findfile.obj
 0001:00152660       __findclose                00553660 f LIBCD:findfile.obj
 0001:001526a0       ___timet_from_ft           005536a0 f LIBCD:findfile.obj
 0001:00152750       _strncpy                   00553750 f LIBCD:strncpy.obj
 0001:00152850       _memcpy                    00553850 f LIBCD:memcpy.obj
 0001:001529a0       __ftol                     005539a0 f LIBCD:ftol.obj
 0001:001529d0       _srand                     005539d0 f LIBCD:rand.obj
 0001:001529f0       _rand                      005539f0 f LIBCD:rand.obj
 0001:00152a40       _sin                       00553a40 f LIBCD:87ctrig.obj
 0001:00152a4a       _cos                       00553a4a f LIBCD:87ctrig.obj
 0001:00152a51       _tan                       00553a51 f LIBCD:87ctrig.obj
 0001:00152a58       __CIsin                    00553a58 f LIBCD:87ctrig.obj
 0001:00152a62       __CIcos                    00553a62 f LIBCD:87ctrig.obj
 0001:00152a69       __CItan                    00553a69 f LIBCD:87ctrig.obj
 0001:00152a70       _sqrt                      00553a70 f LIBCD:87csqrt.obj
 0001:00152a7a       __CIsqrt                   00553a7a f LIBCD:87csqrt.obj
 0001:00152a90       _memset                    00553a90 f LIBCD:memset.obj
 0001:00152af0       _fscanf                    00553af0 f LIBCD:fscanf.obj
 0001:00152b80       _time                      00553b80 f LIBCD:time.obj
 0001:00152d10       _mktime                    00553d10 f LIBCD:mktime.obj
 0001:00152d30       __mkgmtime                 00553d30 f LIBCD:mktime.obj
 0001:00153150       _qsort                     00554150 f LIBCD:qsort.obj
 0001:001534a0       _fclose                    005544a0 f LIBCD:fclose.obj
 0001:00153590       __fsopen                   00554590 f LIBCD:fopen.obj
 0001:001536a0       _fopen                     005546a0 f LIBCD:fopen.obj
 0001:001536d0       _vsprintf                  005546d0 f LIBCD:vsprintf.obj
 0001:001537c0       __chkstk                   005547c0   LIBCD:chkstk.obj
 0001:001537c0       __alloca_probe             005547c0   LIBCD:chkstk.obj
 0001:001537f0       _asin                      005547f0 f LIBCD:87ctriga.obj
 0001:001537fa       _acos                      005547fa f LIBCD:87ctriga.obj
 0001:00153801       _atan                      00554801 f LIBCD:87ctriga.obj
 0001:00153808       _atan2                     00554808 f LIBCD:87ctriga.obj
 0001:00153812       __CIasin                   00554812 f LIBCD:87ctriga.obj
 0001:0015381c       __CIacos                   0055481c f LIBCD:87ctriga.obj
 0001:00153823       __CIatan                   00554823 f LIBCD:87ctriga.obj
 0001:0015382a       __CIatan2                  0055482a f LIBCD:87ctriga.obj
 0001:00153840       __CrtDbgBreak              00554840 f LIBCD:dbgrpt.obj
 0001:00153860       __CrtSetReportMode         00554860 f LIBCD:dbgrpt.obj
 0001:001538e0       __CrtSetReportFile         005548e0 f LIBCD:dbgrpt.obj
 0001:00153990       __CrtSetReportHook         00554990 f LIBCD:dbgrpt.obj
 0001:001539c0       __CrtDbgReport             005549c0 f LIBCD:dbgrpt.obj
 0001:001540e0       __stricmp                  005550e0 f LIBCD:stricmp.obj
 0001:001540e0       __strcmpi                  005550e0 f LIBCD:stricmp.obj
 0001:00154170       _close                     00555170 f LIBCD:close.obj
 0001:00154170       __close                    00555170 f LIBCD:close.obj
 0001:00154280       __read                     00555280 f LIBCD:read.obj
 0001:00154280       _read                      00555280 f LIBCD:read.obj
 0001:00154720       _lseek                     00555720 f LIBCD:lseek.obj
 0001:00154720       __lseek                    00555720 f LIBCD:lseek.obj
 0001:00154840       __tell                     00555840 f LIBCD:tell.obj
 0001:00154860       _open                      00555860 f LIBCD:open.obj
 0001:00154860       __open                     00555860 f LIBCD:open.obj
 0001:001548b0       __sopen                    005558b0 f LIBCD:open.obj
 0001:00154e50       _sscanf                    00555e50 f LIBCD:sscanf.obj
 0001:00154f20       _fgets                     00555f20 f LIBCD:fgets.obj
 0001:00155050       _fprintf                   00556050 f LIBCD:fprintf.obj
 0001:00155100       _fabs                      00556100 f LIBCD:fabs.obj
 0001:00155220       __write                    00556220 f LIBCD:write.obj
 0001:00155520       _itoa                      00556520 f LIBCD:xtoa.obj
 0001:00155520       __itoa                     00556520 f LIBCD:xtoa.obj
 0001:00155640       __ltoa                     00556640 f LIBCD:xtoa.obj
 0001:001556a0       __ultoa                    005566a0 f LIBCD:xtoa.obj
 0001:001556d0       __i64toa                   005566d0 f LIBCD:xtoa.obj
 0001:00155820       __ui64toa                  00556820 f LIBCD:xtoa.obj
 0001:00155850       ??_M@YGXPAXIHP6EX0@Z@Z     00556850 f LIBCD:ehvecdtr.obj
 0001:00155900       ?__ArrayUnwind@@YGXPAXIHP6EX0@Z@Z 00556900 f LIBCD:ehvecdtr.obj
 0001:001559e0       ??_L@YGXPAXIHP6EX0@Z1@Z    005569e0 f LIBCD:ehvecctr.obj
 0001:00155aa0       __getdrive                 00556aa0 f LIBCD:drive.obj
 0001:00155b10       __chdrive                  00556b10 f LIBCD:drive.obj
 0001:00155ba0       __chdir                    00556ba0 f LIBCD:chdir.obj
 0001:00155c90       __splitpath                00556c90 f LIBCD:splitpat.obj
 0001:00155ee0       __getcwd                   00556ee0 f LIBCD:getcwd.obj
 0001:00155f10       __getdcwd                  00556f10 f LIBCD:getcwd.obj
 0001:00156050       __validdrive               00557050 f LIBCD:getcwd.obj
 0001:001560c0       _strncmp                   005570c0 f LIBCD:strncmp.obj
 0001:00156100       _asctime                   00557100 f LIBCD:asctime.obj
 0001:001562a0       _localtime                 005572a0 f LIBCD:localtim.obj
 0001:00156500       _strtok                    00557500 f LIBCD:strtok.obj
 0001:00156670       _fflush                    00557670 f LIBCD:fflush.obj
 0001:001566f0       __flush                    005576f0 f LIBCD:fflush.obj
 0001:001567b0       __flushall                 005577b0 f LIBCD:fflush.obj
 0001:001568d0       _fputs                     005578d0 f LIBCD:fputs.obj
 0001:001569a0       _strncat                   005579a0 f LIBCD:strncat.obj
 0001:00156ad0       _ctime                     00557ad0 f LIBCD:ctime.obj
 0001:00156b20       _floor                     00557b20 f LIBCD:floor.obj
 0001:00156c90       _WinMainCRTStartup         00557c90 f LIBCD:wincrt0.obj
 0001:00156ee0       __amsg_exit                00557ee0 f LIBCD:wincrt0.obj
 0001:00156f20       ___InternalCxxFrameHandler 00557f20 f LIBCD:frame.obj
 0001:001575d0       ___FrameUnwindToState      005585d0 f LIBCD:frame.obj
 0001:00157db0       __CallSettingFrame@12      00558db0 f LIBCD:lowhelpr.obj
 0001:00157dd5       __NLG_Return               00558dd5   LIBCD:lowhelpr.obj
 0001:00157e00       ?terminate@@YAXXZ          00558e00 f LIBCD:hooks.obj
 0001:00157ea0       ?unexpected@@YAXXZ         00558ea0 f LIBCD:hooks.obj
 0001:00157ed0       ?_inconsistency@@YAXXZ     00558ed0 f LIBCD:hooks.obj
 0001:00157f70       __cinit                    00558f70 f LIBCD:crt0dat.obj
 0001:00157fc0       _exit                      00558fc0 f LIBCD:crt0dat.obj
 0001:00157fe0       __exit                     00558fe0 f LIBCD:crt0dat.obj
 0001:00158000       __cexit                    00559000 f LIBCD:crt0dat.obj
 0001:00158020       __c_exit                   00559020 f LIBCD:crt0dat.obj
 0001:00158180       ?_set_new_handler@@YAP6AHI@ZP6AHI@Z@Z 00559180 f LIBCD:handler.obj
 0001:001581b0       ?_query_new_handler@@YAP6AHI@ZXZ 005591b0 f LIBCD:handler.obj
 0001:001581d0       __callnewh                 005591d0 f LIBCD:handler.obj
 0001:00158210       __malloc_base              00559210 f LIBCD:malloc.obj
 0001:00158240       __nh_malloc_base           00559240 f LIBCD:malloc.obj
 0001:001582e0       __heap_alloc_base          005592e0 f LIBCD:malloc.obj
 0001:00158350       __CrtDefaultAllocHook      00559350 f LIBCD:dbghook.obj
 0001:00158370       __expand_base              00559370 f LIBCD:expand.obj
 0001:00158440       __realloc_base             00559440 f LIBCD:realloc.obj
 0001:00158650       __free_base                00559650 f LIBCD:free.obj
 0001:001586c0       __heapchk                  005596c0 f LIBCD:heapchk.obj
 0001:00158740       __heapset                  00559740 f LIBCD:heapchk.obj
 0001:00158760       __heap_init                00559760 f LIBCD:heapinit.obj
 0001:001587c0       __heap_term                005597c0 f LIBCD:heapinit.obj
 0001:00158820       __get_sbh_threshold        00559820 f LIBCD:sbheap.obj
 0001:00158840       __set_sbh_threshold        00559840 f LIBCD:sbheap.obj
 0001:00158890       ___sbh_new_region          00559890 f LIBCD:sbheap.obj
 0001:00158aa0       ___sbh_release_region      00559aa0 f LIBCD:sbheap.obj
 0001:00158b30       ___sbh_decommit_pages      00559b30 f LIBCD:sbheap.obj
 0001:00158cb0       ___sbh_find_block          00559cb0 f LIBCD:sbheap.obj
 0001:00158d60       ___sbh_free_block          00559d60 f LIBCD:sbheap.obj
 0001:00158df0       ___sbh_alloc_block         00559df0 f LIBCD:sbheap.obj
 0001:001592c0       ___sbh_alloc_block_from_page 0055a2c0 f LIBCD:sbheap.obj
 0001:001595c0       ___sbh_resize_block        0055a5c0 f LIBCD:sbheap.obj
 0001:00159780       ___sbh_heap_check          0055a780 f LIBCD:sbheap.obj
 0001:001599f0       __isctype                  0055a9f0 f LIBCD:isctype.obj
 0001:00159ab0       __flsbuf                   0055aab0 f LIBCD:_flsbuf.obj
 0001:00159d50       __output                   0055ad50 f LIBCD:output.obj
 0001:0015ac80       __setdefaultprecision      0055bc80 f LIBCD:fp8.obj
 0001:0015aca0       __ms_p5_test_fdiv          0055bca0 f LIBCD:testfdiv.obj
 0001:0015ad00       __ms_p5_mp_test_fdiv       0055bd00 f LIBCD:testfdiv.obj
 0001:0015ad60       __forcdecpt                0055bd60 f LIBCD:cvt.obj
 0001:0015ae20       __cropzeros                0055be20 f LIBCD:cvt.obj
 0001:0015af00       __positive                 0055bf00 f LIBCD:cvt.obj
 0001:0015af40       __fassign                  0055bf40 f LIBCD:cvt.obj
 0001:0015afa0       __cftoe                    0055bfa0 f LIBCD:cvt.obj
 0001:0015b170       __cftof                    0055c170 f LIBCD:cvt.obj
 0001:0015b300       __cftog                    0055c300 f LIBCD:cvt.obj
 0001:0015b4a0       __cfltcvt                  0055c4a0 f LIBCD:cvt.obj
 0001:0015b560       _abort                     0055c560 f LIBCD:abort.obj
 0001:0015b590       _signal                    0055c590 f LIBCD:winsig.obj
 0001:0015b800       _raise                     0055c800 f LIBCD:winsig.obj
 0001:0015ba90       ___crtMessageBoxA          0055ca90 f LIBCD:crtmbox.obj
 0001:0015bb70       ___initstdio               0055cb70 f LIBCD:_file.obj
 0001:0015bcd0       ___endstdio                0055ccd0 f LIBCD:_file.obj
 0001:0015bd00       _setvbuf                   0055cd00 f LIBCD:setvbuf.obj
 0001:0015be60       __allmul                   0055ce60 f LIBCD:llmul.obj
 0001:0015bea0       __fltin                    0055cea0 f LIBCD:cfin.obj
 0001:0015bf80       ___crtLCMapStringW         0055cf80 f LIBCD:aw_map.obj
 0001:0015c2f0       ___crtLCMapStringA         0055d2f0 f LIBCD:aw_map.obj
 0001:0015c680       ___loctotime_t             0055d680 f LIBCD:dtoxtime.obj
 0001:0015c7a0       __fFCOS                    0055d7a0   LIBCD:87trig.obj
 0001:0015c7aa       __fFSIN                    0055d7aa   LIBCD:87trig.obj
 0001:0015c7d0       __cintrindisp2             0055d7d0 f LIBCD:87cdisp.obj
 0001:0015c80e       __cintrindisp1             0055d80e f LIBCD:87cdisp.obj
 0001:0015c844       __ctrandisp2               0055d844 f LIBCD:87cdisp.obj
 0001:0015c9b5       __ctrandisp1               0055d9b5 f LIBCD:87cdisp.obj
 0001:0015c9e1       __fload                    0055d9e1 f LIBCD:87cdisp.obj
 0001:0015ca40       __input                    0055da40 f LIBCD:input.obj
 0001:0015df30       _gmtime                    0055ef30 f LIBCD:gmtime.obj
 0001:0015e120       ___tzset                   0055f120 f LIBCD:tzset.obj
 0001:0015e150       __tzset                    0055f150 f LIBCD:tzset.obj
 0001:0015e4b0       __isindst                  0055f4b0 f LIBCD:tzset.obj
 0001:0015ea30       __freebuf                  0055fa30 f LIBCD:_freebuf.obj
 0001:0015eac0       __openfile                 0055fac0 f LIBCD:_open.obj
 0001:0015ee80       __getstream                0055fe80 f LIBCD:stream.obj
 0001:0015efbc       __fFATN2                   0055ffbc   LIBCD:87triga.obj
 0001:0015f00c       __rtpiby2                  0056000c   LIBCD:87triga.obj
 0001:0015f050       __snprintf                 00560050 f LIBCD:snprintf.obj
 0001:0015f140       __vsnprintf                00560140 f LIBCD:vsnprint.obj
 0001:0015f230       __ioinit                   00560230 f LIBCD:ioinit.obj
 0001:0015f560       __ioterm                   00560560 f LIBCD:ioinit.obj
 0001:0015f5d0       __dosmaperr                005605d0 f LIBCD:dosmap.obj
 0001:0015f690       __alloc_osfhnd             00560690 f LIBCD:osfinfo.obj
 0001:0015f7e0       __set_osfhnd               005607e0 f LIBCD:osfinfo.obj
 0001:0015f8e0       __free_osfhnd              005608e0 f LIBCD:osfinfo.obj
 0001:0015fa00       __get_osfhandle            00560a00 f LIBCD:osfinfo.obj
 0001:0015fa80       __open_osfhandle           00560a80 f LIBCD:osfinfo.obj
 0001:0015fb80       __chsize                   00560b80 f LIBCD:chsize.obj
 0001:0015fe30       __filbuf                   00560e30 f LIBCD:_filbuf.obj
 0001:00160010       __stbuf                    00561010 f LIBCD:_sftbuf.obj
 0001:00160160       __ftbuf                    00561160 f LIBCD:_sftbuf.obj
 0001:00160220       __statfp                   00561220 f LIBCD:fpctrl.obj
 0001:00160240       __clrfp                    00561240 f LIBCD:fpctrl.obj
 0001:00160260       __ctrlfp                   00561260 f LIBCD:fpctrl.obj
 0001:001602a0       __set_statfp               005612a0 f LIBCD:fpctrl.obj
 0001:00160320       __handle_qnan1             00561320 f LIBCD:fpexcept.obj
 0001:00160390       __handle_qnan2             00561390 f LIBCD:fpexcept.obj
 0001:00160410       __except1                  00561410 f LIBCD:fpexcept.obj
 0001:001604e0       __except2                  005614e0 f LIBCD:fpexcept.obj
 0001:001605d0       __raise_exc                005615d0 f LIBCD:fpexcept.obj
 0001:00160b20       __handle_exc               00561b20 f LIBCD:fpexcept.obj
 0001:00160eb0       __umatherr                 00561eb0 f LIBCD:fpexcept.obj
 0001:00160f70       __set_errno                00561f70 f LIBCD:fpexcept.obj
 0001:00161030       __errcode                  00562030 f LIBCD:fpexcept.obj
 0001:001610c0       __set_exp                  005620c0 f LIBCD:util.obj
 0001:00161110       __get_exp                  00562110 f LIBCD:util.obj
 0001:00161150       __add_exp                  00562150 f LIBCD:util.obj
 0001:00161190       __set_bexp                 00562190 f LIBCD:util.obj
 0001:001611d0       __sptype                   005621d0 f LIBCD:util.obj
 0001:00161290       __decomp                   00562290 f LIBCD:util.obj
 0001:001613e0       __aulldiv                  005623e0 f LIBCD:ulldiv.obj
 0001:00161450       __aullrem                  00562450 f LIBCD:ullrem.obj
 0001:001614d0       __except_handler3          005624d0 f LIBCD:exsup3.obj
 0001:0016158d       __seh_longjmp_unwind@4     0056258d f LIBCD:exsup3.obj
 0001:001615b0       __mbctoupper               005625b0 f LIBCD:mbtoupr.obj
 0001:00161680       __mbsnbcpy                 00562680 f LIBCD:mbsnbcpy.obj
 0001:001617a0       __setmbcp                  005627a0 f LIBCD:mbctype.obj
 0001:00161c80       __getmbcp                  00562c80 f LIBCD:mbctype.obj
 0001:00161ca0       ___initmbctable            00562ca0 f LIBCD:mbctype.obj
 0001:00161cc0       __commit                   00562cc0 f LIBCD:commit.obj
 0001:00161da0       _fwrite                    00562da0 f LIBCD:fwrite.obj
 0001:00161fc0       __frnd                     00562fc0 f LIBCD:frnd.obj
 0001:00161fe0       __XcptFilter               00562fe0 f LIBCD:winxfltr.obj
 0001:00162250       __ismbbkalnum              00563250 f LIBCD:ismbbyte.obj
 0001:00162270       __ismbbkprint              00563270 f LIBCD:ismbbyte.obj
 0001:00162290       __ismbbkpunct              00563290 f LIBCD:ismbbyte.obj
 0001:001622b0       __ismbbalnum               005632b0 f LIBCD:ismbbyte.obj
 0001:001622e0       __ismbbalpha               005632e0 f LIBCD:ismbbyte.obj
 0001:00162310       __ismbbgraph               00563310 f LIBCD:ismbbyte.obj
 0001:00162340       __ismbbprint               00563340 f LIBCD:ismbbyte.obj
 0001:00162370       __ismbbpunct               00563370 f LIBCD:ismbbyte.obj
 0001:00162390       __ismbblead                00563390 f LIBCD:ismbbyte.obj
 0001:001623b0       __ismbbtrail               005633b0 f LIBCD:ismbbyte.obj
 0001:001623d0       __ismbbkana                005633d0 f LIBCD:ismbbyte.obj
 0001:00162490       __setenvp                  00563490 f LIBCD:stdenvp.obj
 0001:001625d0       __setargv                  005635d0 f LIBCD:stdargv.obj
 0001:00162a60       ___crtGetEnvironmentStringsW 00563a60 f LIBCD:aw_env.obj
 0001:00162d20       ___crtGetEnvironmentStringsA 00563d20 f LIBCD:aw_env.obj
 0001:00162f80       __FF_MSGBANNER             00563f80 f LIBCD:crt0msg.obj
 0001:00162fe0       __NMSG_WRITE               00563fe0 f LIBCD:crt0msg.obj
 0001:00163200       __GET_RTERRMSG             00564200 f LIBCD:crt0msg.obj
 0001:001632d0       ?__CxxUnhandledExceptionFilter@@YGJPAU_EXCEPTION_POINTERS@@@Z 005642d0 f LIBCD:unhandld.obj
 0001:00163370       ?__CxxRestoreUnhandledExceptionFilter@@YAXXZ 00564370 f LIBCD:unhandld.obj
 0001:00163390       ?_ValidateRead@@YAHPBXI@Z  00564390 f LIBCD:validate.obj
 0001:001633d0       ?_ValidateWrite@@YAHPAXI@Z 005643d0 f LIBCD:validate.obj
 0001:00163410       ?_ValidateExecute@@YAHP6GHXZ@Z 00564410 f LIBCD:validate.obj
 0001:00163450       _memmove                   00564450 f LIBCD:memmove.obj
 0001:001635a0       ___crtGetStringTypeW       005645a0 f LIBCD:aw_str.obj
 0001:00163800       ___crtGetStringTypeA       00564800 f LIBCD:aw_str.obj
 0001:001639a0       __getbuf                   005649a0 f LIBCD:_getbuf.obj
 0001:00163a60       __isatty                   00564a60 f LIBCD:isatty.obj
 0001:00163ab0       _wctomb                    00564ab0 f LIBCD:wctomb.obj
 0001:00163b80       __statusfp                 00564b80 f LIBCD:ieee87.obj
 0001:00163bb0       __clearfp                  00564bb0 f LIBCD:ieee87.obj
 0001:00163be0       __control87                00564be0 f LIBCD:ieee87.obj
 0001:00163c30       __controlfp                00564c30 f LIBCD:ieee87.obj
 0001:00163c60       __fpreset                  00564c60 f LIBCD:ieee87.obj
 0001:00164060       __fptrap                   00565060 f LIBCD:crt0fp.obj
 0001:00164080       __ZeroTail                 00565080 f LIBCD:intrncvt.obj
 0001:00164120       __IncMan                   00565120 f LIBCD:intrncvt.obj
 0001:001641e0       __RoundMan                 005651e0 f LIBCD:intrncvt.obj
 0001:001642c0       __CopyMan                  005652c0 f LIBCD:intrncvt.obj
 0001:00164310       __FillZeroMan              00565310 f LIBCD:intrncvt.obj
 0001:00164350       __IsZeroMan                00565350 f LIBCD:intrncvt.obj
 0001:001643a0       __ShrMan                   005653a0 f LIBCD:intrncvt.obj
 0001:00164490       __ld12cvt                  00565490 f LIBCD:intrncvt.obj
 0001:00164700       __ld12tod                  00565700 f LIBCD:intrncvt.obj
 0001:00164730       __ld12tof                  00565730 f LIBCD:intrncvt.obj
 0001:00164760       __ld12told                 00565760 f LIBCD:intrncvt.obj
 0001:00164830       __atodbl                   00565830 f LIBCD:intrncvt.obj
 0001:00164870       __atoldbl                  00565870 f LIBCD:intrncvt.obj
 0001:001648b0       __atoflt                   005658b0 f LIBCD:intrncvt.obj
 0001:001648f0       __fptostr                  005658f0 f LIBCD:_fptostr.obj
 0001:001649d0       __fltout                   005659d0 f LIBCD:cfout.obj
 0001:00164a40       ___dtold                   00565a40 f LIBCD:cfout.obj
 0001:00164bc0       __fcloseall                00565bc0 f LIBCD:closeall.obj
 0001:00164c80       ___strgtold12              00565c80 f LIBCD:strgtold.obj
 0001:001658a0       ___STRINGTOLD              005668a0 f LIBCD:strgtold.obj
 0001:00165900       __trandisp1                00566900 f LIBCD:87disp.obj
 0001:00165967       __trandisp2                00566967 f LIBCD:87disp.obj
 0001:001659f3       __rttospopde               005669f3   LIBCD:87disp.obj
 0001:001659f8       __rttospop                 005669f8   LIBCD:87disp.obj
 0001:001659fa       __rtnospop                 005669fa   LIBCD:87disp.obj
 0001:001659fc       __rttosnpop                005669fc   LIBCD:87disp.obj
 0001:001659fd       __rtnospopde               005669fd   LIBCD:87disp.obj
 0001:00165a04       __rtzeropop                00566a04   LIBCD:87disp.obj
 0001:00165a06       __rtzeronpop               00566a06   LIBCD:87disp.obj
 0001:00165a0b       __rtonepop                 00566a0b   LIBCD:87disp.obj
 0001:00165a0d       __rtonenpop                00566a0d   LIBCD:87disp.obj
 0001:00165a12       __tosnan1                  00566a12   LIBCD:87disp.obj
 0001:00165a3d       __nosnan2                  00566a3d   LIBCD:87disp.obj
 0001:00165a3f       __tosnan2                  00566a3f   LIBCD:87disp.obj
 0001:00165a67       __nan2                     00566a67   LIBCD:87disp.obj
 0001:00165aa6       __rtindfpop                00566aa6   LIBCD:87disp.obj
 0001:00165aa8       __rtindfnpop               00566aa8   LIBCD:87disp.obj
 0001:00165ab9       __rttosnpopde              00566ab9   LIBCD:87disp.obj
 0001:00165ac3       __rtchsifneg               00566ac3   LIBCD:87disp.obj
 0001:00165ae1       __fFEXP                    00566ae1   LIBCD:87tran.obj
 0001:00165b48       __rtinfpopse               00566b48   LIBCD:87tran.obj
 0001:00165b4a       __rtinfnpopse              00566b4a   LIBCD:87tran.obj
 0001:00165b5a       __fFLN                     00566b5a   LIBCD:87tran.obj
 0001:00165c0f       __rtinfpop                 00566c0f   LIBCD:87tran.obj
 0001:00165c11       __rtinfnpop                00566c11   LIBCD:87tran.obj
 0001:00165c2e       __ffexpm1                  00566c2e   LIBCD:87tran.obj
 0001:00165ce0       __87except                 00566ce0 f LIBCD:87except.obj
 0001:00165ea0       _mbtowc                    00566ea0 f LIBCD:mbtowc.obj
 0001:00166040       _ungetc                    00567040 f LIBCD:ungetc.obj
 0001:00166170       _wcstombs                  00567170 f LIBCD:wcstombs.obj
 0001:00166540       _getenv                    00567540 f LIBCD:getenv.obj
 0001:00166630       __setmode                  00567630 f LIBCD:setmode.obj
 0001:00166770       __matherr                  00567770 f LIBCD:matherr.obj
 0001:00166790       _wcslen                    00567790 f LIBCD:wcslen.obj
 0001:001667e0       ___addl                    005677e0 f LIBCD:mantold.obj
 0001:00166830       ___add_12                  00567830 f LIBCD:mantold.obj
 0001:001668e0       ___shl_12                  005678e0 f LIBCD:mantold.obj
 0001:00166960       ___shr_12                  00567960 f LIBCD:mantold.obj
 0001:001669e0       ___mtold12                 005679e0 f LIBCD:mantold.obj
 0001:00166b20       _$I10_OUTPUT               00567b20 f LIBCD:x10fout.obj
 0001:00167060       ___ld12mul                 00568060 f LIBCD:tenpow.obj
 0001:00167490       ___multtenpow12            00568490 f LIBCD:tenpow.obj
 0001:00167570       __powhlp                   00568570 f LIBCD:powhlp.obj
 0001:00167810       __d_inttype                00568810 f LIBCD:powhlp.obj
 0001:001678b0       _fdiv_main_routine         005688b0 f LIBCD:adj_fdiv.obj
 0001:001679c7       __adj_fdiv_r               005689c7 f LIBCD:adj_fdiv.obj
 0001:00167e66       __fdivp_sti_st             00568e66 f LIBCD:adj_fdiv.obj
 0001:00167e79       __fdivrp_sti_st            00568e79 f LIBCD:adj_fdiv.obj
 0001:00167e8c       __adj_fdiv_m32             00568e8c f LIBCD:adj_fdiv.obj
 0001:00167ed8       __adj_fdiv_m64             00568ed8 f LIBCD:adj_fdiv.obj
 0001:00167f24       __adj_fdiv_m16i            00568f24 f LIBCD:adj_fdiv.obj
 0001:00167f58       __adj_fdiv_m32i            00568f58 f LIBCD:adj_fdiv.obj
 0001:00167f8c       __adj_fdivr_m32            00568f8c f LIBCD:adj_fdiv.obj
 0001:00167fd8       __adj_fdivr_m64            00568fd8 f LIBCD:adj_fdiv.obj
 0001:00168024       __adj_fdivr_m16i           00569024 f LIBCD:adj_fdiv.obj
 0001:00168058       __adj_fdivr_m32i           00569058 f LIBCD:adj_fdiv.obj
 0001:0016808c       __safe_fdiv                0056908c f LIBCD:adj_fdiv.obj
 0001:001680a1       __safe_fdivr               005690a1 f LIBCD:adj_fdiv.obj
 0001:001680b6       __fprem_common             005690b6 f LIBCD:adj_fdiv.obj
 0001:001682bc       __adj_fprem                005692bc f LIBCD:adj_fdiv.obj
 0001:0016836e       __fprem1_common            0056936e f LIBCD:adj_fdiv.obj
 0001:00168574       __adj_fprem1               00569574 f LIBCD:adj_fdiv.obj
 0001:00168629       __safe_fprem               00569629 f LIBCD:adj_fdiv.obj
 0001:0016862f       __safe_fprem1              0056962f f LIBCD:adj_fdiv.obj
 0001:00168635       __adj_fpatan               00569635 f LIBCD:adj_fdiv.obj
 0001:00168638       __adj_fptan                00569638 f LIBCD:adj_fdiv.obj
 0001:00168640       __mbsnbicoll               00569640 f LIBCD:mbsnbico.obj
 0001:001686b0       ___wtomb_environ           005696b0 f LIBCD:wtombenv.obj
 0001:00168780       __copysign                 00569780 f LIBCD:ieeemisc.obj
 0001:001687c0       __chgsign                  005697c0 f LIBCD:ieeemisc.obj
 0001:00168800       __scalb                    00569800 f LIBCD:ieeemisc.obj
 0001:00168830       __logb                     00569830 f LIBCD:ieeemisc.obj
 0001:00168990       __nextafter                00569990 f LIBCD:ieeemisc.obj
 0001:00168d40       __finite                   00569d40 f LIBCD:ieeemisc.obj
 0001:00168d80       __isnan                    00569d80 f LIBCD:ieeemisc.obj
 0001:00168df0       __fpclass                  00569df0 f LIBCD:ieeemisc.obj
 0001:00168f30       ___crtCompareStringW       00569f30 f LIBCD:aw_cmp.obj
 0001:00169290       ___crtCompareStringA       0056a290 f LIBCD:aw_cmp.obj
 0001:00169760       ___crtsetenv               0056a760 f LIBCD:setenv.obj
 0001:00169c70       _ldexp                     0056ac70 f LIBCD:ldexp.obj
 0001:00169f60       __mbschr                   0056af60 f LIBCD:mbschr.obj
 0001:0016a050       ?opfx@ostream@@QAEHXZ      0056b050 f libcid:ostream.obj
 0001:0016a100       ?lockbuf@ios@@QAAXXZ       0056b100 f libcid:ostream.obj
 0001:0016a110       ?osfx@ostream@@QAEXXZ      0056b110 f libcid:ostream.obj
 0001:0016a220       ?unlockbuf@ios@@QAAXXZ     0056b220 f libcid:ostream.obj
 0001:0016a230       ??6ostream@@QAEAAV0@PBD@Z  0056b230 f libcid:ostream.obj
 0001:0016a280       ?flush@ostream@@QAEAAV1@XZ 0056b280 f libcid:ostream.obj
 0001:0016a330       ??0ostream@@IAE@XZ         0056b330 f libcid:ostream.obj
 0001:0016a3f0       ??_Eostream@@UAEPAXI@Z     0056b3f0 f libcid:ostream.obj
 0001:0016a3f0       ??_Gostream@@UAEPAXI@Z     0056b3f0 f libcid:ostream.obj
 0001:0016a440       ??_Dostream@@QAEXXZ        0056b440 f libcid:ostream.obj
 0001:0016a470       ??0ostream@@QAE@PAVstreambuf@@@Z 0056b470 f libcid:ostream.obj
 0001:0016a540       ??0ostream@@IAE@ABV0@@Z    0056b540 f libcid:ostream.obj
 0001:0016a620       ?rdbuf@ios@@QBEPAVstreambuf@@XZ 0056b620 f libcid:ostream.obj
 0001:0016a640       ??1ostream@@UAE@XZ         0056b640 f libcid:ostream.obj
 0001:0016a670       ??4ostream@@IAEAAV0@PAVstreambuf@@@Z 0056b670 f libcid:ostream.obj
 0001:0016a7a0       ?delbuf@ios@@QBEHXZ        0056b7a0 f libcid:ostream.obj
 0001:0016a7c0       ?delbuf@ios@@QAEXH@Z       0056b7c0 f libcid:ostream.obj
 0001:0016a7f0       ??0ostream_withassign@@QAE@XZ 0056b7f0 f libcid:ostream.obj
 0001:0016a8c0       ??_Gostream_withassign@@UAEPAXI@Z 0056b8c0 f libcid:ostream.obj
 0001:0016a8c0       ??_Eostream_withassign@@UAEPAXI@Z 0056b8c0 f libcid:ostream.obj
 0001:0016a910       ??_Dostream_withassign@@QAEXXZ 0056b910 f libcid:ostream.obj
 0001:0016a940       ??0ostream_withassign@@QAE@PAVstreambuf@@@Z 0056b940 f libcid:ostream.obj
 0001:0016aa10       ??1ostream_withassign@@UAE@XZ 0056ba10 f libcid:ostream.obj
 0001:0016aa90       ?writepad@ostream@@AAEAAV1@PBD0@Z 0056ba90 f libcid:ostream.obj
 0001:0016acd0       ?sputc@streambuf@@QAEHH@Z  0056bcd0 f libcid:ostream.obj
 0001:0016ad30       ?sputn@streambuf@@QAEHPBDH@Z 0056bd30 f libcid:ostream.obj
 0001:0016ad60       ?get@istream@@IAEAAV1@PADHH@Z 0056bd60 f libcid:istrgetl.obj
 0001:0016aec0       ?isfx@istream@@QAEXXZ      0056bec0 f libcid:istrgetl.obj
 0001:0016af00       ??6ostream@@QAEAAV0@H@Z    0056bf00 f libcid:ostrint.obj
 0001:0016b040       ??6ostream@@QAEAAV0@N@Z    0056c040 f libcid:ostrdbl.obj
 0001:0016b230       ??6ostream@@QAEAAV0@E@Z    0056c230 f libcid:ostrchar.obj
 0001:0016b300       ??0ios@@IAE@XZ             0056c300 f libcid:_ios.obj
 0001:0016b390       ??_Eios@@UAEPAXI@Z         0056c390 f libcid:_ios.obj
 0001:0016b390       ??_Gios@@UAEPAXI@Z         0056c390 f libcid:_ios.obj
 0001:0016b3d0       ??0ios@@QAE@PAVstreambuf@@@Z 0056c3d0 f libcid:_ios.obj
 0001:0016b470       ??0ios@@IAE@ABV0@@Z        0056c470 f libcid:_ios.obj
 0001:0016b4c0       ??1ios@@UAE@XZ             0056c4c0 f libcid:_ios.obj
 0001:0016b540       ?init@ios@@IAEXPAVstreambuf@@@Z 0056c540 f libcid:_ios.obj
 0001:0016b5d0       ??4ios@@IAEAAV0@ABV0@@Z    0056c5d0 f libcid:_ios.obj
 0001:0016b660       ?flags@ios@@QBEJXZ         0056c660 f libcid:_ios.obj
 0001:0016b680       ?width@ios@@QBEHXZ         0056c680 f libcid:_ios.obj
 0001:0016b6a0       ?tie@ios@@QBEPAVostream@@XZ 0056c6a0 f libcid:_ios.obj
 0001:0016b6c0       ?fill@ios@@QBEDXZ          0056c6c0 f libcid:_ios.obj
 0001:0016b6e0       ?precision@ios@@QBEHXZ     0056c6e0 f libcid:_ios.obj
 0001:0016b700       ?rdstate@ios@@QBEHXZ       0056c700 f libcid:_ios.obj
 0001:0016b720       ?xalloc@ios@@SAHXZ         0056c720 f libcid:_ios.obj
 0001:0016b7f0       ?bitalloc@ios@@SAJXZ       0056c7f0 f libcid:_ios.obj
 0001:0016b820       ?lockc@ios@@KAXXZ          0056c820 f libcid:_ios.obj
 0001:0016b830       ?unlockc@ios@@KAXXZ        0056c830 f libcid:_ios.obj
 0001:0016b840       ?snextc@streambuf@@QAEHXZ  0056c840 f libcid:streamb1.obj
 0001:0016b910       ?gptr@streambuf@@IBEPADXZ  0056c910 f libcid:streamb1.obj
 0001:0016b930       ?egptr@streambuf@@IBEPADXZ 0056c930 f libcid:streamb1.obj
 0001:0016b950       ?sbumpc@streambuf@@QAEHXZ  0056c950 f libcid:streamb1.obj
 0001:0016b9f0       ?stossc@streambuf@@QAEXXZ  0056c9f0 f libcid:streamb1.obj
 0001:0016ba90       ?sgetc@streambuf@@QAEHXZ   0056ca90 f libcid:streamb1.obj
 0001:0016baf0       ??0istream@@IAE@XZ         0056caf0 f libcid:istream.obj
 0001:0016bbc0       ??_Gistream@@UAEPAXI@Z     0056cbc0 f libcid:istream.obj
 0001:0016bbc0       ??_Eistream@@UAEPAXI@Z     0056cbc0 f libcid:istream.obj
 0001:0016bc10       ??_Distream@@QAEXXZ        0056cc10 f libcid:istream.obj
 0001:0016bc40       ??0istream@@QAE@PAVstreambuf@@@Z 0056cc40 f libcid:istream.obj
 0001:0016bd30       ??0istream@@IAE@ABV0@@Z    0056cd30 f libcid:istream.obj
 0001:0016be30       ??1istream@@UAE@XZ         0056ce30 f libcid:istream.obj
 0001:0016be60       ??4istream@@IAEAAV0@PAVstreambuf@@@Z 0056ce60 f libcid:istream.obj
 0001:0016bfa0       ?ipfx@istream@@QAEHH@Z     0056cfa0 f libcid:istream.obj
 0001:0016c110       ?in_avail@streambuf@@QBEHXZ 0056d110 f libcid:istream.obj
 0001:0016c160       ??5istream@@QAEAAV0@PAD@Z  0056d160 f libcid:istream.obj
 0001:0016c2c0       ?peek@istream@@QAEHXZ      0056d2c0 f libcid:istream.obj
 0001:0016c320       ?putback@istream@@QAEAAV1@D@Z 0056d320 f libcid:istream.obj
 0001:0016c3d0       ?sputbackc@streambuf@@QAEHD@Z 0056d3d0 f libcid:istream.obj
 0001:0016c430       ?clear@ios@@QAEXH@Z        0056d430 f libcid:istream.obj
 0001:0016c470       ?good@ios@@QBEHXZ          0056d470 f libcid:istream.obj
 0001:0016c4a0       ?sync@istream@@QAEHXZ      0056d4a0 f libcid:istream.obj
 0001:0016c540       ?eatwhite@istream@@QAEXXZ  0056d540 f libcid:istream.obj
 0001:0016c610       ??0istream_withassign@@QAE@XZ 0056d610 f libcid:istream.obj
 0001:0016c6e0       ??_Gistream_withassign@@UAEPAXI@Z 0056d6e0 f libcid:istream.obj
 0001:0016c6e0       ??_Eistream_withassign@@UAEPAXI@Z 0056d6e0 f libcid:istream.obj
 0001:0016c730       ??_Distream_withassign@@QAEXXZ 0056d730 f libcid:istream.obj
 0001:0016c760       ??0istream_withassign@@QAE@PAVstreambuf@@@Z 0056d760 f libcid:istream.obj
 0001:0016c830       ??1istream_withassign@@UAE@XZ 0056d830 f libcid:istream.obj
 0001:0016c8b0       _strupr                    0056d8b0 f LIBC:strupr.obj
 0001:0016c8b0       __strupr                   0056d8b0 f LIBC:strupr.obj
 0001:0016c970       ??1type_info@@UAE@XZ       0056d970 f LIBC:typinfo.obj
 0001:0016c990       ??_Gtype_info@@UAEPAXI@Z   0056d990 f LIBC:typinfo.obj
 0001:0016c990       ??_Etype_info@@UAEPAXI@Z   0056d990 f LIBC:typinfo.obj
 0001:0016c9b0       ??8type_info@@QBEHABV0@@Z  0056d9b0 f LIBC:typinfo.obj
 0001:0016c9f0       ??9type_info@@QBEHABV0@@Z  0056d9f0 f LIBC:typinfo.obj
 0001:0016ca30       ?before@type_info@@QBEHABV1@@Z 0056da30 f LIBC:typinfo.obj
 0001:0016ca70       ?raw_name@type_info@@QBEPBDXZ 0056da70 f LIBC:typinfo.obj
 0001:0016ca80       ??0type_info@@AAE@ABV0@@Z  0056da80 f LIBC:typinfo.obj
 0001:0016ca90       ??4type_info@@AAEAAV0@ABV0@@Z 0056da90 f LIBC:typinfo.obj
 0001:0016ca96       _RtlUnwind@16              0056da96 f kernel32:KERNEL32.dll
 0001:0016ca9c       _IsBadWritePtr@8           0056da9c f kernel32:KERNEL32.dll
 0001:0016caa2       _IsBadReadPtr@8            0056daa2 f kernel32:KERNEL32.dll
 0001:0016caa8       _HeapValidate@12           0056daa8 f kernel32:KERNEL32.dll
 0001:0016caae       _GetModuleFileNameA@12     0056daae f kernel32:KERNEL32.dll
 0001:0016cab4       _FindFirstFileA@8          0056dab4 f kernel32:KERNEL32.dll
 0001:0016caba       _FindNextFileA@8           0056daba f kernel32:KERNEL32.dll
 0001:0016cac0       _FindClose@4               0056dac0 f kernel32:KERNEL32.dll
 0001:0016cac6       _FileTimeToSystemTime@8    0056dac6 f kernel32:KERNEL32.dll
 0001:0016cacc       _FileTimeToLocalFileTime@8 0056dacc f kernel32:KERNEL32.dll
 0001:0016cad2       _GetTimeZoneInformation@4  0056dad2 f kernel32:KERNEL32.dll
 0001:0016cad8       _GetSystemTime@4           0056dad8 f kernel32:KERNEL32.dll
 0001:0016cade       _GetLocalTime@4            0056dade f kernel32:KERNEL32.dll
 0001:0016cae4       _DebugBreak@0              0056dae4 f kernel32:KERNEL32.dll
 0001:0016caea       _GetStdHandle@4            0056daea f kernel32:KERNEL32.dll
 0001:0016caf0       _InterlockedDecrement@4    0056daf0 f kernel32:KERNEL32.dll
 0001:0016caf6       _WriteFile@20              0056daf6 f kernel32:KERNEL32.dll
 0001:0016cafc       _GetProcAddress@8          0056dafc f kernel32:KERNEL32.dll
 0001:0016cb02       _InterlockedIncrement@4    0056db02 f kernel32:KERNEL32.dll
 0001:0016cb08       _SetFilePointer@16         0056db08 f kernel32:KERNEL32.dll
 0001:0016cb0e       _GetFileType@4             0056db0e f kernel32:KERNEL32.dll
 0001:0016cb14       _SetCurrentDirectoryA@4    0056db14 f kernel32:KERNEL32.dll
 0001:0016cb1a       _SetEnvironmentVariableA@8 0056db1a f kernel32:KERNEL32.dll
 0001:0016cb20       _GetFullPathNameA@16       0056db20 f kernel32:KERNEL32.dll
 0001:0016cb26       _GetDriveTypeA@4           0056db26 f kernel32:KERNEL32.dll
 0001:0016cb2c       _GetStartupInfoA@4         0056db2c f kernel32:KERNEL32.dll
 0001:0016cb32       _GetCommandLineA@0         0056db32 f kernel32:KERNEL32.dll
 0001:0016cb38       _GetVersion@0              0056db38 f kernel32:KERNEL32.dll
 0001:0016cb3e       _ExitProcess@4             0056db3e f kernel32:KERNEL32.dll
 0001:0016cb44       _TerminateProcess@8        0056db44 f kernel32:KERNEL32.dll
 0001:0016cb4a       _GetCurrentProcess@0       0056db4a f kernel32:KERNEL32.dll
 0001:0016cb50       _HeapAlloc@12              0056db50 f kernel32:KERNEL32.dll
 0001:0016cb56       _HeapReAlloc@16            0056db56 f kernel32:KERNEL32.dll
 0001:0016cb5c       _HeapFree@12               0056db5c f kernel32:KERNEL32.dll
 0001:0016cb62       _HeapDestroy@4             0056db62 f kernel32:KERNEL32.dll
 0001:0016cb68       _HeapCreate@12             0056db68 f kernel32:KERNEL32.dll
 0001:0016cb6e       _VirtualFree@12            0056db6e f kernel32:KERNEL32.dll
 0001:0016cb74       _VirtualAlloc@16           0056db74 f kernel32:KERNEL32.dll
 0001:0016cb7a       _SetConsoleCtrlHandler@8   0056db7a f kernel32:KERNEL32.dll
 0001:0016cb80       _MultiByteToWideChar@24    0056db80 f kernel32:KERNEL32.dll
 0001:0016cb86       _LCMapStringA@24           0056db86 f kernel32:KERNEL32.dll
 0001:0016cb8c       _WideCharToMultiByte@32    0056db8c f kernel32:KERNEL32.dll
 0001:0016cb92       _LCMapStringW@24           0056db92 f kernel32:KERNEL32.dll
 0001:0016cb98       _SetHandleCount@4          0056db98 f kernel32:KERNEL32.dll
 0001:0016cb9e       _SetStdHandle@8            0056db9e f kernel32:KERNEL32.dll
 0001:0016cba4       _SetEndOfFile@4            0056dba4 f kernel32:KERNEL32.dll
 0001:0016cbaa       _RaiseException@16         0056dbaa f kernel32:KERNEL32.dll
 0001:0016cbb0       _GetCPInfo@8               0056dbb0 f kernel32:KERNEL32.dll
 0001:0016cbb6       _GetACP@0                  0056dbb6 f kernel32:KERNEL32.dll
 0001:0016cbbc       _GetOEMCP@0                0056dbbc f kernel32:KERNEL32.dll
 0001:0016cbc2       _FlushFileBuffers@4        0056dbc2 f kernel32:KERNEL32.dll
 0001:0016cbc8       _UnhandledExceptionFilter@4 0056dbc8 f kernel32:KERNEL32.dll
 0001:0016cbce       _FreeEnvironmentStringsA@4 0056dbce f kernel32:KERNEL32.dll
 0001:0016cbd4       _GetEnvironmentStrings@0   0056dbd4 f kernel32:KERNEL32.dll
 0001:0016cbda       _FreeEnvironmentStringsW@4 0056dbda f kernel32:KERNEL32.dll
 0001:0016cbe0       _GetEnvironmentStringsW@0  0056dbe0 f kernel32:KERNEL32.dll
 0001:0016cbe6       _SetUnhandledExceptionFilter@4 0056dbe6 f kernel32:KERNEL32.dll
 0001:0016cbec       _IsBadCodePtr@4            0056dbec f kernel32:KERNEL32.dll
 0001:0016cbf2       _GetStringTypeA@20         0056dbf2 f kernel32:KERNEL32.dll
 0001:0016cbf8       _GetStringTypeW@16         0056dbf8 f kernel32:KERNEL32.dll
 0001:0016cbfe       _CompareStringA@24         0056dbfe f kernel32:KERNEL32.dll
 0001:0016cc04       _CompareStringW@24         0056dc04 f kernel32:KERNEL32.dll
 0001:0016cc10       ??2@YAPAXIHPBDH@Z          0056dc10 f LIBCD:dbgnew.obj
 0002:00000000       _SHAPE_DRAW_PROCS          0056e000   Asm_draw.obj
 0002:00009500       _ASMSet_Shadowing          00577500   Asm_draw.obj
 0002:00009540       _ASMSet_Surface_Info       00577540   Asm_draw.obj
 0002:00009580       _ASMSet_Color_Xform        00577580   Asm_draw.obj
 0002:000095a0       _ASMSet_Xlate_Table        005775a0   Asm_draw.obj
 0002:000095c0       _ASMDraw_Sprite            005775c0   Asm_draw.obj
 0003:00000054       ??_7MessageQueueElement@@6B@ 00579054   mqueue.obj
 0003:00000058       ??_7MessageQueue@@6B@      00579058   mqueue.obj
 0003:00000060       ??_7TPanel@@6B@            00579060   Panel.obj
 0003:00000108       ??_7ResourceItem@@6B@      00579108   airesitm.obj
 0003:00000110       ??_7TScrollBarPanel@@6B@   00579110   Pnl_scbr.obj
 0003:000001b8       _TRIBE_GUID                005791b8   main.obj
 0003:000001d8       ??_7TPicturePanel@@6B@     005791d8   Pnl_pic.obj
 0003:00000280       ??_7TribeConstructionAIModule@@6B@ 00579280   taiconmd.obj
 0003:000002e8       ??_7TribeDiplomacyDialog@@6B@ 005792e8   dlg_dip.obj
 0003:00000398       ??_7TribeGameSettingsScreen@@6B@ 00579398   scr_set.obj
 0003:00000480       ??_7TRIBE_Panel_Button@@6B@ 00579480   tpnl_btn.obj
 0003:00000530       ??_7TRIBE_Action_Build@@6B@ 00579530   tact_bld.obj
 0003:00000598       ??_7STRATOS_Action_Transport@@6B@ 00579598   s_act_tr.obj
 0003:00000630       ??_7TRIBE_Action_Discovery_Artifact@@6B@ 00579630   tact_dar.obj
 0003:000006b8       ??_7TRIBE_Master_Combat_Object@@6B@ 005796b8   tm_co_ob.obj
 0003:000006f0       ??_7TRIBE_Task_List@@6B@   005796f0   tm_co_ob.obj
 0003:00000700       ??_7TribeSelectTribeScreen@@6B@ 00579700   scr_trb.obj
 0003:000007e8       ??_7BaseItem@@6B@          005797e8   aibitm.obj
 0003:00000808       ??_7RGE_View@@6B@          00579808   view.obj
 0003:000008c8       ??_7RGE_Base_Game@@6B@     005798c8   basegame.obj
 0003:000009e8       ??_7RGE_Action_Combat@@6B@ 005799e8   ACT_comb.obj
 0003:00000a50       ??_7TEditPanel@@6B@        00579a50   pnl_edit.obj
 0003:00000b08       ??_7TRIBE_Panel_Object@@6B@ 00579b08   tpnl_obj.obj
 0003:00000bb0       ??_7TButtonPanel@@6B@      00579bb0   Pnl_btn.obj
 0003:00000c60       ??_7TRIBE_Action_Artifact@@6B@ 00579c60   tact_art.obj
 0003:00000ce0       ??_7TRIBE_Map@@6B@         00579ce0   tmap.obj
 0003:00000d00       ??_7RGE_Diamond_Map@@6B@   00579d00   diam_map.obj
 0003:00000db8       ??_7RGE_Action_Attack@@6B@ 00579db8   Act_atak.obj
 0003:00000e28       ??_7RGE_Missile_Object@@6B@ 00579e28   misl_obj.obj
 0003:00000fb0       ??_7RGE_Task_List@@6B@     00579fb0   task_lst.obj
 0003:00000fc8       ??_7TribeMainDecisionAIModule@@6B@ 00579fc8   taimdmd.obj
 0003:00001018       ??_7TRIBE_Mission_Screen@@6B@ 0057a018   scr_vc.obj
 0003:00001100       ??_7TScreenPanel@@6B@      0057a100   Pnl_scr.obj
 0003:000011e8       ??_7TDropDownPanel@@6B@    0057a1e8   Pnl_drop.obj
 0003:00001290       ??_7TDropDownButtonPanel@@6B@ 0057a290   Pnl_drop.obj
 0003:00001340       ??_7TribeSaveGameScreen@@6B@ 0057a340   scr_save.obj
 0003:00001428       ??_7TRIBE_Action_Heal@@6B@ 0057a428   tact_hea.obj
 0003:00001498       ??_7TRIBE_Building_Object@@6B@ 0057a498   t_b_obj.obj
 0003:00001650       ??_7TRIBE_Panel_Inven@@6B@ 0057a650   tpnl_inv.obj
 0003:000016f8       ??_7TribeBuildAIModule@@6B@ 0057a6f8   taibldmd.obj
 0003:00001770       ??_7RGE_Master_Animated_Object@@6B@ 0057a770   m_an_obj.obj
 0003:000017a0       ??_7BuildItem@@6B@         0057a7a0   aiblditm.obj
 0003:000017e8       ??_7UnitAIModule@@6B@      0057a7e8   aiuaimod.obj
 0003:000018a4       ??_7RGE_Visible_Map@@6B@   0057a8a4   visible.obj
 0003:000018a8       ??_7TRIBE_Master_Building_Object@@6B@ 0057a8a8   tm_b_obj.obj
 0003:000018e0       ??_7TRIBE_Dialog_List@@6B@ 0057a8e0   tdlg_lst.obj
 0003:00001998       ??_7TRIBE_Dialog_Sed_Menu@@6B@ 0057a998   dlg_sedm.obj
 0003:00001a80       ??_7RGE_Action_Bird@@6B@   0057aa80   act_bird.obj
 0003:00001af0       ??_7UnitAIGroup@@6B@       0057aaf0   aiuaigrp.obj
 0003:00001bc0       ??_7TRIBE_Panel_Text_Line@@6B@ 0057abc0   tpnl_txl.obj
 0003:00001c68       ??_7TRIBE_Screen_Campaign_Selection@@6B@ 0057ac68   scr_cams.obj
 0003:00001d50       ??_7TribeSendMessageDialog@@6B@ 0057ad50   dlg_smsg.obj
 0003:00001df8       ??_7TribeSendQuickMessageDialog@@6B@ 0057adf8   dlg_smsg.obj
 0003:00001ea0       _IID_IDirectPlay2          0057aea0   Com_hand.obj
 0003:00001eb0       _IID_IDirectPlay2A         0057aeb0   Com_hand.obj
 0003:00001ec0       _IID_IDirectPlayLobby      0057aec0   Com_hand.obj
 0003:00001ed0       _IID_IDirectPlayLobbyA     0057aed0   Com_hand.obj
 0003:00001ee0       _DPAID_ServiceProvider     0057aee0   Com_hand.obj
 0003:00001ef0       _DPAID_Phone               0057aef0   Com_hand.obj
 0003:00001f00       _DPAID_INet                0057af00   Com_hand.obj
 0003:00001f10       _DPAID_ComPort             0057af10   Com_hand.obj
 0003:00001f20       _CLSID_DirectDraw          0057af20   Com_hand.obj
 0003:00001f30       _CLSID_DirectDrawClipper   0057af30   Com_hand.obj
 0003:00001f40       _IID_IDirectDraw           0057af40   Com_hand.obj
 0003:00001f50       _IID_IDirectDraw2          0057af50   Com_hand.obj
 0003:00001f60       _IID_IDirectDrawSurface    0057af60   Com_hand.obj
 0003:00001f70       _IID_IDirectDrawSurface2   0057af70   Com_hand.obj
 0003:00001f80       _IID_IDirectDrawPalette    0057af80   Com_hand.obj
 0003:00001f90       _IID_IDirectDrawClipper    0057af90   Com_hand.obj
 0003:00001fa0       _CLSID_DirectSound         0057afa0   Com_hand.obj
 0003:00001fb0       _IID_IDirectSound          0057afb0   Com_hand.obj
 0003:00001fc0       _IID_IDirectSoundBuffer    0057afc0   Com_hand.obj
 0003:00001fd0       _IID_IDirectSound3DListener 0057afd0   Com_hand.obj
 0003:00001fe0       _IID_IDirectSound3DBuffer  0057afe0   Com_hand.obj
 0003:00002030       ??_7TribeGameSetupScreen@@6B@ 0057b030   scr_mpss.obj
 0003:00002114       ??_7VictoryConditionRuleSystem@@6B@ 0057b114   taistrmd.obj
 0003:00002120       ??_7TribeStrategyAIModule@@6B@ 0057b120   taistrmd.obj
 0003:00002160       ??_7TRIBE_Master_Tree_Object@@6B@ 0057b160   tm_tre_o.obj
 0003:00002190       ??_7RGE_Master_Missile_Object@@6B@ 0057b190   m_mi_obj.obj
 0003:000021c8       ??_7TribeAIPlayer@@6BAIPlayer@@@ 0057b1c8   taiplyr.obj
 0003:000021d0       ??_7TribeAIPlayer@@6BTRIBE_Player@@@ 0057b1d0   taiplyr.obj
 0003:000022c0       ??_7RGE_Action_Object@@6B@ 0057b2c0   act_obj.obj
 0003:00002444       ??_7BaseObject@@6B@        0057b444   aibobj.obj
 0003:00002448       ??_7TRIBE_Campaign_Editor_Screen@@6B@ 0057b448   scr_cam.obj
 0003:00002530       ??_7RGE_Action_Missile@@6B@ 0057b530   ACT_misl.obj
 0003:000025a8       ??_7TRIBE_Player@@6B@      0057b5a8   tplayer.obj
 0003:00002680       ??_7TRIBE_Object_List@@6B@ 0057b680   tplayer.obj
 0003:00002688       ??_7TRIBE_Gaia@@6B@        0057b688   tplayer.obj
 0003:00002738       ??_7TribeMenuDialog@@6B@   0057b738   dlg_menu.obj
 0003:000027e0       ??_7RGE_Color_Table@@6B@   0057b7e0   color.obj
 0003:000027e8       ??_7TRIBE_Scenario_Header@@6B@ 0057b7e8   tscenaro.obj
 0003:000027f0       ??_7T_Scenario@@6B@        0057b7f0   tscenaro.obj
 0003:00002820       ??_7RGE_Animated_Object@@6B@ 0057b820   ani_obj.obj
 0003:00002968       ??_7RGE_Dialog_List@@6B@   0057b968   rdlg_lst.obj
 0003:00002a20       ??_7RGE_Master_Combat_Object@@6B@ 0057ba20   m_co_obj.obj
 0003:00002a58       ??_7RGE_Panel_Time@@6B@    0057ba58   rpnl_tim.obj
 0003:00002b00       ??_7TribeLoadSavedGameScreen@@6B@ 0057bb00   scr_load.obj
 0003:00002be8       ??_7TDialogPanel@@6B@      0057bbe8   pnl_dlg.obj
 0003:00002cd0       ??_7ResearchAIModule@@6B@  0057bcd0   airchmod.obj
 0003:00002d28       ??_7RGE_Action_Explore@@6B@ 0057bd28   act_expl.obj
 0003:00002d98       ??_7RGE_Active_Sprite@@6B@ 0057bd98   asprite.obj
 0003:00002df8       ??_7RGE_Active_Animated_Sprite@@6B@ 0057bdf8   asprite.obj
 0003:00002e38       ??_7MainDecisionAIModule@@6B@ 0057be38   aimdmod.obj
 0003:00002e88       ??_7TRIBE_Combat_Object@@6B@ 0057be88   t_c_obj.obj
 0003:00003030       ??_7ResourceAIModule@@6B@  0057c030   airesmod.obj
 0003:00003070       ??_7TradeAIModule@@6B@     0057c070   aitrdmod.obj
 0003:000030b0       ??_7RGE_Static_Object@@6B@ 0057c0b0   stat_obj.obj
 0003:00003240       ??_7TRIBE_Action_Hunt@@6B@ 0057c240   tact_hnt.obj
 0003:000032a8       ??_7TribeLandMaker@@6B@    0057c2a8   trib_set.obj
 0003:00003490       ??_7STRATOS_Action_Gather@@6B@ 0057c490   s_act_ga.obj
 0003:000034f8       ??_7RGE_Action_Transport@@6B@ 0057c4f8   act_tran.obj
 0003:00003568       ??_7TRIBE_Screen_Sed_Open@@6B@ 0057c568   scr_sedo.obj
 0003:00003668       ??_7ConstructionAIModule@@6B@ 0057c668   aiconmod.obj
 0003:000036c0       ??_7TRIBE_World@@6B@       0057c6c0   tworld.obj
 0003:000037a8       ??_7TRIBE_Screen_Main_Menu@@6B@ 0057c7a8   Scr_main.obj
 0003:00003890       ??_7TRIBE_Action_List@@6B@ 0057c890   tact_lst.obj
 0003:000038b0       ??_7TribeResourceAIModule@@6B@ 0057c8b0   tairesmd.obj
 0003:000038f0       ??_7RGE_Map_View@@6B@      0057c8f0   vw_map.obj
 0003:000039b8       ??_7TTextPanel@@6B@        0057c9b8   Pnl_txt.obj
 0003:00003a70       ??_7EmotionalAIModule@@6B@ 0057ca70   aiemomod.obj
 0003:00003ab0       ??_7RGE_Master_Moving_Object@@6B@ 0057cab0   m_mo_obj.obj
 0003:00003ae0       ??_7TribeConfigDialog@@6B@ 0057cae0   dlg_conf.obj
 0003:00003b88       ??_7TInputPanel@@6B@       0057cb88   Pnl_inp.obj
 0003:00003c40       ??_7TRIBE_Screen_Game@@6B@ 0057cc40   scr_game.obj
 0003:00003d28       ??_7TRIBE_Main_View@@6B@   0057cd28   scr_game.obj
 0003:00003df8       ??_7TRIBE_Diamond_Map_View@@6B@ 0057cdf8   scr_game.obj
 0003:00003ec8       ??_7TRIBE_Screen_Sed@@6B@  0057cec8   scr_sed.obj
 0003:00003fe0       ??_7RGE_Game_World@@6B@    0057cfe0   World.obj
 0003:000040c0       ??_7TListDialog@@6B@       0057d0c0   dlg_list.obj
 0003:00004170       ??_7RGE_Player@@6B@        0057d170   player.obj
 0003:00004210       ??_7TEasy_Panel@@6B@       0057d210   Panel_ez.obj
 0003:000042f8       ??_7TMessagePanel@@6B@     0057d2f8   Pnl_msg.obj
 0003:000043b8       ??_7RGE_Action_Make@@6B@   0057d3b8   ACT_make.obj
 0003:00004418       ??_7BuildAIModule@@6B@     0057d418   aibldmod.obj
 0003:00004498       ??_7RGE_Combat_Object@@6B@ 0057d498   com_obj.obj
 0003:00004630       ??_7ConstructionItem@@6B@  0057d630   aiconitm.obj
 0003:00004638       ??_7RGE_Active_Sprite_List@@6B@ 0057d638   asp_list.obj
 0003:00004668       ??_7TRIBE_Action@@6B@      0057d668   TACTION.obj
 0003:000046c8       ??_7RGE_Action_Gather@@6B@ 0057d6c8   ACT_GATH.obj
 0003:00004730       ??_7TribeEndScreen@@6B@    0057d730   scr_end.obj
 0003:00004818       ??_7TacticalAIModule@@6B@  0057d818   aitacmod.obj
 0003:00004858       ??_7TRIBE_Command@@6B@     0057d858   tcommand.obj
 0003:00004870       ??_7ControlerOfLandscape@@6B@ 0057d870   map_ctrl.obj
 0003:00004a58       ??_7TRIBE_Tree_Object@@6B@ 0057da58   t_tre_ob.obj
 0003:00004b98       ??_7InformationAIModule@@6B@ 0057db98   aiinfmod.obj
 0003:00004bd8       ??_7STRATOS_Action_Move_To@@6B@ 0057dbd8   s_act_mo.obj
 0003:00004c58       ??_7TribeMPSetupScreen@@6B@ 0057dc58   scr_mps.obj
 0003:00004d40       ??_7RGE_Command@@6B@       0057dd40   Command.obj
 0003:00004d70       ??_7TVerticalSliderPanel@@6B@ 0057dd70   pnl_sld.obj
 0003:00004e18       ??_7THorizontalSliderPanel@@6B@ 0057de18   pnl_sld.obj
 0003:00004ec0       ??_7RGE_Timeline@@6B@      0057dec0   Timeline.obj
 0003:00004ed0       ??_7AIPlayer@@6B@          0057ded0   aiplayer.obj
 0003:00004ed8       ??_7RGE_Scenario_Header@@6B@ 0057ded8   scenario.obj
 0003:00004ee0       ??_7RGE_Scenario@@6B@      0057dee0   scenario.obj
 0003:00004f00       ??_7RGE_Map@@6B@           0057df00   map.obj
 0003:00004f58       ??_7TRIBE_Screen_Status_Message@@6B@ 0057df58   scr_stms.obj
 0003:00005040       ??_7RGE_Main_View@@6B@     0057e040   vw_main.obj
 0003:00005118       ??_7TRIBE_Action_Explore@@6B@ 0057e118   tact_exp.obj
 0003:00005188       ??_7RGE_Master_Action_Object@@6B@ 0057e188   m_ac_obj.obj
 0003:000051c0       ??_7TRIBE_Action_Repair@@6B@ 0057e1c0   tact_rep.obj
 0003:00005220       ??_7TRIBE_Master_Player@@6B@ 0057e220   tmplayer.obj
 0003:00005238       ??_7AIModuleID@@6B@        0057e238   aimodule.obj
 0003:0000523c       ??_7AIModuleMessage@@6B@   0057e23c   aimodule.obj
 0003:00005240       ??_7AIModule@@6B@          0057e240   aimodule.obj
